EXPORTS 
	??_R0?AV<lambda_9dc10b06c5357c9d6a4dd2efe98fbbb9>@@@8 	 DATA
	??_R0?AV?$_Func_base@X$$V@std@@@8 	 DATA
	??_R0?AV?$_Func_impl_no_alloc@V<lambda_9dc10b06c5357c9d6a4dd2efe98fbbb9>@@X$$V@std@@@8 	 DATA
	??_R0?AV?$_Iosb@H@std@@@8 	 DATA
	??_R0?AV?$basic_ios@DU?$char_traits@D@std@@@std@@@8 	 DATA
	??_R0?AV?$basic_iostream@DU?$char_traits@D@std@@@std@@@8 	 DATA
	??_R0?AV?$basic_istream@DU?$char_traits@D@std@@@std@@@8 	 DATA
	??_R0?AV?$basic_ostream@DU?$char_traits@D@std@@@std@@@8 	 DATA
	??_R0?AV?$basic_streambuf@DU?$char_traits@D@std@@@std@@@8 	 DATA
	??_R0?AV?$basic_stringbuf@DU?$char_traits@D@std@@V?$allocator@D@2@@std@@@8 	 DATA
	??_R0?AV?$basic_stringstream@DU?$char_traits@D@std@@V?$allocator@D@2@@std@@@8 	 DATA
	??_R0?AVGraph@easy3d@@@8 	 DATA
	??_R0?AVModel@easy3d@@@8 	 DATA
	??_R0?AVMultiViewer@easy3d@@@8 	 DATA
	??_R0?AVNoCopy@base@el@@@8 	 DATA
	??_R0?AVOffScreen@easy3d@@@8 	 DATA
	??_R0?AVPointCloud@easy3d@@@8 	 DATA
	??_R0?AVSurfaceMesh@easy3d@@@8 	 DATA
	??_R0?AVViewer@easy3d@@@8 	 DATA
	??_R0?AVWriter@base@el@@@8 	 DATA
	??_R0?AVbad_alloc@std@@@8 	 DATA
	??_R0?AVbad_array_new_length@std@@@8 	 DATA
	??_R0?AVexception@std@@@8 	 DATA
	??_R0?AVios_base@std@@@8 	 DATA
	??_R0?AVruntime_error@std@@@8 	 DATA
	?_OptionsStorage@?1??__local_stdio_printf_options@@9@4_KA 	 DATA
	??$?0PEAD$0A@@?$basic_string@DU?$char_traits@D@std@@V?$allocator@D@2@@std@@QEAA@PEAD0AEBV?$allocator@D@1@@Z
	??$?6$$BY01D@Writer@base@el@@QEAAAEAV012@AEAY01$$CBD@Z
	??$?6$$BY02D@Writer@base@el@@QEAAAEAV012@AEAY02$$CBD@Z
	??$?6$$BY0BA@D@Writer@base@el@@QEAAAEAV012@AEAY0BA@$$CBD@Z
	??$?6$$BY0BC@D@Writer@base@el@@QEAAAEAV012@AEAY0BC@$$CBD@Z
	??$?6$$BY0BD@D@Writer@base@el@@QEAAAEAV012@AEAY0BD@$$CBD@Z
	??$?6$$BY0BE@D@Writer@base@el@@QEAAAEAV012@AEAY0BE@$$CBD@Z
	??$?6$$BY0BI@D@Writer@base@el@@QEAAAEAV012@AEAY0BI@$$CBD@Z
	??$?6$$BY0BL@D@Writer@base@el@@QEAAAEAV012@AEAY0BL@$$CBD@Z
	??$?6$$BY0BP@D@Writer@base@el@@QEAAAEAV012@AEAY0BP@$$CBD@Z
	??$?6$$BY0CA@D@Writer@base@el@@QEAAAEAV012@AEAY0CA@$$CBD@Z
	??$?6$$BY0CE@D@Writer@base@el@@QEAAAEAV012@AEAY0CE@$$CBD@Z
	??$?6$$BY0CK@D@Writer@base@el@@QEAAAEAV012@AEAY0CK@$$CBD@Z
	??$?6DU?$char_traits@D@std@@V?$allocator@D@1@@std@@YAAEAV?$basic_ostream@DU?$char_traits@D@std@@@0@AEAV10@AEBV?$basic_string@DU?$char_traits@D@std@@V?$allocator@D@2@@0@@Z
	??$?6H@Writer@base@el@@QEAAAEAV012@AEBH@Z
	??$?6U?$char_traits@D@std@@@std@@YAAEAV?$basic_ostream@DU?$char_traits@D@std@@@0@AEAV10@D@Z
	??$?6U?$char_traits@D@std@@@std@@YAAEAV?$basic_ostream@DU?$char_traits@D@std@@@0@AEAV10@PEBD@Z
	??$?6U?$char_traits@D@std@@@std@@YAAEAV?$basic_ostream@DU?$char_traits@D@std@@@0@AEAV10@PEBE@Z
	??$?6V?$basic_string@DU?$char_traits@D@std@@V?$allocator@D@2@@std@@@Writer@base@el@@QEAAAEAV012@AEBV?$basic_string@DU?$char_traits@D@std@@V?$allocator@D@2@@std@@@Z
	??$?9DU?$char_traits@D@std@@V?$allocator@D@1@@std@@YA_NAEBV?$basic_string@DU?$char_traits@D@std@@V?$allocator@D@2@@0@0@Z
	??$?9DU?$char_traits@D@std@@V?$allocator@D@1@@std@@YA_NAEBV?$basic_string@DU?$char_traits@D@std@@V?$allocator@D@2@@0@QEBD@Z
	??$?HDU?$char_traits@D@std@@V?$allocator@D@1@@std@@YA?AV?$basic_string@DU?$char_traits@D@std@@V?$allocator@D@2@@0@$$QEAV10@0@Z
	??$?HDU?$char_traits@D@std@@V?$allocator@D@1@@std@@YA?AV?$basic_string@DU?$char_traits@D@std@@V?$allocator@D@2@@0@$$QEAV10@QEBD@Z
	??$?HDU?$char_traits@D@std@@V?$allocator@D@1@@std@@YA?AV?$basic_string@DU?$char_traits@D@std@@V?$allocator@D@2@@0@QEBD$$QEAV10@@Z
	??$_Allocate_manually_vector_aligned@U_Default_allocate_traits@std@@@std@@YAPEAX_K@Z
	??$_Construct@$00PEBD@?$basic_string@DU?$char_traits@D@std@@V?$allocator@D@2@@std@@AEAAXQEBD_K@Z
	??$_Copy_memmove@PEAEPEAE@std@@YAPEAEPEAE00@Z
	??$_Copy_memmove@PEAPEAVDrawable@easy3d@@PEAPEAV12@@std@@YAPEAPEAVDrawable@easy3d@@PEAPEAV12@00@Z
	??$_Copy_memmove@PEAPEAVModel@easy3d@@PEAPEAV12@@std@@YAPEAPEAVModel@easy3d@@PEAPEAV12@00@Z
	??$_Copy_memmove@PEAPEAVTrianglesDrawable@easy3d@@PEAPEAV12@@std@@YAPEAPEAVTrianglesDrawable@easy3d@@PEAPEAV12@00@Z
	??$_Copy_memmove@PEAPEBVDrawable@easy3d@@PEAPEBV12@@std@@YAPEAPEBVDrawable@easy3d@@PEAPEBV12@00@Z
	??$_Copy_memmove@PEAPEBVModel@easy3d@@PEAPEBV12@@std@@YAPEAPEBVModel@easy3d@@PEAPEBV12@00@Z
	??$_Copy_memmove@PEAV?$Vec@$01M@easy3d@@PEAV12@@std@@YAPEAV?$Vec@$01M@easy3d@@PEAV12@00@Z
	??$_Copy_memmove@PEBV?$Vec@$02M@easy3d@@PEAV12@@std@@YAPEAV?$Vec@$02M@easy3d@@PEBV12@0PEAV12@@Z
	??$_Destroy_range@V?$allocator@U?$pair@W4AttribType@ShaderProgram@easy3d@@V?$basic_string@DU?$char_traits@D@std@@V?$allocator@D@2@@std@@@std@@@std@@@std@@YAXPEAU?$pair@W4AttribType@ShaderProgram@easy3d@@V?$basic_string@DU?$char_traits@D@std@@V?$allocator@D@2@@std@@@0@QEAU10@AEAV?$allocator@U?$pair@W4AttribType@ShaderProgram@easy3d@@V?$basic_string@DU?$char_traits@D@std@@V?$allocator@D@2@@std@@@std@@@0@@Z
	??$_Destroy_range@V?$allocator@UView@MultiViewer@easy3d@@@std@@@std@@YAXPEAUView@MultiViewer@easy3d@@QEAU123@AEAV?$allocator@UView@MultiViewer@easy3d@@@0@@Z
	??$_Destroy_range@V?$allocator@V?$basic_string@DU?$char_traits@D@std@@V?$allocator@D@2@@std@@@std@@@std@@YAXPEAV?$basic_string@DU?$char_traits@D@std@@V?$allocator@D@2@@0@QEAV10@AEAV?$allocator@V?$basic_string@DU?$char_traits@D@std@@V?$allocator@D@2@@std@@@0@@Z
	??$_Destroy_range@V?$allocator@V?$vector@UView@MultiViewer@easy3d@@V?$allocator@UView@MultiViewer@easy3d@@@std@@@std@@@std@@@std@@YAXPEAV?$vector@UView@MultiViewer@easy3d@@V?$allocator@UView@MultiViewer@easy3d@@@std@@@0@QEAV10@AEAV?$allocator@V?$vector@UView@MultiViewer@easy3d@@V?$allocator@UView@MultiViewer@easy3d@@@std@@@std@@@0@@Z
	??$_Emplace_reallocate@AEBQEAVDrawable@easy3d@@@?$vector@PEAVDrawable@easy3d@@V?$allocator@PEAVDrawable@easy3d@@@std@@@std@@AEAAPEAPEAVDrawable@easy3d@@QEAPEAV23@AEBQEAV23@@Z
	??$_Emplace_reallocate@AEBQEAVModel@easy3d@@@?$vector@PEAVModel@easy3d@@V?$allocator@PEAVModel@easy3d@@@std@@@std@@AEAAPEAPEAVModel@easy3d@@QEAPEAV23@AEBQEAV23@@Z
	??$_Emplace_reallocate@AEBQEBVDrawable@easy3d@@@?$vector@PEBVDrawable@easy3d@@V?$allocator@PEBVDrawable@easy3d@@@std@@@std@@AEAAPEAPEBVDrawable@easy3d@@QEAPEBV23@AEBQEBV23@@Z
	??$_Emplace_reallocate@AEBQEBVModel@easy3d@@@?$vector@PEBVModel@easy3d@@V?$allocator@PEBVModel@easy3d@@@std@@@std@@AEAAPEAPEBVModel@easy3d@@QEAPEBV23@AEBQEBV23@@Z
	??$_Emplace_reallocate@U?$pair@W4AttribType@ShaderProgram@easy3d@@V?$basic_string@DU?$char_traits@D@std@@V?$allocator@D@2@@std@@@std@@@?$vector@U?$pair@W4AttribType@ShaderProgram@easy3d@@V?$basic_string@DU?$char_traits@D@std@@V?$allocator@D@2@@std@@@std@@V?$allocator@U?$pair@W4AttribType@ShaderProgram@easy3d@@V?$basic_string@DU?$char_traits@D@std@@V?$allocator@D@2@@std@@@std@@@2@@std@@AEAAPEAU?$pair@W4AttribType@ShaderProgram@easy3d@@V?$basic_string@DU?$char_traits@D@std@@V?$allocator@D@2@@std@@@1@QEAU21@$$QEAU21@@Z
	??$_Emplace_reallocate@V?$Vec@$01M@easy3d@@@?$vector@V?$Vec@$01M@easy3d@@V?$allocator@V?$Vec@$01M@easy3d@@@std@@@std@@AEAAPEAV?$Vec@$01M@easy3d@@QEAV23@$$QEAV23@@Z
	??$_Erase_tree@V?$allocator@U?$_Tree_node@U?$pair@$$CBW4Key@Viewer@easy3d@@V?$map@W4Modifier@Viewer@easy3d@@U?$pair@V?$function@$$A6A_NPEAVViewer@easy3d@@PEAVModel@2@@Z@std@@PEAVModel@easy3d@@@std@@U?$less@W4Modifier@Viewer@easy3d@@@5@V?$allocator@U?$pair@$$CBW4Modifier@Viewer@easy3d@@U?$pair@V?$function@$$A6A_NPEAVViewer@easy3d@@PEAVModel@2@@Z@std@@PEAVModel@easy3d@@@std@@@std@@@5@@std@@@std@@PEAX@std@@@std@@@?$_Tree_val@U?$_Tree_simple_types@U?$pair@$$CBW4Key@Viewer@easy3d@@V?$map@W4Modifier@Viewer@easy3d@@U?$pair@V?$function@$$A6A_NPEAVViewer@easy3d@@PEAVModel@2@@Z@std@@PEAVModel@easy3d@@@std@@U?$less@W4Modifier@Viewer@easy3d@@@5@V?$allocator@U?$pair@$$CBW4Modifier@Viewer@easy3d@@U?$pair@V?$function@$$A6A_NPEAVViewer@easy3d@@PEAVModel@2@@Z@std@@PEAVModel@easy3d@@@std@@@std@@@5@@std@@@std@@@std@@@std@@QEAAXAEAV?$allocator@U?$_Tree_node@U?$pair@$$CBW4Key@Viewer@easy3d@@V?$map@W4Modifier@Viewer@easy3d@@U?$pair@V?$function@$$A6A_NPEAVViewer@easy3d@@PEAVModel@2@@Z@std@@PEAVModel@easy3d@@@std@@U?$less@W4Modifier@Viewer@easy3d@@@5@V?$allocator@U?$pair@$$CBW4Modifier@Viewer@easy3d@@U?$pair@V?$function@$$A6A_NPEAVViewer@easy3d@@PEAVModel@2@@Z@std@@PEAVModel@easy3d@@@std@@@std@@@5@@std@@@std@@PEAX@std@@@1@PEAU?$_Tree_node@U?$pair@$$CBW4Key@Viewer@easy3d@@V?$map@W4Modifier@Viewer@easy3d@@U?$pair@V?$function@$$A6A_NPEAVViewer@easy3d@@PEAVModel@2@@Z@std@@PEAVModel@easy3d@@@std@@U?$less@W4Modifier@Viewer@easy3d@@@5@V?$allocator@U?$pair@$$CBW4Modifier@Viewer@easy3d@@U?$pair@V?$function@$$A6A_NPEAVViewer@easy3d@@PEAVModel@2@@Z@std@@PEAVModel@easy3d@@@std@@@std@@@5@@std@@@std@@PEAX@1@@Z
	??$_Erase_tree@V?$allocator@U?$_Tree_node@U?$pair@$$CBW4Modifier@Viewer@easy3d@@U?$pair@V?$function@$$A6A_NPEAVViewer@easy3d@@PEAVModel@2@@Z@std@@PEAVModel@easy3d@@@std@@@std@@PEAX@std@@@std@@@?$_Tree_val@U?$_Tree_simple_types@U?$pair@$$CBW4Modifier@Viewer@easy3d@@U?$pair@V?$function@$$A6A_NPEAVViewer@easy3d@@PEAVModel@2@@Z@std@@PEAVModel@easy3d@@@std@@@std@@@std@@@std@@QEAAXAEAV?$allocator@U?$_Tree_node@U?$pair@$$CBW4Modifier@Viewer@easy3d@@U?$pair@V?$function@$$A6A_NPEAVViewer@easy3d@@PEAVModel@2@@Z@std@@PEAVModel@easy3d@@@std@@@std@@PEAX@std@@@1@PEAU?$_Tree_node@U?$pair@$$CBW4Modifier@Viewer@easy3d@@U?$pair@V?$function@$$A6A_NPEAVViewer@easy3d@@PEAVModel@2@@Z@std@@PEAVModel@easy3d@@@std@@@std@@PEAX@1@@Z
	??$_Fnv1a_append_value@H@std@@YA_K_KAEBH@Z
	??$_Getvals@_W@?$time_get@DV?$istreambuf_iterator@DU?$char_traits@D@std@@@std@@@std@@IEAAX_WAEBV_Locinfo@1@@Z
	??$_Getvals@_W@?$time_get@_WV?$istreambuf_iterator@_WU?$char_traits@_W@std@@@std@@@std@@IEAAX_WAEBV_Locinfo@1@@Z
	??$_Hash_representation@H@std@@YA_KAEBH@Z
	??$_Insert_string@DU?$char_traits@D@std@@_K@std@@YAAEAV?$basic_ostream@DU?$char_traits@D@std@@@0@AEAV10@QEBD_K@Z
	??$_Integral_to_string@DH@std@@YA?AV?$basic_string@DU?$char_traits@D@std@@V?$allocator@D@2@@0@H@Z
	??$_Invoke@V?$tuple@V<lambda_88159a66dfbe3b9e7665b15b0c7a0862>@@@std@@$0A@@thread@std@@CAIPEAX@Z
	??$_Maklocstr@D@std@@YAPEADPEBDPEADAEBU_Cvtvec@@@Z
	??$_Reallocate_grow_by@V<lambda_65e615be2a453ca0576c979606f46740>@@PEBD_K@?$basic_string@DU?$char_traits@D@std@@V?$allocator@D@2@@std@@AEAAAEAV01@_KV<lambda_65e615be2a453ca0576c979606f46740>@@PEBD_K@Z
	??$_Reallocate_grow_by@V<lambda_f3a66ab6a0570788f31503db83886f49>@@_KPEBD_K@?$basic_string@DU?$char_traits@D@std@@V?$allocator@D@2@@std@@AEAAAEAV01@_KV<lambda_f3a66ab6a0570788f31503db83886f49>@@_KPEBD2@Z
	??$_Resize_reallocate@U_Value_init_tag@std@@@?$vector@UView@MultiViewer@easy3d@@V?$allocator@UView@MultiViewer@easy3d@@@std@@@std@@AEAAX_KAEBU_Value_init_tag@1@@Z
	??$_Resize_reallocate@U_Value_init_tag@std@@@?$vector@V?$vector@UView@MultiViewer@easy3d@@V?$allocator@UView@MultiViewer@easy3d@@@std@@@std@@V?$allocator@V?$vector@UView@MultiViewer@easy3d@@V?$allocator@UView@MultiViewer@easy3d@@@std@@@std@@@2@@std@@AEAAX_KAEBU_Value_init_tag@1@@Z
	??$_Test_callable@V<lambda_9dc10b06c5357c9d6a4dd2efe98fbbb9>@@@std@@YA_NAEBV<lambda_9dc10b06c5357c9d6a4dd2efe98fbbb9>@@@Z
	??$_To_absolute_time@_JU?$ratio@$00$0DOI@@std@@@std@@YA?A_PAEBV?$duration@_JU?$ratio@$00$0DOI@@std@@@chrono@0@@Z
	??$_To_timespec64_sys_10_day_clamped@_JU?$ratio@$00$0DLJKMKAA@@std@@@std@@YA_NAEAU_timespec64@@AEBV?$duration@_JU?$ratio@$00$0DLJKMKAA@@std@@@chrono@0@@Z
	??$_UIntegral_to_buff@DI@std@@YAPEADPEADI@Z
	??$_UIntegral_to_buff@D_K@std@@YAPEADPEAD_K@Z
	??$_UIntegral_to_string@DI@std@@YA?AV?$basic_string@DU?$char_traits@D@std@@V?$allocator@D@2@@0@I@Z
	??$_UIntegral_to_string@D_K@std@@YA?AV?$basic_string@DU?$char_traits@D@std@@V?$allocator@D@2@@0@_K@Z
	??$_Uninitialized_move@PEAU?$pair@W4AttribType@ShaderProgram@easy3d@@V?$basic_string@DU?$char_traits@D@std@@V?$allocator@D@2@@std@@@std@@V?$allocator@U?$pair@W4AttribType@ShaderProgram@easy3d@@V?$basic_string@DU?$char_traits@D@std@@V?$allocator@D@2@@std@@@std@@@2@@std@@YAPEAU?$pair@W4AttribType@ShaderProgram@easy3d@@V?$basic_string@DU?$char_traits@D@std@@V?$allocator@D@2@@std@@@0@QEAU10@0PEAU10@AEAV?$allocator@U?$pair@W4AttribType@ShaderProgram@easy3d@@V?$basic_string@DU?$char_traits@D@std@@V?$allocator@D@2@@std@@@std@@@0@@Z
	??$_Uninitialized_value_construct_n@V?$allocator@UView@MultiViewer@easy3d@@@std@@@std@@YAPEAUView@MultiViewer@easy3d@@PEAU123@_KAEAV?$allocator@UView@MultiViewer@easy3d@@@0@@Z
	??$__std_find_trivial@PEAVDrawable@easy3d@@PEAV12@@@YAPEAPEAVDrawable@easy3d@@PEAPEAV01@0QEAV01@@Z
	??$__std_find_trivial@PEAVDrawable@easy3d@@_K@@YAPEAPEAVDrawable@easy3d@@PEAPEAV01@0_K@Z
	??$__std_find_trivial@PEAVModel@easy3d@@PEAV12@@@YAPEAPEAVModel@easy3d@@PEAPEAV01@0QEAV01@@Z
	??$__std_find_trivial@PEAVModel@easy3d@@_K@@YAPEAPEAVModel@easy3d@@PEAPEAV01@0_K@Z
	??$connect@V?$Signal@$$V@easy3d@@VViewer@2@P832@EBAXXZ@easy3d@@YAHPEAV?$Signal@$$V@0@PEAVViewer@0@AEBQ820@EBAXXZ@Z
	??$destroy@V?$basic_string@DU?$char_traits@D@std@@V?$allocator@D@2@@std@@@?$_Default_allocator_traits@V?$allocator@V?$basic_string@DU?$char_traits@D@std@@V?$allocator@D@2@@std@@@std@@@std@@SAXAEAV?$allocator@V?$basic_string@DU?$char_traits@D@std@@V?$allocator@D@2@@std@@@1@QEAV?$basic_string@DU?$char_traits@D@std@@V?$allocator@D@2@@1@@Z
	??$emplace@U?$pair@HV?$function@$$A6AXXZ@std@@@std@@@?$_Hash@V?$_Umap_traits@HV?$function@$$A6AXXZ@std@@V?$_Uhash_compare@HU?$hash@H@std@@U?$equal_to@H@2@@2@V?$allocator@U?$pair@$$CBHV?$function@$$A6AXXZ@std@@@std@@@2@$0A@@std@@@std@@QEAA?AU?$pair@V?$_List_iterator@V?$_List_val@U?$_List_simple_types@U?$pair@$$CBHV?$function@$$A6AXXZ@std@@@std@@@std@@@std@@@std@@_N@1@$$QEAU?$pair@HV?$function@$$A6AXXZ@std@@@1@@Z
	??$endl@DU?$char_traits@D@std@@@std@@YAAEAV?$basic_ostream@DU?$char_traits@D@std@@@0@AEAV10@@Z
	??$fill@PEAV?$_List_unchecked_iterator@V?$_List_val@U?$_List_simple_types@U?$pair@$$CBHV?$function@$$A6AXXZ@std@@@std@@@std@@@std@@@std@@V12@@std@@YAXQEAV?$_List_unchecked_iterator@V?$_List_val@U?$_List_simple_types@U?$pair@$$CBHV?$function@$$A6AXXZ@std@@@std@@@std@@@std@@@0@0AEBV10@@Z
	??$inverse@M@easy3d@@YA?AV?$Mat4@M@0@AEBV10@@Z
	??$sleep_for@_JU?$ratio@$00$0DOI@@std@@@this_thread@std@@YAXAEBV?$duration@_JU?$ratio@$00$0DOI@@std@@@chrono@1@@Z
	??$sleep_until@Usteady_clock@chrono@std@@V?$duration@_JU?$ratio@$00$0DLJKMKAA@@std@@@23@@this_thread@std@@YAXAEBV?$time_point@Usteady_clock@chrono@std@@V?$duration@_JU?$ratio@$00$0DLJKMKAA@@std@@@23@@chrono@1@@Z
	??$uninitialized_fill@PEAV?$_List_unchecked_iterator@V?$_List_val@U?$_List_simple_types@U?$pair@$$CBHV?$function@$$A6AXXZ@std@@@std@@@std@@@std@@@std@@V12@@std@@YAXQEAV?$_List_unchecked_iterator@V?$_List_val@U?$_List_simple_types@U?$pair@$$CBHV?$function@$$A6AXXZ@std@@@std@@@std@@@std@@@0@0AEBV10@@Z
	??0?$Matrix@V?$Vec@$03E@easy3d@@@easy3d@@QEAA@HHAEBV?$Vec@$03E@1@@Z
	??0?$Vec@$03E@easy3d@@QEAA@XZ
	??0?$basic_string@DU?$char_traits@D@std@@V?$allocator@D@2@@std@@QEAA@AEBV01@@Z
	??0?$basic_string@DU?$char_traits@D@std@@V?$allocator@D@2@@std@@QEAA@U_String_constructor_concat_tag@1@AEAV01@1@Z
	??0MultiViewer@easy3d@@QEAA@HHAEBV?$basic_string@DU?$char_traits@D@std@@V?$allocator@D@2@@std@@@Z
	??0OffScreen@easy3d@@QEAA@HH@Z
	??0Viewer@easy3d@@QEAA@AEBV?$basic_string@DU?$char_traits@D@std@@V?$allocator@D@2@@std@@HHH_N1HHHH@Z
	??0Writer@base@el@@QEAA@W4Level@2@PEBDK1W4DispatchAction@12@G@Z
	??0bad_alloc@std@@QEAA@AEBV01@@Z
	??0bad_array_new_length@std@@QEAA@AEBV01@@Z
	??0bad_array_new_length@std@@QEAA@XZ
	??0exception@std@@QEAA@AEBV01@@Z
	??0runtime_error@std@@QEAA@AEBV01@@Z
	??0runtime_error@std@@QEAA@AEBV?$basic_string@DU?$char_traits@D@std@@V?$allocator@D@2@@1@@Z
	??0runtime_error@std@@QEAA@PEBD@Z
	??1<lambda_88159a66dfbe3b9e7665b15b0c7a0862>@@QEAA@XZ
	??1?$Matrix@V?$Vec@$03E@easy3d@@@easy3d@@QEAA@XZ
	??1?$_Alloc_construct_ptr@V?$allocator@U?$_List_node@U?$pair@$$CBHV?$function@$$A6AXXZ@std@@@std@@PEAX@std@@@std@@@std@@QEAA@XZ
	??1?$_Func_class@X$$V@std@@QEAA@XZ
	??1?$_Func_class@_NPEAVViewer@easy3d@@PEAVModel@2@@std@@QEAA@XZ
	??1?$_List_node_emplace_op2@V?$allocator@U?$_List_node@U?$pair@$$CBHV?$function@$$A6AXXZ@std@@@std@@PEAX@std@@@std@@@std@@QEAA@XZ
	??1?$_Tidy_guard@V?$vector@U?$pair@W4AttribType@ShaderProgram@easy3d@@V?$basic_string@DU?$char_traits@D@std@@V?$allocator@D@2@@std@@@std@@V?$allocator@U?$pair@W4AttribType@ShaderProgram@easy3d@@V?$basic_string@DU?$char_traits@D@std@@V?$allocator@D@2@@std@@@std@@@2@@std@@@std@@QEAA@XZ
	??1?$_Tidy_guard@V?$vector@V?$basic_string@DU?$char_traits@D@std@@V?$allocator@D@2@@std@@V?$allocator@V?$basic_string@DU?$char_traits@D@std@@V?$allocator@D@2@@std@@@2@@std@@@std@@QEAA@XZ
	??1?$_Uninitialized_backout_al@V?$allocator@U?$pair@W4AttribType@ShaderProgram@easy3d@@V?$basic_string@DU?$char_traits@D@std@@V?$allocator@D@2@@std@@@std@@@std@@@std@@QEAA@XZ
	??1?$_Uninitialized_backout_al@V?$allocator@V?$basic_string@DU?$char_traits@D@std@@V?$allocator@D@2@@std@@@std@@@std@@QEAA@XZ
	??1?$basic_string@DU?$char_traits@D@std@@V?$allocator@D@2@@std@@QEAA@XZ
	??1?$basic_stringbuf@DU?$char_traits@D@std@@V?$allocator@D@2@@std@@UEAA@XZ
	??1?$basic_stringstream@DU?$char_traits@D@std@@V?$allocator@D@2@@std@@UEAA@XZ
	??1?$function@$$A6AXXZ@std@@QEAA@XZ
	??1?$function@$$A6A_NPEAVViewer@easy3d@@@Z@std@@QEAA@XZ
	??1?$function@$$A6A_NPEAVViewer@easy3d@@PEAVModel@2@@Z@std@@QEAA@XZ
	??1?$map@W4Key@Viewer@easy3d@@V?$map@W4Modifier@Viewer@easy3d@@U?$pair@V?$function@$$A6A_NPEAVViewer@easy3d@@PEAVModel@2@@Z@std@@PEAVModel@easy3d@@@std@@U?$less@W4Modifier@Viewer@easy3d@@@5@V?$allocator@U?$pair@$$CBW4Modifier@Viewer@easy3d@@U?$pair@V?$function@$$A6A_NPEAVViewer@easy3d@@PEAVModel@2@@Z@std@@PEAVModel@easy3d@@@std@@@std@@@5@@std@@U?$less@W4Key@Viewer@easy3d@@@5@V?$allocator@U?$pair@$$CBW4Key@Viewer@easy3d@@V?$map@W4Modifier@Viewer@easy3d@@U?$pair@V?$function@$$A6A_NPEAVViewer@easy3d@@PEAVModel@2@@Z@std@@PEAVModel@easy3d@@@std@@U?$less@W4Modifier@Viewer@easy3d@@@5@V?$allocator@U?$pair@$$CBW4Modifier@Viewer@easy3d@@U?$pair@V?$function@$$A6A_NPEAVViewer@easy3d@@PEAVModel@2@@Z@std@@PEAVModel@easy3d@@@std@@@std@@@5@@std@@@std@@@5@@std@@QEAA@XZ
	??1?$pair@HV?$function@$$A6AXXZ@std@@@std@@QEAA@XZ
	??1?$pair@W4AttribType@ShaderProgram@easy3d@@V?$basic_string@DU?$char_traits@D@std@@V?$allocator@D@2@@std@@@std@@QEAA@XZ
	??1?$unique_ptr@V?$tuple@V<lambda_88159a66dfbe3b9e7665b15b0c7a0862>@@@std@@U?$default_delete@V?$tuple@V<lambda_88159a66dfbe3b9e7665b15b0c7a0862>@@@std@@@2@@std@@QEAA@XZ
	??1?$vector@EV?$allocator@E@std@@@std@@QEAA@XZ
	??1?$vector@PEAVDrawable@easy3d@@V?$allocator@PEAVDrawable@easy3d@@@std@@@std@@QEAA@XZ
	??1?$vector@PEAVModel@easy3d@@V?$allocator@PEAVModel@easy3d@@@std@@@std@@QEAA@XZ
	??1?$vector@U?$pair@W4AttribType@ShaderProgram@easy3d@@V?$basic_string@DU?$char_traits@D@std@@V?$allocator@D@2@@std@@@std@@V?$allocator@U?$pair@W4AttribType@ShaderProgram@easy3d@@V?$basic_string@DU?$char_traits@D@std@@V?$allocator@D@2@@std@@@std@@@2@@std@@QEAA@XZ
	??1?$vector@V?$Vec@$01M@easy3d@@V?$allocator@V?$Vec@$01M@easy3d@@@std@@@std@@QEAA@XZ
	??1?$vector@V?$Vec@$02M@easy3d@@V?$allocator@V?$Vec@$02M@easy3d@@@std@@@std@@QEAA@XZ
	??1?$vector@V?$basic_string@DU?$char_traits@D@std@@V?$allocator@D@2@@std@@V?$allocator@V?$basic_string@DU?$char_traits@D@std@@V?$allocator@D@2@@std@@@2@@std@@QEAA@XZ
	??1?$vector@V?$vector@UView@MultiViewer@easy3d@@V?$allocator@UView@MultiViewer@easy3d@@@std@@@std@@V?$allocator@V?$vector@UView@MultiViewer@easy3d@@V?$allocator@UView@MultiViewer@easy3d@@@std@@@std@@@2@@std@@QEAA@XZ
	??1LinesDrawable@easy3d@@UEAA@XZ
	??1MultiViewer@easy3d@@UEAA@XZ
	??1Viewer@easy3d@@UEAA@XZ
	??1Writer@base@el@@UEAA@XZ
	??1_Sentry_base@?$basic_ostream@DU?$char_traits@D@std@@@std@@QEAA@XZ
	??1bad_array_new_length@std@@UEAA@XZ
	??1exception@std@@UEAA@XZ
	??1runtime_error@std@@UEAA@XZ
	??1sentry@?$basic_ostream@DU?$char_traits@D@std@@@std@@QEAA@XZ
	??1thread@std@@QEAA@XZ
	??6MessageBuilder@base@el@@QEAAAEAV012@PEBD@Z
	??A?$Property@UFaceConnectivity@SurfaceMesh@easy3d@@@easy3d@@UEBAAEBUFaceConnectivity@SurfaceMesh@1@_K@Z
	??A?$Property@UHalfedgeConnectivity@SurfaceMesh@easy3d@@@easy3d@@UEBAAEBUHalfedgeConnectivity@SurfaceMesh@1@_K@Z
	??A?$Property@_N@easy3d@@UEBA_N_K@Z
	??_7?$_Func_impl_no_alloc@V<lambda_9dc10b06c5357c9d6a4dd2efe98fbbb9>@@X$$V@std@@6B@
	??_7?$basic_stringbuf@DU?$char_traits@D@std@@V?$allocator@D@2@@std@@6B@
	??_7?$basic_stringstream@DU?$char_traits@D@std@@V?$allocator@D@2@@std@@6B@
	??_7MultiViewer@easy3d@@6B@
	??_7OffScreen@easy3d@@6B@
	??_7Viewer@easy3d@@6B@
	??_7Writer@base@el@@6B@
	??_7bad_alloc@std@@6B@
	??_7bad_array_new_length@std@@6B@
	??_7exception@std@@6B@
	??_7runtime_error@std@@6B@
	??_D?$basic_stringstream@DU?$char_traits@D@std@@V?$allocator@D@2@@std@@QEAAXXZ
	??_H@YAXPEAX_K1P6APEAX0@Z@Z
	?_Copy@?$_Func_impl_no_alloc@V<lambda_9dc10b06c5357c9d6a4dd2efe98fbbb9>@@X$$V@std@@EEBAPEAV?$_Func_base@X$$V@2@PEAX@Z
	?_Delete_this@?$_Func_impl_no_alloc@V<lambda_9dc10b06c5357c9d6a4dd2efe98fbbb9>@@X$$V@std@@EEAAX_N@Z
	?_Do_call@?$_Func_impl_no_alloc@V<lambda_9dc10b06c5357c9d6a4dd2efe98fbbb9>@@X$$V@std@@EEAAXXZ
	?_Forced_rehash@?$_Hash@V?$_Umap_traits@HV?$function@$$A6AXXZ@std@@V?$_Uhash_compare@HU?$hash@H@std@@U?$equal_to@H@2@@2@V?$allocator@U?$pair@$$CBHV?$function@$$A6AXXZ@std@@@std@@@2@$0A@@std@@@std@@IEAAX_K@Z
	?_Get@?$_Func_impl_no_alloc@V<lambda_9dc10b06c5357c9d6a4dd2efe98fbbb9>@@X$$V@std@@EEBAPEBXXZ
	?_Maklocwcs@std@@YAPEA_WPEB_W@Z
	?_Move@?$_Func_impl_no_alloc@V<lambda_9dc10b06c5357c9d6a4dd2efe98fbbb9>@@X$$V@std@@EEAAPEAV?$_Func_base@X$$V@2@PEAX@Z
	?_Target_type@?$_Func_impl_no_alloc@V<lambda_9dc10b06c5357c9d6a4dd2efe98fbbb9>@@X$$V@std@@EEBAAEBVtype_info@@XZ
	?_Throw_bad_array_new_length@std@@YAXXZ
	?_Tidy@?$vector@U?$pair@W4AttribType@ShaderProgram@easy3d@@V?$basic_string@DU?$char_traits@D@std@@V?$allocator@D@2@@std@@@std@@V?$allocator@U?$pair@W4AttribType@ShaderProgram@easy3d@@V?$basic_string@DU?$char_traits@D@std@@V?$allocator@D@2@@std@@@std@@@2@@std@@AEAAXXZ
	?_Tidy@?$vector@V?$Vec@$02M@easy3d@@V?$allocator@V?$Vec@$02M@easy3d@@@std@@@std@@AEAAXXZ
	?_Tidy@?$vector@V?$basic_string@DU?$char_traits@D@std@@V?$allocator@D@2@@std@@V?$allocator@V?$basic_string@DU?$char_traits@D@std@@V?$allocator@D@2@@std@@@2@@std@@AEAAXXZ
	?_Unchecked_erase@?$_Hash@V?$_Umap_traits@HV?$function@$$A6AXXZ@std@@V?$_Uhash_compare@HU?$hash@H@std@@U?$equal_to@H@2@@2@V?$allocator@U?$pair@$$CBHV?$function@$$A6AXXZ@std@@@std@@@2@$0A@@std@@@std@@AEAAPEAU?$_List_node@U?$pair@$$CBHV?$function@$$A6AXXZ@std@@@std@@PEAX@2@PEAU32@QEAU32@@Z
	?_Xlen_string@std@@YAXXZ
	?_Xlength@?$vector@EV?$allocator@E@std@@@std@@CAXXZ
	?_Xlength@?$vector@PEAVDrawable@easy3d@@V?$allocator@PEAVDrawable@easy3d@@@std@@@std@@CAXXZ
	?_Xlength@?$vector@PEAVModel@easy3d@@V?$allocator@PEAVModel@easy3d@@@std@@@std@@CAXXZ
	?_Xlength@?$vector@PEAVTrianglesDrawable@easy3d@@V?$allocator@PEAVTrianglesDrawable@easy3d@@@std@@@std@@CAXXZ
	?_Xlength@?$vector@PEBVDrawable@easy3d@@V?$allocator@PEBVDrawable@easy3d@@@std@@@std@@CAXXZ
	?_Xlength@?$vector@PEBVModel@easy3d@@V?$allocator@PEBVModel@easy3d@@@std@@@std@@CAXXZ
	?_Xlength@?$vector@U?$pair@W4AttribType@ShaderProgram@easy3d@@V?$basic_string@DU?$char_traits@D@std@@V?$allocator@D@2@@std@@@std@@V?$allocator@U?$pair@W4AttribType@ShaderProgram@easy3d@@V?$basic_string@DU?$char_traits@D@std@@V?$allocator@D@2@@std@@@std@@@2@@std@@CAXXZ
	?_Xlength@?$vector@UView@MultiViewer@easy3d@@V?$allocator@UView@MultiViewer@easy3d@@@std@@@std@@CAXXZ
	?_Xlength@?$vector@V?$Vec@$01M@easy3d@@V?$allocator@V?$Vec@$01M@easy3d@@@std@@@std@@CAXXZ
	?_Xlength@?$vector@V?$basic_string@DU?$char_traits@D@std@@V?$allocator@D@2@@std@@V?$allocator@V?$basic_string@DU?$char_traits@D@std@@V?$allocator@D@2@@std@@@2@@std@@CAXXZ
	?_Xlength@?$vector@V?$vector@UView@MultiViewer@easy3d@@V?$allocator@UView@MultiViewer@easy3d@@@std@@@std@@V?$allocator@V?$vector@UView@MultiViewer@easy3d@@V?$allocator@UView@MultiViewer@easy3d@@@std@@@std@@@2@@std@@CAXXZ
	?add_drawable@OffScreen@easy3d@@QEAA_NPEAVDrawable@2@@Z
	?add_drawable@Viewer@easy3d@@QEAA_NPEAVDrawable@2@@Z
	?add_model@OffScreen@easy3d@@QEAAPEAVModel@2@PEAV32@_N@Z
	?add_model@OffScreen@easy3d@@UEAAPEAVModel@2@AEBV?$basic_string@DU?$char_traits@D@std@@V?$allocator@D@2@@std@@_N@Z
	?add_model@Viewer@easy3d@@QEAAPEAVModel@2@PEAV32@_N@Z
	?add_model@Viewer@easy3d@@UEAAPEAVModel@2@AEBV?$basic_string@DU?$char_traits@D@std@@V?$allocator@D@2@@std@@_N@Z
	?allocate@?$allocator@D@std@@QEAAPEAD_K@Z
	?allocate@?$allocator@U?$pair@W4AttribType@ShaderProgram@easy3d@@V?$basic_string@DU?$char_traits@D@std@@V?$allocator@D@2@@std@@@std@@@std@@QEAAPEAU?$pair@W4AttribType@ShaderProgram@easy3d@@V?$basic_string@DU?$char_traits@D@std@@V?$allocator@D@2@@std@@@2@_K@Z
	?append@?$basic_string@DU?$char_traits@D@std@@V?$allocator@D@2@@std@@QEAAAEAV12@QEBD_K@Z
	?assign@?$basic_string@DU?$char_traits@D@std@@V?$allocator@D@2@@std@@QEAAAEAV12@QEBD_K@Z
	?assign@MultiViewer@easy3d@@QEAAXHHPEBVDrawable@2@@Z
	?assign@MultiViewer@easy3d@@QEAAXHHPEBVModel@2@@Z
	?background_color@OffScreen@easy3d@@QEBAAEBV?$Vec@$03M@2@XZ
	?callback_event_character@Viewer@easy3d@@MEAA_NI@Z
	?callback_event_cursor_pos@Viewer@easy3d@@MEAA_NNN@Z
	?callback_event_drop@Viewer@easy3d@@MEAA_NHPEAPEBD@Z
	?callback_event_keyboard@Viewer@easy3d@@MEAA_NHHH@Z
	?callback_event_mouse_button@Viewer@easy3d@@MEAA_NHHH@Z
	?callback_event_resize@Viewer@easy3d@@MEAAXHH@Z
	?callback_event_scroll@Viewer@easy3d@@MEAA_NNN@Z
	?camera@OffScreen@easy3d@@QEAAPEAVCamera@2@XZ
	?camera@OffScreen@easy3d@@QEBAPEBVCamera@2@XZ
	?char_input_event@Viewer@easy3d@@MEAA_NI@Z
	?cleanup@Viewer@easy3d@@IEAAXXZ
	?clear@?$_Hash@V?$_Umap_traits@HV?$function@$$A6AXXZ@std@@V?$_Uhash_compare@HU?$hash@H@std@@U?$equal_to@H@2@@2@V?$allocator@U?$pair@$$CBHV?$function@$$A6AXXZ@std@@@std@@@2@$0A@@std@@@std@@QEAAXXZ
	?clear_scene@OffScreen@easy3d@@QEAAXXZ
	?clear_scene@Viewer@easy3d@@QEAAXXZ
	?copy_view@Viewer@easy3d@@IEAAXXZ
	?create_window@Viewer@easy3d@@IEAAPEAUGLFWwindow@@AEBV?$basic_string@DU?$char_traits@D@std@@V?$allocator@D@2@@std@@HHH_N1HHHH@Z
	?current_model@OffScreen@easy3d@@QEBAPEAVModel@2@XZ
	?current_model@Viewer@easy3d@@QEBAPEAVModel@2@XZ
	?deallocate@?$allocator@D@std@@QEAAXQEAD_K@Z
	?deallocate@?$allocator@PEAVDrawable@easy3d@@@std@@QEAAXQEAPEAVDrawable@easy3d@@_K@Z
	?deallocate@?$allocator@PEAVModel@easy3d@@@std@@QEAAXQEAPEAVModel@easy3d@@_K@Z
	?deallocate@?$allocator@PEBVDrawable@easy3d@@@std@@QEAAXQEAPEBVDrawable@easy3d@@_K@Z
	?deallocate@?$allocator@PEBVModel@easy3d@@@std@@QEAAXQEAPEBVModel@easy3d@@_K@Z
	?deallocate@?$allocator@U?$pair@W4AttribType@ShaderProgram@easy3d@@V?$basic_string@DU?$char_traits@D@std@@V?$allocator@D@2@@std@@@std@@@std@@QEAAXQEAU?$pair@W4AttribType@ShaderProgram@easy3d@@V?$basic_string@DU?$char_traits@D@std@@V?$allocator@D@2@@std@@@2@_K@Z
	?deallocate@?$allocator@UView@MultiViewer@easy3d@@@std@@QEAAXQEAUView@MultiViewer@easy3d@@_K@Z
	?deallocate@?$allocator@V?$Vec@$01M@easy3d@@@std@@QEAAXQEAV?$Vec@$01M@easy3d@@_K@Z
	?deallocate@?$allocator@V?$basic_string@DU?$char_traits@D@std@@V?$allocator@D@2@@std@@@std@@QEAAXQEAV?$basic_string@DU?$char_traits@D@std@@V?$allocator@D@2@@2@_K@Z
	?deallocate@?$allocator@V?$vector@UView@MultiViewer@easy3d@@V?$allocator@UView@MultiViewer@easy3d@@@std@@@std@@@std@@QEAAXQEAV?$vector@UView@MultiViewer@easy3d@@V?$allocator@UView@MultiViewer@easy3d@@@std@@@2@_K@Z
	?delete_drawable@OffScreen@easy3d@@QEAA_NPEAVDrawable@2@@Z
	?delete_drawable@Viewer@easy3d@@QEAA_NPEAVDrawable@2@@Z
	?delete_model@OffScreen@easy3d@@QEAA_NPEAVModel@2@@Z
	?delete_model@Viewer@easy3d@@QEAA_NPEAVModel@2@@Z
	?destroy@?$Matrix@V?$Vec@$03E@easy3d@@@easy3d@@AEAAXXZ
	?draw@MultiViewer@easy3d@@MEBAXXZ
	?draw@Viewer@easy3d@@MEBAXXZ
	?draw_corner_axes@Viewer@easy3d@@IEBAXXZ
	?draw_division@MultiViewer@easy3d@@IEBAXXZ
	?draw_face_labels@Viewer@easy3d@@IEBAXPEAVModel@2@PEAVTextRenderer@2@HAEBV?$Vec@$02M@2@@Z
	?draw_vertex_labels@Viewer@easy3d@@IEBAXPEAVModel@2@PEAVTextRenderer@2@HAEBV?$Vec@$02M@2@@Z
	?drawables@OffScreen@easy3d@@QEBAAEBV?$vector@PEAVDrawable@easy3d@@V?$allocator@PEAVDrawable@easy3d@@@std@@@std@@XZ
	?drop_event@Viewer@easy3d@@MEAA_NAEBV?$vector@V?$basic_string@DU?$char_traits@D@std@@V?$allocator@D@2@@std@@V?$allocator@V?$basic_string@DU?$char_traits@D@std@@V?$allocator@D@2@@std@@@2@@std@@@Z
	?exit@Viewer@easy3d@@UEAAXXZ
	?fit_screen@Viewer@easy3d@@QEAAXPEBVModel@2@@Z
	?focus_event@Viewer@easy3d@@MEAA_N_N@Z
	?framebuffer_height@Viewer@easy3d@@QEBAHXZ
	?framebuffer_size@Viewer@easy3d@@QEBAXAEAH0@Z
	?framebuffer_width@Viewer@easy3d@@QEBAHXZ
	?grow@?$GenericBox@$02M@easy3d@@QEAAXAEBV?$Vec@$02M@2@@Z
	?height@OffScreen@easy3d@@QEBAHXZ
	?init@?$Matrix@V?$Vec@$03E@easy3d@@@easy3d@@AEAAXHH@Z
	?init@MultiViewer@easy3d@@MEAAXXZ
	?init@Viewer@easy3d@@MEAAXXZ
	?is_animating@Viewer@easy3d@@QEBA_NXZ
	?key_press_event@Viewer@easy3d@@MEAA_NHH@Z
	?key_release_event@Viewer@easy3d@@MEAA_NHH@Z
	?matrix@?$Quat@M@easy3d@@QEBA?AV?$Mat4@M@2@XZ
	?models@OffScreen@easy3d@@QEBAAEBV?$vector@PEAVModel@easy3d@@V?$allocator@PEAVModel@easy3d@@@std@@@std@@XZ
	?mouse_drag_event@MultiViewer@easy3d@@MEAA_NHHHHHH@Z
	?mouse_drag_event@Viewer@easy3d@@MEAA_NHHHHHH@Z
	?mouse_free_move_event@Viewer@easy3d@@MEAA_NHHHHH@Z
	?mouse_press_event@MultiViewer@easy3d@@MEAA_NHHHH@Z
	?mouse_press_event@Viewer@easy3d@@MEAA_NHHHH@Z
	?mouse_release_event@MultiViewer@easy3d@@MEAA_NHHHH@Z
	?mouse_release_event@Viewer@easy3d@@MEAA_NHHHH@Z
	?mouse_scroll_event@Viewer@easy3d@@MEAA_NHHHH@Z
	?open@Viewer@easy3d@@UEAA_NXZ
	?overflow@?$basic_stringbuf@DU?$char_traits@D@std@@V?$allocator@D@2@@std@@MEAAHH@Z
	?paste_view@Viewer@easy3d@@IEAAXXZ
	?pbackfail@?$basic_stringbuf@DU?$char_traits@D@std@@V?$allocator@D@2@@std@@MEAAHH@Z
	?point_under_pixel@MultiViewer@easy3d@@UEBA?AV?$Vec@$02M@2@HHAEA_N@Z
	?point_under_pixel@Viewer@easy3d@@UEBA?AV?$Vec@$02M@2@HHAEA_N@Z
	?post_draw@Viewer@easy3d@@MEAAXXZ
	?post_resize@MultiViewer@easy3d@@MEAAXHH@Z
	?post_resize@Viewer@easy3d@@MEAAXHH@Z
	?pre_draw@Viewer@easy3d@@MEAAXXZ
	?render@OffScreen@easy3d@@QEBA_NAEBV?$basic_string@DU?$char_traits@D@std@@V?$allocator@D@2@@std@@MHH_N@Z
	?resize@OffScreen@easy3d@@QEAAXHH@Z
	?resize@Viewer@easy3d@@QEAAXHH@Z
	?run@Viewer@easy3d@@QEAAH_N@Z
	?save@Viewer@easy3d@@UEBA_NXZ
	?seekoff@?$basic_stringbuf@DU?$char_traits@D@std@@V?$allocator@D@2@@std@@MEAA?AV?$fpos@U_Mbstatet@@@2@_JHH@Z
	?seekpos@?$basic_stringbuf@DU?$char_traits@D@std@@V?$allocator@D@2@@std@@MEAA?AV?$fpos@U_Mbstatet@@@2@V32@H@Z
	?set_animation@Viewer@easy3d@@QEAAX_N@Z
	?set_background_color@OffScreen@easy3d@@QEAAXAEBV?$Vec@$03M@2@@Z
	?set_layout@MultiViewer@easy3d@@QEAAXHH@Z
	?set_position@Viewer@easy3d@@QEAAXHH@Z
	?set_title@Viewer@easy3d@@QEAAXAEBV?$basic_string@DU?$char_traits@D@std@@V?$allocator@D@2@@std@@@Z
	?setup_callbacks@Viewer@easy3d@@IEAAXPEAUGLFWwindow@@@Z
	?single_shot@?$Timer@$$V@easy3d@@SAXHAEBV?$function@$$A6AXXZ@std@@@Z
	?snapshot@MultiViewer@easy3d@@UEBA_NXZ
	?snapshot@Viewer@easy3d@@QEBA_NAEBV?$basic_string@DU?$char_traits@D@std@@V?$allocator@D@2@@std@@MHH_N@Z
	?snapshot@Viewer@easy3d@@UEBA_NXZ
	?str@?$basic_stringstream@DU?$char_traits@D@std@@V?$allocator@D@2@@std@@QEBA?AV?$basic_string@DU?$char_traits@D@std@@V?$allocator@D@2@@2@XZ
	?to_string@std@@YA?AV?$basic_string@DU?$char_traits@D@std@@V?$allocator@D@2@@1@H@Z
	?to_string@std@@YA?AV?$basic_string@DU?$char_traits@D@std@@V?$allocator@D@2@@1@I@Z
	?underflow@?$basic_stringbuf@DU?$char_traits@D@std@@V?$allocator@D@2@@std@@MEAAHXZ
	?update@Viewer@easy3d@@QEBAXXZ
	?update_division@MultiViewer@easy3d@@IEAAXXZ
	?what@exception@std@@UEBAPEBDXZ
	?width@OffScreen@easy3d@@QEBAHXZ
	__local_stdio_printf_options
	sprintf
