EXPORTS 
	??_R0?AUCellConnectivity@PolyMesh@easy3d@@@8 	 DATA
	??_R0?AUEdgeConnectivity@PolyMesh@easy3d@@@8 	 DATA
	??_R0?AUElement@io@easy3d@@@8 	 DATA
	??_R0?AUFaceConnectivity@SurfaceMesh@easy3d@@@8 	 DATA
	??_R0?AUHalfFaceConnectivity@PolyMesh@easy3d@@@8 	 DATA
	??_R0?AUHalfedgeConnectivity@SurfaceMesh@easy3d@@@8 	 DATA
	??_R0?AUVertexConnectivity@PolyMesh@easy3d@@@8 	 DATA
	??_R0?AUVertexConnectivity@SurfaceMesh@easy3d@@@8 	 DATA
	??_R0?AV?$CellProperty@UCellConnectivity@PolyMesh@easy3d@@@PolyMesh@easy3d@@@8 	 DATA
	??_R0?AV?$EdgeProperty@H@Graph@easy3d@@@8 	 DATA
	??_R0?AV?$EdgeProperty@H@SurfaceMesh@easy3d@@@8 	 DATA
	??_R0?AV?$EdgeProperty@M@Graph@easy3d@@@8 	 DATA
	??_R0?AV?$EdgeProperty@M@SurfaceMesh@easy3d@@@8 	 DATA
	??_R0?AV?$EdgeProperty@UEdgeConnectivity@PolyMesh@easy3d@@@PolyMesh@easy3d@@@8 	 DATA
	??_R0?AV?$EdgeProperty@V?$Vec@$01M@easy3d@@@Graph@easy3d@@@8 	 DATA
	??_R0?AV?$EdgeProperty@V?$Vec@$01M@easy3d@@@SurfaceMesh@easy3d@@@8 	 DATA
	??_R0?AV?$EdgeProperty@V?$Vec@$02M@easy3d@@@Graph@easy3d@@@8 	 DATA
	??_R0?AV?$EdgeProperty@V?$Vec@$02M@easy3d@@@SurfaceMesh@easy3d@@@8 	 DATA
	??_R0?AV?$EdgeProperty@V?$vector@HV?$allocator@H@std@@@std@@@Graph@easy3d@@@8 	 DATA
	??_R0?AV?$EdgeProperty@V?$vector@HV?$allocator@H@std@@@std@@@SurfaceMesh@easy3d@@@8 	 DATA
	??_R0?AV?$EdgeProperty@V?$vector@MV?$allocator@M@std@@@std@@@Graph@easy3d@@@8 	 DATA
	??_R0?AV?$EdgeProperty@V?$vector@MV?$allocator@M@std@@@std@@@SurfaceMesh@easy3d@@@8 	 DATA
	??_R0?AV?$FaceProperty@H@SurfaceMesh@easy3d@@@8 	 DATA
	??_R0?AV?$FaceProperty@M@SurfaceMesh@easy3d@@@8 	 DATA
	??_R0?AV?$FaceProperty@UFaceConnectivity@SurfaceMesh@easy3d@@@SurfaceMesh@easy3d@@@8 	 DATA
	??_R0?AV?$FaceProperty@V?$Vec@$01M@easy3d@@@SurfaceMesh@easy3d@@@8 	 DATA
	??_R0?AV?$FaceProperty@V?$Vec@$02M@easy3d@@@SurfaceMesh@easy3d@@@8 	 DATA
	??_R0?AV?$FaceProperty@V?$vector@HV?$allocator@H@std@@@std@@@SurfaceMesh@easy3d@@@8 	 DATA
	??_R0?AV?$FaceProperty@V?$vector@MV?$allocator@M@std@@@std@@@SurfaceMesh@easy3d@@@8 	 DATA
	??_R0?AV?$HalfFaceProperty@UHalfFaceConnectivity@PolyMesh@easy3d@@@PolyMesh@easy3d@@@8 	 DATA
	??_R0?AV?$HalfedgeProperty@UHalfedgeConnectivity@SurfaceMesh@easy3d@@@SurfaceMesh@easy3d@@@8 	 DATA
	??_R0?AV?$HalfedgeProperty@V?$Vec@$01M@easy3d@@@SurfaceMesh@easy3d@@@8 	 DATA
	??_R0?AV?$ModelProperty@UElement@io@easy3d@@@Graph@easy3d@@@8 	 DATA
	??_R0?AV?$ModelProperty@UElement@io@easy3d@@@PointCloud@easy3d@@@8 	 DATA
	??_R0?AV?$ModelProperty@UElement@io@easy3d@@@SurfaceMesh@easy3d@@@8 	 DATA
	??_R0?AV?$ModelProperty@V?$Vec@$02N@easy3d@@@Graph@easy3d@@@8 	 DATA
	??_R0?AV?$ModelProperty@V?$Vec@$02N@easy3d@@@PointCloud@easy3d@@@8 	 DATA
	??_R0?AV?$ModelProperty@V?$Vec@$02N@easy3d@@@PolyMesh@easy3d@@@8 	 DATA
	??_R0?AV?$ModelProperty@V?$Vec@$02N@easy3d@@@SurfaceMesh@easy3d@@@8 	 DATA
	??_R0?AV?$Property@H@easy3d@@@8 	 DATA
	??_R0?AV?$Property@M@easy3d@@@8 	 DATA
	??_R0?AV?$Property@UCellConnectivity@PolyMesh@easy3d@@@easy3d@@@8 	 DATA
	??_R0?AV?$Property@UEdgeConnectivity@PolyMesh@easy3d@@@easy3d@@@8 	 DATA
	??_R0?AV?$Property@UElement@io@easy3d@@@easy3d@@@8 	 DATA
	??_R0?AV?$Property@UFaceConnectivity@SurfaceMesh@easy3d@@@easy3d@@@8 	 DATA
	??_R0?AV?$Property@UHalfFaceConnectivity@PolyMesh@easy3d@@@easy3d@@@8 	 DATA
	??_R0?AV?$Property@UHalfedgeConnectivity@SurfaceMesh@easy3d@@@easy3d@@@8 	 DATA
	??_R0?AV?$Property@UVertexConnectivity@PolyMesh@easy3d@@@easy3d@@@8 	 DATA
	??_R0?AV?$Property@UVertexConnectivity@SurfaceMesh@easy3d@@@easy3d@@@8 	 DATA
	??_R0?AV?$Property@V?$Vec@$01M@easy3d@@@easy3d@@@8 	 DATA
	??_R0?AV?$Property@V?$Vec@$02M@easy3d@@@easy3d@@@8 	 DATA
	??_R0?AV?$Property@V?$Vec@$02N@easy3d@@@easy3d@@@8 	 DATA
	??_R0?AV?$Property@V?$vector@HV?$allocator@H@std@@@std@@@easy3d@@@8 	 DATA
	??_R0?AV?$Property@V?$vector@MV?$allocator@M@std@@@std@@@easy3d@@@8 	 DATA
	??_R0?AV?$PropertyArray@H@easy3d@@@8 	 DATA
	??_R0?AV?$PropertyArray@M@easy3d@@@8 	 DATA
	??_R0?AV?$PropertyArray@UCellConnectivity@PolyMesh@easy3d@@@easy3d@@@8 	 DATA
	??_R0?AV?$PropertyArray@UEdgeConnectivity@PolyMesh@easy3d@@@easy3d@@@8 	 DATA
	??_R0?AV?$PropertyArray@UElement@io@easy3d@@@easy3d@@@8 	 DATA
	??_R0?AV?$PropertyArray@UFaceConnectivity@SurfaceMesh@easy3d@@@easy3d@@@8 	 DATA
	??_R0?AV?$PropertyArray@UHalfFaceConnectivity@PolyMesh@easy3d@@@easy3d@@@8 	 DATA
	??_R0?AV?$PropertyArray@UHalfedgeConnectivity@SurfaceMesh@easy3d@@@easy3d@@@8 	 DATA
	??_R0?AV?$PropertyArray@UVertexConnectivity@PolyMesh@easy3d@@@easy3d@@@8 	 DATA
	??_R0?AV?$PropertyArray@UVertexConnectivity@SurfaceMesh@easy3d@@@easy3d@@@8 	 DATA
	??_R0?AV?$PropertyArray@V?$Vec@$01M@easy3d@@@easy3d@@@8 	 DATA
	??_R0?AV?$PropertyArray@V?$Vec@$02M@easy3d@@@easy3d@@@8 	 DATA
	??_R0?AV?$PropertyArray@V?$Vec@$02N@easy3d@@@easy3d@@@8 	 DATA
	??_R0?AV?$PropertyArray@V?$vector@HV?$allocator@H@std@@@std@@@easy3d@@@8 	 DATA
	??_R0?AV?$PropertyArray@V?$vector@MV?$allocator@M@std@@@std@@@easy3d@@@8 	 DATA
	??_R0?AV?$Vec@$01M@easy3d@@@8 	 DATA
	??_R0?AV?$Vec@$02M@easy3d@@@8 	 DATA
	??_R0?AV?$Vec@$02N@easy3d@@@8 	 DATA
	??_R0?AV?$VertexProperty@H@Graph@easy3d@@@8 	 DATA
	??_R0?AV?$VertexProperty@H@PointCloud@easy3d@@@8 	 DATA
	??_R0?AV?$VertexProperty@H@SurfaceMesh@easy3d@@@8 	 DATA
	??_R0?AV?$VertexProperty@M@Graph@easy3d@@@8 	 DATA
	??_R0?AV?$VertexProperty@M@PointCloud@easy3d@@@8 	 DATA
	??_R0?AV?$VertexProperty@M@SurfaceMesh@easy3d@@@8 	 DATA
	??_R0?AV?$VertexProperty@UVertexConnectivity@PolyMesh@easy3d@@@PolyMesh@easy3d@@@8 	 DATA
	??_R0?AV?$VertexProperty@UVertexConnectivity@SurfaceMesh@easy3d@@@SurfaceMesh@easy3d@@@8 	 DATA
	??_R0?AV?$VertexProperty@V?$Vec@$01M@easy3d@@@Graph@easy3d@@@8 	 DATA
	??_R0?AV?$VertexProperty@V?$Vec@$01M@easy3d@@@PointCloud@easy3d@@@8 	 DATA
	??_R0?AV?$VertexProperty@V?$Vec@$01M@easy3d@@@SurfaceMesh@easy3d@@@8 	 DATA
	??_R0?AV?$VertexProperty@V?$Vec@$02M@easy3d@@@Graph@easy3d@@@8 	 DATA
	??_R0?AV?$VertexProperty@V?$Vec@$02M@easy3d@@@PointCloud@easy3d@@@8 	 DATA
	??_R0?AV?$VertexProperty@V?$Vec@$02M@easy3d@@@PolyMesh@easy3d@@@8 	 DATA
	??_R0?AV?$VertexProperty@V?$Vec@$02M@easy3d@@@SurfaceMesh@easy3d@@@8 	 DATA
	??_R0?AV?$VertexProperty@V?$vector@HV?$allocator@H@std@@@std@@@Graph@easy3d@@@8 	 DATA
	??_R0?AV?$VertexProperty@V?$vector@HV?$allocator@H@std@@@std@@@PointCloud@easy3d@@@8 	 DATA
	??_R0?AV?$VertexProperty@V?$vector@HV?$allocator@H@std@@@std@@@SurfaceMesh@easy3d@@@8 	 DATA
	??_R0?AV?$VertexProperty@V?$vector@MV?$allocator@M@std@@@std@@@Graph@easy3d@@@8 	 DATA
	??_R0?AV?$VertexProperty@V?$vector@MV?$allocator@M@std@@@std@@@PointCloud@easy3d@@@8 	 DATA
	??_R0?AV?$VertexProperty@V?$vector@MV?$allocator@M@std@@@std@@@SurfaceMesh@easy3d@@@8 	 DATA
	??_R0?AV?$_Iosb@H@std@@@8 	 DATA
	??_R0?AV?$basic_filebuf@DU?$char_traits@D@std@@@std@@@8 	 DATA
	??_R0?AV?$basic_ifstream@DU?$char_traits@D@std@@@std@@@8 	 DATA
	??_R0?AV?$basic_ios@DU?$char_traits@D@std@@@std@@@8 	 DATA
	??_R0?AV?$basic_iostream@DU?$char_traits@D@std@@@std@@@8 	 DATA
	??_R0?AV?$basic_istream@DU?$char_traits@D@std@@@std@@@8 	 DATA
	??_R0?AV?$basic_istringstream@DU?$char_traits@D@std@@V?$allocator@D@2@@std@@@8 	 DATA
	??_R0?AV?$basic_ofstream@DU?$char_traits@D@std@@@std@@@8 	 DATA
	??_R0?AV?$basic_ostream@DU?$char_traits@D@std@@@std@@@8 	 DATA
	??_R0?AV?$basic_streambuf@DU?$char_traits@D@std@@@std@@@8 	 DATA
	??_R0?AV?$basic_stringbuf@DU?$char_traits@D@std@@V?$allocator@D@2@@std@@@8 	 DATA
	??_R0?AV?$basic_stringstream@DU?$char_traits@D@std@@V?$allocator@D@2@@std@@@8 	 DATA
	??_R0?AV?$vector@HV?$allocator@H@std@@@std@@@8 	 DATA
	??_R0?AV?$vector@MV?$allocator@M@std@@@std@@@8 	 DATA
	??_R0?AVBasePropertyArray@easy3d@@@8 	 DATA
	??_R0?AVMaterialFileReader@tinyobj@@@8 	 DATA
	??_R0?AVMaterialReader@tinyobj@@@8 	 DATA
	??_R0?AVMaterialStreamReader@tinyobj@@@8 	 DATA
	??_R0?AVNoCopy@base@el@@@8 	 DATA
	??_R0?AVWriter@base@el@@@8 	 DATA
	??_R0?AVbad_alloc@std@@@8 	 DATA
	??_R0?AVbad_array_new_length@std@@@8 	 DATA
	??_R0?AVbad_cast@std@@@8 	 DATA
	??_R0?AVexception@detail@nlohmann@@@8 	 DATA
	??_R0?AVexception@std@@@8 	 DATA
	??_R0?AVinvalid_iterator@detail@nlohmann@@@8 	 DATA
	??_R0?AVios_base@std@@@8 	 DATA
	??_R0?AVother_error@detail@nlohmann@@@8 	 DATA
	??_R0?AVout_of_range@detail@nlohmann@@@8 	 DATA
	??_R0?AVout_of_range@std@@@8 	 DATA
	??_R0?AVparse_error@detail@nlohmann@@@8 	 DATA
	??_R0?AVruntime_error@std@@@8 	 DATA
	??_R0?AVtype_error@detail@nlohmann@@@8 	 DATA
	??_R0H@8 	 DATA
	??_R0M@8 	 DATA
	?_OptionsStorage@?1??__local_stdio_printf_options@@9@4_KA 	 DATA
	?_OptionsStorage@?1??__local_stdio_scanf_options@@9@4_KA 	 DATA
	?_Psave@?$_Facetptr@V?$codecvt@DDU_Mbstatet@@@std@@@std@@2PEBVfacet@locale@2@EB 	 DATA
	?_Psave@?$_Facetptr@V?$ctype@D@std@@@std@@2PEBVfacet@locale@2@EB 	 DATA
	?_Stinit@?1??_Init@?$basic_filebuf@DU?$char_traits@D@std@@@std@@IEAAXPEAU_iobuf@@W4_Initfl@23@@Z@4U_Mbstatet@@A 	 DATA
	?min_rgb@?1??random_color@easy3d@@YA?AV?$Vec@$02M@2@_N@Z@4MA 	 DATA
	__isa_available_default 	 DATA
	stbi_write_force_png_filter 	 DATA
	stbi_write_png_compression_level 	 DATA
	stbi_write_tga_with_rle 	 DATA
	??$?0PEAD$0A@@?$basic_string@DU?$char_traits@D@std@@V?$allocator@D@2@@std@@QEAA@PEAD0AEBV?$allocator@D@1@@Z
	??$?5DU?$char_traits@D@std@@V?$allocator@D@1@@std@@YAAEAV?$basic_istream@DU?$char_traits@D@std@@@0@AEAV10@AEAV?$basic_string@DU?$char_traits@D@std@@V?$allocator@D@2@@0@@Z
	??$?6$$BY01D@Writer@base@el@@QEAAAEAV012@AEAY01$$CBD@Z
	??$?6$$BY02D@Writer@base@el@@QEAAAEAV012@AEAY02$$CBD@Z
	??$?6$$BY07D@Writer@base@el@@QEAAAEAV012@AEAY07$$CBD@Z
	??$?6$$BY08D@Writer@base@el@@QEAAAEAV012@AEAY08$$CBD@Z
	??$?6$$BY09D@Writer@base@el@@QEAAAEAV012@AEAY09$$CBD@Z
	??$?6$$BY0BA@D@Writer@base@el@@QEAAAEAV012@AEAY0BA@$$CBD@Z
	??$?6$$BY0BC@D@Writer@base@el@@QEAAAEAV012@AEAY0BC@$$CBD@Z
	??$?6$$BY0BE@D@Writer@base@el@@QEAAAEAV012@AEAY0BE@$$CBD@Z
	??$?6$$BY0BG@D@Writer@base@el@@QEAAAEAV012@AEAY0BG@$$CBD@Z
	??$?6$$BY0BH@D@Writer@base@el@@QEAAAEAV012@AEAY0BH@$$CBD@Z
	??$?6$$BY0BI@D@Writer@base@el@@QEAAAEAV012@AEAY0BI@$$CBD@Z
	??$?6$$BY0BJ@D@Writer@base@el@@QEAAAEAV012@AEAY0BJ@$$CBD@Z
	??$?6$$BY0BK@D@Writer@base@el@@QEAAAEAV012@AEAY0BK@$$CBD@Z
	??$?6$$BY0BM@D@Writer@base@el@@QEAAAEAV012@AEAY0BM@$$CBD@Z
	??$?6$$BY0BN@D@Writer@base@el@@QEAAAEAV012@AEAY0BN@$$CBD@Z
	??$?6$$BY0BO@D@Writer@base@el@@QEAAAEAV012@AEAY0BO@$$CBD@Z
	??$?6$$BY0BP@D@Writer@base@el@@QEAAAEAV012@AEAY0BP@$$CBD@Z
	??$?6$$BY0CG@D@Writer@base@el@@QEAAAEAV012@AEAY0CG@$$CBD@Z
	??$?6$$BY0CJ@D@Writer@base@el@@QEAAAEAV012@AEAY0CJ@$$CBD@Z
	??$?6$$BY0CL@D@Writer@base@el@@QEAAAEAV012@AEAY0CL@$$CBD@Z
	??$?6$$BY0CO@D@Writer@base@el@@QEAAAEAV012@AEAY0CO@$$CBD@Z
	??$?6$$BY0DB@D@Writer@base@el@@QEAAAEAV012@AEAY0DB@$$CBD@Z
	??$?6$$BY0DF@D@Writer@base@el@@QEAAAEAV012@AEAY0DF@$$CBD@Z
	??$?6$$BY0DG@D@Writer@base@el@@QEAAAEAV012@AEAY0DG@$$CBD@Z
	??$?6$$BY0DJ@D@Writer@base@el@@QEAAAEAV012@AEAY0DJ@$$CBD@Z
	??$?6$$BY0HE@D@Writer@base@el@@QEAAAEAV012@AEAY0HE@$$CBD@Z
	??$?6$$BY0IAA@D@Writer@base@el@@QEAAAEAV012@AEAY0IAA@$$CBD@Z
	??$?6$$BY0L@D@Writer@base@el@@QEAAAEAV012@AEAY0L@$$CBD@Z
	??$?6$$BY0M@D@Writer@base@el@@QEAAAEAV012@AEAY0M@$$CBD@Z
	??$?6DU?$char_traits@D@std@@V?$allocator@D@1@@std@@YAAEAV?$basic_ostream@DU?$char_traits@D@std@@@0@AEAV10@AEBV?$basic_string@DU?$char_traits@D@std@@V?$allocator@D@2@@0@@Z
	??$?6H@Writer@base@el@@QEAAAEAV012@AEBH@Z
	??$?6I@Writer@base@el@@QEAAAEAV012@AEBI@Z
	??$?6M@Writer@base@el@@QEAAAEAV012@AEBM@Z
	??$?6M@easy3d@@YAAEAV?$basic_ostream@DU?$char_traits@D@std@@@std@@AEAV12@AEBV?$Vec@$02M@0@@Z
	??$?6N@Writer@base@el@@QEAAAEAV012@AEBN@Z
	??$?6U?$char_traits@D@std@@@std@@YAAEAV?$basic_ostream@DU?$char_traits@D@std@@@0@AEAV10@D@Z
	??$?6U?$char_traits@D@std@@@std@@YAAEAV?$basic_ostream@DU?$char_traits@D@std@@@0@AEAV10@PEBD@Z
	??$?6V?$Vec@$02N@easy3d@@@Writer@base@el@@QEAAAEAV012@AEBV?$Vec@$02N@easy3d@@@Z
	??$?6V?$basic_string@DU?$char_traits@D@std@@V?$allocator@D@2@@std@@@Writer@base@el@@QEAAAEAV012@AEBV?$basic_string@DU?$char_traits@D@std@@V?$allocator@D@2@@std@@@Z
	??$?6V?$set@V?$basic_string@DU?$char_traits@D@std@@V?$allocator@D@2@@std@@U?$less@V?$basic_string@DU?$char_traits@D@std@@V?$allocator@D@2@@std@@@2@V?$allocator@V?$basic_string@DU?$char_traits@D@std@@V?$allocator@D@2@@std@@@2@@std@@@Writer@base@el@@QEAAAEAV012@AEBV?$set@V?$basic_string@DU?$char_traits@D@std@@V?$allocator@D@2@@std@@U?$less@V?$basic_string@DU?$char_traits@D@std@@V?$allocator@D@2@@std@@@2@V?$allocator@V?$basic_string@DU?$char_traits@D@std@@V?$allocator@D@2@@std@@@2@@std@@@Z
	??$?6_K@Writer@base@el@@QEAAAEAV012@AEB_K@Z
	??$?8PEBD$0A@@nlohmann@@YA_NAEBV?$basic_json@Vmap@std@@Vvector@2@V?$basic_string@DU?$char_traits@D@std@@V?$allocator@D@2@@2@_N_J_KNVallocator@2@Uadl_serializer@nlohmann@@V?$vector@EV?$allocator@E@std@@@2@@0@PEBD@Z
	??$?8V?$basic_string@DU?$char_traits@D@std@@V?$allocator@D@2@@std@@V?$basic_json@Vmap@std@@Vvector@2@V?$basic_string@DU?$char_traits@D@std@@V?$allocator@D@2@@2@_N_J_KNVallocator@2@Uadl_serializer@nlohmann@@V?$vector@EV?$allocator@E@std@@@2@@nlohmann@@U?$less@V?$basic_string@DU?$char_traits@D@std@@V?$allocator@D@2@@std@@@1@V?$allocator@U?$pair@$$CBV?$basic_string@DU?$char_traits@D@std@@V?$allocator@D@2@@std@@V?$basic_json@Vmap@std@@Vvector@2@V?$basic_string@DU?$char_traits@D@std@@V?$allocator@D@2@@2@_N_J_KNVallocator@2@Uadl_serializer@nlohmann@@V?$vector@EV?$allocator@E@std@@@2@@nlohmann@@@std@@@1@@std@@YA_NAEBV?$map@V?$basic_string@DU?$char_traits@D@std@@V?$allocator@D@2@@std@@V?$basic_json@Vmap@std@@Vvector@2@V?$basic_string@DU?$char_traits@D@std@@V?$allocator@D@2@@2@_N_J_KNVallocator@2@Uadl_serializer@nlohmann@@V?$vector@EV?$allocator@E@std@@@2@@nlohmann@@U?$less@V?$basic_string@DU?$char_traits@D@std@@V?$allocator@D@2@@std@@@2@V?$allocator@U?$pair@$$CBV?$basic_string@DU?$char_traits@D@std@@V?$allocator@D@2@@std@@V?$basic_json@Vmap@std@@Vvector@2@V?$basic_string@DU?$char_traits@D@std@@V?$allocator@D@2@@2@_N_J_KNVallocator@2@Uadl_serializer@nlohmann@@V?$vector@EV?$allocator@E@std@@@2@@nlohmann@@@std@@@2@@0@0@Z
	??$?8V?$iter_impl@$$CBV?$basic_json@Vmap@std@@Vvector@2@V?$basic_string@DU?$char_traits@D@std@@V?$allocator@D@2@@2@_N_J_KNVallocator@2@Uadl_serializer@nlohmann@@V?$vector@EV?$allocator@E@std@@@2@@nlohmann@@@detail@nlohmann@@$0A@@?$iter_impl@$$CBV?$basic_json@Vmap@std@@Vvector@2@V?$basic_string@DU?$char_traits@D@std@@V?$allocator@D@2@@2@_N_J_KNVallocator@2@Uadl_serializer@nlohmann@@V?$vector@EV?$allocator@E@std@@@2@@nlohmann@@@detail@nlohmann@@QEBA_NAEBV012@@Z
	??$?8V?$iter_impl@V?$basic_json@Vmap@std@@Vvector@2@V?$basic_string@DU?$char_traits@D@std@@V?$allocator@D@2@@2@_N_J_KNVallocator@2@Uadl_serializer@nlohmann@@V?$vector@EV?$allocator@E@std@@@2@@nlohmann@@@detail@nlohmann@@$0A@@?$iter_impl@V?$basic_json@Vmap@std@@Vvector@2@V?$basic_string@DU?$char_traits@D@std@@V?$allocator@D@2@@2@_N_J_KNVallocator@2@Uadl_serializer@nlohmann@@V?$vector@EV?$allocator@E@std@@@2@@nlohmann@@@detail@nlohmann@@QEBA_NAEBV012@@Z
	??$?9DU?$char_traits@D@std@@V?$allocator@D@1@@std@@YA_NAEBV?$basic_string@DU?$char_traits@D@std@@V?$allocator@D@2@@0@QEBD@Z
	??$?A$$CBD@?$basic_json@Vmap@std@@Vvector@2@V?$basic_string@DU?$char_traits@D@std@@V?$allocator@D@2@@2@_N_J_KNVallocator@2@Uadl_serializer@nlohmann@@V?$vector@EV?$allocator@E@std@@@2@@nlohmann@@QEBAAEBV01@PEBD@Z
	??$?DM@easy3d@@YA?AV?$Vec@$02M@0@AEBV?$Mat4@M@0@AEBV10@@Z
	??$?HDU?$char_traits@D@std@@V?$allocator@D@1@@std@@YA?AV?$basic_string@DU?$char_traits@D@std@@V?$allocator@D@2@@0@$$QEAV10@QEBD@Z
	??$?HDU?$char_traits@D@std@@V?$allocator@D@1@@std@@YA?AV?$basic_string@DU?$char_traits@D@std@@V?$allocator@D@2@@0@QEBD$$QEAV10@@Z
	??$?HDU?$char_traits@D@std@@V?$allocator@D@1@@std@@YA?AV?$basic_string@DU?$char_traits@D@std@@V?$allocator@D@2@@0@QEBDAEBV10@@Z
	??$?MDU?$char_traits@D@std@@V?$allocator@D@1@@std@@YA_NAEBV?$basic_string@DU?$char_traits@D@std@@V?$allocator@D@2@@0@0@Z
	??$_Allocate_manually_vector_aligned@U_Default_allocate_traits@std@@@std@@YAPEAX_K@Z
	??$_Assign_counted_range@PEAE@?$vector@EV?$allocator@E@std@@@std@@AEAAXPEAE_K@Z
	??$_Assign_counted_range@PEAH@?$vector@HV?$allocator@H@std@@@std@@AEAAXPEAH_K@Z
	??$_Assign_counted_range@PEAM@?$vector@MV?$allocator@M@std@@@std@@AEAAXPEAM_K@Z
	??$_Assign_counted_range@PEAN@?$vector@NV?$allocator@N@std@@@std@@AEAAXPEAN_K@Z
	??$_Assign_counted_range@PEAUCellConnectivity@PolyMesh@easy3d@@@?$vector@UCellConnectivity@PolyMesh@easy3d@@V?$allocator@UCellConnectivity@PolyMesh@easy3d@@@std@@@std@@AEAAXPEAUCellConnectivity@PolyMesh@easy3d@@_K@Z
	??$_Assign_counted_range@PEAUEdgeConnectivity@PolyMesh@easy3d@@@?$vector@UEdgeConnectivity@PolyMesh@easy3d@@V?$allocator@UEdgeConnectivity@PolyMesh@easy3d@@@std@@@std@@AEAAXPEAUEdgeConnectivity@PolyMesh@easy3d@@_K@Z
	??$_Assign_counted_range@PEAUElement@io@easy3d@@@?$vector@UElement@io@easy3d@@V?$allocator@UElement@io@easy3d@@@std@@@std@@AEAAXPEAUElement@io@easy3d@@_K@Z
	??$_Assign_counted_range@PEAUFaceConnectivity@SurfaceMesh@easy3d@@@?$vector@UFaceConnectivity@SurfaceMesh@easy3d@@V?$allocator@UFaceConnectivity@SurfaceMesh@easy3d@@@std@@@std@@AEAAXPEAUFaceConnectivity@SurfaceMesh@easy3d@@_K@Z
	??$_Assign_counted_range@PEAUHalfFace@PolyMesh@easy3d@@@?$vector@UHalfFace@PolyMesh@easy3d@@V?$allocator@UHalfFace@PolyMesh@easy3d@@@std@@@std@@AEAAXPEAUHalfFace@PolyMesh@easy3d@@_K@Z
	??$_Assign_counted_range@PEAUHalfFaceConnectivity@PolyMesh@easy3d@@@?$vector@UHalfFaceConnectivity@PolyMesh@easy3d@@V?$allocator@UHalfFaceConnectivity@PolyMesh@easy3d@@@std@@@std@@AEAAXPEAUHalfFaceConnectivity@PolyMesh@easy3d@@_K@Z
	??$_Assign_counted_range@PEAUHalfedgeConnectivity@SurfaceMesh@easy3d@@@?$vector@UHalfedgeConnectivity@SurfaceMesh@easy3d@@V?$allocator@UHalfedgeConnectivity@SurfaceMesh@easy3d@@@std@@@std@@AEAAXPEAUHalfedgeConnectivity@SurfaceMesh@easy3d@@_K@Z
	??$_Assign_counted_range@PEAUVertexConnectivity@PolyMesh@easy3d@@@?$vector@UVertexConnectivity@PolyMesh@easy3d@@V?$allocator@UVertexConnectivity@PolyMesh@easy3d@@@std@@@std@@AEAAXPEAUVertexConnectivity@PolyMesh@easy3d@@_K@Z
	??$_Assign_counted_range@PEAUVertexConnectivity@SurfaceMesh@easy3d@@@?$vector@UVertexConnectivity@SurfaceMesh@easy3d@@V?$allocator@UVertexConnectivity@SurfaceMesh@easy3d@@@std@@@std@@AEAAXPEAUVertexConnectivity@SurfaceMesh@easy3d@@_K@Z
	??$_Assign_counted_range@PEAUtag_t@tinyobj@@@?$vector@Utag_t@tinyobj@@V?$allocator@Utag_t@tinyobj@@@std@@@std@@AEAAXPEAUtag_t@tinyobj@@_K@Z
	??$_Assign_counted_range@PEAV?$GenericProperty@H@io@easy3d@@@?$vector@V?$GenericProperty@H@io@easy3d@@V?$allocator@V?$GenericProperty@H@io@easy3d@@@std@@@std@@AEAAXPEAV?$GenericProperty@H@io@easy3d@@_K@Z
	??$_Assign_counted_range@PEAV?$GenericProperty@M@io@easy3d@@@?$vector@V?$GenericProperty@M@io@easy3d@@V?$allocator@V?$GenericProperty@M@io@easy3d@@@std@@@std@@AEAAXPEAV?$GenericProperty@M@io@easy3d@@_K@Z
	??$_Assign_counted_range@PEAV?$GenericProperty@V?$Vec@$01M@easy3d@@@io@easy3d@@@?$vector@V?$GenericProperty@V?$Vec@$01M@easy3d@@@io@easy3d@@V?$allocator@V?$GenericProperty@V?$Vec@$01M@easy3d@@@io@easy3d@@@std@@@std@@AEAAXPEAV?$GenericProperty@V?$Vec@$01M@easy3d@@@io@easy3d@@_K@Z
	??$_Assign_counted_range@PEAV?$GenericProperty@V?$Vec@$02M@easy3d@@@io@easy3d@@@?$vector@V?$GenericProperty@V?$Vec@$02M@easy3d@@@io@easy3d@@V?$allocator@V?$GenericProperty@V?$Vec@$02M@easy3d@@@io@easy3d@@@std@@@std@@AEAAXPEAV?$GenericProperty@V?$Vec@$02M@easy3d@@@io@easy3d@@_K@Z
	??$_Assign_counted_range@PEAV?$GenericProperty@V?$vector@HV?$allocator@H@std@@@std@@@io@easy3d@@@?$vector@V?$GenericProperty@V?$vector@HV?$allocator@H@std@@@std@@@io@easy3d@@V?$allocator@V?$GenericProperty@V?$vector@HV?$allocator@H@std@@@std@@@io@easy3d@@@std@@@std@@AEAAXPEAV?$GenericProperty@V?$vector@HV?$allocator@H@std@@@std@@@io@easy3d@@_K@Z
	??$_Assign_counted_range@PEAV?$GenericProperty@V?$vector@MV?$allocator@M@std@@@std@@@io@easy3d@@@?$vector@V?$GenericProperty@V?$vector@MV?$allocator@M@std@@@std@@@io@easy3d@@V?$allocator@V?$GenericProperty@V?$vector@MV?$allocator@M@std@@@std@@@io@easy3d@@@std@@@std@@AEAAXPEAV?$GenericProperty@V?$vector@MV?$allocator@M@std@@@std@@@io@easy3d@@_K@Z
	??$_Assign_counted_range@PEAV?$Vec@$01M@easy3d@@@?$vector@V?$Vec@$01M@easy3d@@V?$allocator@V?$Vec@$01M@easy3d@@@std@@@std@@AEAAXPEAV?$Vec@$01M@easy3d@@_K@Z
	??$_Assign_counted_range@PEAV?$Vec@$02M@easy3d@@@?$vector@V?$Vec@$02M@easy3d@@V?$allocator@V?$Vec@$02M@easy3d@@@std@@@std@@AEAAXPEAV?$Vec@$02M@easy3d@@_K@Z
	??$_Assign_counted_range@PEAV?$Vec@$02N@easy3d@@@?$vector@V?$Vec@$02N@easy3d@@V?$allocator@V?$Vec@$02N@easy3d@@@std@@@std@@AEAAXPEAV?$Vec@$02N@easy3d@@_K@Z
	??$_Assign_counted_range@PEAV?$basic_string@DU?$char_traits@D@std@@V?$allocator@D@2@@std@@@?$vector@V?$basic_string@DU?$char_traits@D@std@@V?$allocator@D@2@@std@@V?$allocator@V?$basic_string@DU?$char_traits@D@std@@V?$allocator@D@2@@std@@@2@@std@@AEAAXPEAV?$basic_string@DU?$char_traits@D@std@@V?$allocator@D@2@@1@_K@Z
	??$_Assign_counted_range@PEAV?$vector@HV?$allocator@H@std@@@std@@@?$vector@V?$vector@HV?$allocator@H@std@@@std@@V?$allocator@V?$vector@HV?$allocator@H@std@@@std@@@2@@std@@AEAAXPEAV?$vector@HV?$allocator@H@std@@@1@_K@Z
	??$_Assign_counted_range@PEAV?$vector@MV?$allocator@M@std@@@std@@@?$vector@V?$vector@MV?$allocator@M@std@@@std@@V?$allocator@V?$vector@MV?$allocator@M@std@@@std@@@2@@std@@AEAAXPEAV?$vector@MV?$allocator@M@std@@@1@_K@Z
	??$_Assign_counted_range@PEAVVertexGroup@PointCloudIO_vg@io@easy3d@@@?$vector@VVertexGroup@PointCloudIO_vg@io@easy3d@@V?$allocator@VVertexGroup@PointCloudIO_vg@io@easy3d@@@std@@@std@@AEAAXPEAVVertexGroup@PointCloudIO_vg@io@easy3d@@_K@Z
	??$_Construct@$00PEAD@?$basic_string@DU?$char_traits@D@std@@V?$allocator@D@2@@std@@AEAAXQEAD_K@Z
	??$_Construct@$00PEBD@?$basic_string@DU?$char_traits@D@std@@V?$allocator@D@2@@std@@AEAAXQEBD_K@Z
	??$_Copy@$0A@@?$_Tree@V?$_Tset_traits@UCell@PolyMesh@easy3d@@U?$less@UCell@PolyMesh@easy3d@@@std@@V?$allocator@UCell@PolyMesh@easy3d@@@5@$0A@@std@@@std@@IEAAXAEBV01@@Z
	??$_Copy@$0A@@?$_Tree@V?$_Tset_traits@UEdge@PolyMesh@easy3d@@U?$less@UEdge@PolyMesh@easy3d@@@std@@V?$allocator@UEdge@PolyMesh@easy3d@@@5@$0A@@std@@@std@@IEAAXAEBV01@@Z
	??$_Copy@$0A@@?$_Tree@V?$_Tset_traits@UHalfFace@PolyMesh@easy3d@@U?$less@UHalfFace@PolyMesh@easy3d@@@std@@V?$allocator@UHalfFace@PolyMesh@easy3d@@@5@$0A@@std@@@std@@IEAAXAEBV01@@Z
	??$_Copy@$0A@@?$_Tree@V?$_Tset_traits@UVertex@PolyMesh@easy3d@@U?$less@UVertex@PolyMesh@easy3d@@@std@@V?$allocator@UVertex@PolyMesh@easy3d@@@5@$0A@@std@@@std@@IEAAXAEBV01@@Z
	??$_Copy_memmove@PEADPEAD@std@@YAPEADPEAD00@Z
	??$_Copy_memmove@PEAEPEAE@std@@YAPEAEPEAE00@Z
	??$_Copy_memmove@PEAHPEAH@std@@YAPEAHPEAH00@Z
	??$_Copy_memmove@PEAIPEAI@std@@YAPEAIPEAI00@Z
	??$_Copy_memmove@PEAMPEAM@std@@YAPEAMPEAM00@Z
	??$_Copy_memmove@PEANPEAN@std@@YAPEANPEAN00@Z
	??$_Copy_memmove@PEAPEAUListProperty@PlyReader@io@easy3d@@PEAPEAU1234@@std@@YAPEAPEAUListProperty@PlyReader@io@easy3d@@PEAPEAU1234@00@Z
	??$_Copy_memmove@PEAPEAUValueProperty@PlyReader@io@easy3d@@PEAPEAU1234@@std@@YAPEAPEAUValueProperty@PlyReader@io@easy3d@@PEAPEAU1234@00@Z
	??$_Copy_memmove@PEAPEAV?$basic_json@Vmap@std@@Vvector@2@V?$basic_string@DU?$char_traits@D@std@@V?$allocator@D@2@@2@_N_J_KNVallocator@2@Uadl_serializer@nlohmann@@V?$vector@EV?$allocator@E@std@@@2@@nlohmann@@PEAPEAV12@@std@@YAPEAPEAV?$basic_json@Vmap@std@@Vvector@2@V?$basic_string@DU?$char_traits@D@std@@V?$allocator@D@2@@2@_N_J_KNVallocator@2@Uadl_serializer@nlohmann@@V?$vector@EV?$allocator@E@std@@@2@@nlohmann@@PEAPEAV12@00@Z
	??$_Copy_memmove@PEAPEAVBasePropertyArray@easy3d@@PEAPEAV12@@std@@YAPEAPEAVBasePropertyArray@easy3d@@PEAPEAV12@00@Z
	??$_Copy_memmove@PEAPEBDPEAPEBD@std@@YAPEAPEBDPEAPEBD00@Z
	??$_Copy_memmove@PEAUFace@SurfaceMesh@easy3d@@PEAU123@@std@@YAPEAUFace@SurfaceMesh@easy3d@@PEAU123@00@Z
	??$_Copy_memmove@PEAUFaceConnectivity@SurfaceMesh@easy3d@@PEAU123@@std@@YAPEAUFaceConnectivity@SurfaceMesh@easy3d@@PEAU123@00@Z
	??$_Copy_memmove@PEAUHalfFace@PolyMesh@easy3d@@PEAU123@@std@@YAPEAUHalfFace@PolyMesh@easy3d@@PEAU123@00@Z
	??$_Copy_memmove@PEAUHalfedgeConnectivity@SurfaceMesh@easy3d@@PEAU123@@std@@YAPEAUHalfedgeConnectivity@SurfaceMesh@easy3d@@PEAU123@00@Z
	??$_Copy_memmove@PEAUVertex@PolyMesh@easy3d@@PEAU123@@std@@YAPEAUVertex@PolyMesh@easy3d@@PEAU123@00@Z
	??$_Copy_memmove@PEAUVertex@SurfaceMesh@easy3d@@PEAU123@@std@@YAPEAUVertex@SurfaceMesh@easy3d@@PEAU123@00@Z
	??$_Copy_memmove@PEAUVertexConnectivity@SurfaceMesh@easy3d@@PEAU123@@std@@YAPEAUVertexConnectivity@SurfaceMesh@easy3d@@PEAU123@00@Z
	??$_Copy_memmove@PEAUindex_t@tinyobj@@PEAU12@@std@@YAPEAUindex_t@tinyobj@@PEAU12@00@Z
	??$_Copy_memmove@PEAUjoint_and_weight_t@tinyobj@@PEAU12@@std@@YAPEAUjoint_and_weight_t@tinyobj@@PEAU12@00@Z
	??$_Copy_memmove@PEAUvertex_index_t@tinyobj@@PEAU12@@std@@YAPEAUvertex_index_t@tinyobj@@PEAU12@00@Z
	??$_Copy_memmove@PEAV?$Vec@$01M@easy3d@@PEAV12@@std@@YAPEAV?$Vec@$01M@easy3d@@PEAV12@00@Z
	??$_Copy_memmove@PEAV?$Vec@$02M@easy3d@@PEAV12@@std@@YAPEAV?$Vec@$02M@easy3d@@PEAV12@00@Z
	??$_Copy_memmove@PEAV?$Vec@$02N@easy3d@@PEAV12@@std@@YAPEAV?$Vec@$02N@easy3d@@PEAV12@00@Z
	??$_Copy_memmove@PEBHPEAH@std@@YAPEAHPEBH0PEAH@Z
	??$_Copy_memmove@PEBMPEAM@std@@YAPEAMPEBM0PEAM@Z
	??$_Copy_memmove@PEBUFaceConnectivity@SurfaceMesh@easy3d@@PEAU123@@std@@YAPEAUFaceConnectivity@SurfaceMesh@easy3d@@PEBU123@0PEAU123@@Z
	??$_Copy_memmove@PEBUHalfedgeConnectivity@SurfaceMesh@easy3d@@PEAU123@@std@@YAPEAUHalfedgeConnectivity@SurfaceMesh@easy3d@@PEBU123@0PEAU123@@Z
	??$_Copy_memmove@PEBUVertexConnectivity@SurfaceMesh@easy3d@@PEAU123@@std@@YAPEAUVertexConnectivity@SurfaceMesh@easy3d@@PEBU123@0PEAU123@@Z
	??$_Copy_memmove@PEBV?$Vec@$01M@easy3d@@PEAV12@@std@@YAPEAV?$Vec@$01M@easy3d@@PEBV12@0PEAV12@@Z
	??$_Copy_memmove@PEBV?$Vec@$02M@easy3d@@PEAV12@@std@@YAPEAV?$Vec@$02M@easy3d@@PEBV12@0PEAV12@@Z
	??$_Copy_memmove@PEBV?$Vec@$02N@easy3d@@PEAV12@@std@@YAPEAV?$Vec@$02N@easy3d@@PEBV12@0PEAV12@@Z
	??$_Copy_memmove_n@PEAEPEAE@std@@YAPEAEPEAE_K0@Z
	??$_Copy_memmove_n@PEAHPEAH@std@@YAPEAHPEAH_K0@Z
	??$_Copy_memmove_n@PEAMPEAM@std@@YAPEAMPEAM_K0@Z
	??$_Copy_memmove_n@PEANPEAN@std@@YAPEANPEAN_K0@Z
	??$_Copy_memmove_n@PEAUFaceConnectivity@SurfaceMesh@easy3d@@PEAU123@@std@@YAPEAUFaceConnectivity@SurfaceMesh@easy3d@@PEAU123@_K0@Z
	??$_Copy_memmove_n@PEAUHalfFace@PolyMesh@easy3d@@PEAU123@@std@@YAPEAUHalfFace@PolyMesh@easy3d@@PEAU123@_K0@Z
	??$_Copy_memmove_n@PEAUHalfedgeConnectivity@SurfaceMesh@easy3d@@PEAU123@@std@@YAPEAUHalfedgeConnectivity@SurfaceMesh@easy3d@@PEAU123@_K0@Z
	??$_Copy_memmove_n@PEAUVertex@PolyMesh@easy3d@@PEAU123@@std@@YAPEAUVertex@PolyMesh@easy3d@@PEAU123@_K0@Z
	??$_Copy_memmove_n@PEAUVertexConnectivity@SurfaceMesh@easy3d@@PEAU123@@std@@YAPEAUVertexConnectivity@SurfaceMesh@easy3d@@PEAU123@_K0@Z
	??$_Copy_memmove_n@PEAV?$Vec@$01M@easy3d@@PEAV12@@std@@YAPEAV?$Vec@$01M@easy3d@@PEAV12@_K0@Z
	??$_Copy_memmove_n@PEAV?$Vec@$02M@easy3d@@PEAV12@@std@@YAPEAV?$Vec@$02M@easy3d@@PEAV12@_K0@Z
	??$_Copy_memmove_n@PEAV?$Vec@$02N@easy3d@@PEAV12@@std@@YAPEAV?$Vec@$02N@easy3d@@PEAV12@_K0@Z
	??$_Copy_memmove_n@PEBHPEAH@std@@YAPEAHPEBH_KPEAH@Z
	??$_Copy_n_unchecked4@PEAUElement@io@easy3d@@_KPEAU123@@std@@YAPEAUElement@io@easy3d@@PEAU123@_K0@Z
	??$_Copy_nodes@$0A@@?$_Tree@V?$_Tmap_traits@V?$basic_string@DU?$char_traits@D@std@@V?$allocator@D@2@@std@@V12@U?$less@V?$basic_string@DU?$char_traits@D@std@@V?$allocator@D@2@@std@@@2@V?$allocator@U?$pair@$$CBV?$basic_string@DU?$char_traits@D@std@@V?$allocator@D@2@@std@@V12@@std@@@2@$0A@@std@@@std@@IEAAPEAU?$_Tree_node@U?$pair@$$CBV?$basic_string@DU?$char_traits@D@std@@V?$allocator@D@2@@std@@V12@@std@@PEAX@1@PEAU21@0@Z
	??$_Copy_nodes@$0A@@?$_Tree@V?$_Tmap_traits@V?$basic_string@DU?$char_traits@D@std@@V?$allocator@D@2@@std@@V?$basic_json@Vmap@std@@Vvector@2@V?$basic_string@DU?$char_traits@D@std@@V?$allocator@D@2@@2@_N_J_KNVallocator@2@Uadl_serializer@nlohmann@@V?$vector@EV?$allocator@E@std@@@2@@nlohmann@@U?$less@V?$basic_string@DU?$char_traits@D@std@@V?$allocator@D@2@@std@@@2@V?$allocator@U?$pair@$$CBV?$basic_string@DU?$char_traits@D@std@@V?$allocator@D@2@@std@@V?$basic_json@Vmap@std@@Vvector@2@V?$basic_string@DU?$char_traits@D@std@@V?$allocator@D@2@@2@_N_J_KNVallocator@2@Uadl_serializer@nlohmann@@V?$vector@EV?$allocator@E@std@@@2@@nlohmann@@@std@@@2@$0A@@std@@@std@@IEAAPEAU?$_Tree_node@U?$pair@$$CBV?$basic_string@DU?$char_traits@D@std@@V?$allocator@D@2@@std@@V?$basic_json@Vmap@std@@Vvector@2@V?$basic_string@DU?$char_traits@D@std@@V?$allocator@D@2@@2@_N_J_KNVallocator@2@Uadl_serializer@nlohmann@@V?$vector@EV?$allocator@E@std@@@2@@nlohmann@@@std@@PEAX@1@PEAU21@0@Z
	??$_Copy_nodes@$0A@@?$_Tree@V?$_Tset_traits@UCell@PolyMesh@easy3d@@U?$less@UCell@PolyMesh@easy3d@@@std@@V?$allocator@UCell@PolyMesh@easy3d@@@5@$0A@@std@@@std@@IEAAPEAU?$_Tree_node@UCell@PolyMesh@easy3d@@PEAX@1@PEAU21@0@Z
	??$_Copy_nodes@$0A@@?$_Tree@V?$_Tset_traits@UEdge@PolyMesh@easy3d@@U?$less@UEdge@PolyMesh@easy3d@@@std@@V?$allocator@UEdge@PolyMesh@easy3d@@@5@$0A@@std@@@std@@IEAAPEAU?$_Tree_node@UEdge@PolyMesh@easy3d@@PEAX@1@PEAU21@0@Z
	??$_Copy_nodes@$0A@@?$_Tree@V?$_Tset_traits@UHalfFace@PolyMesh@easy3d@@U?$less@UHalfFace@PolyMesh@easy3d@@@std@@V?$allocator@UHalfFace@PolyMesh@easy3d@@@5@$0A@@std@@@std@@IEAAPEAU?$_Tree_node@UHalfFace@PolyMesh@easy3d@@PEAX@1@PEAU21@0@Z
	??$_Copy_nodes@$0A@@?$_Tree@V?$_Tset_traits@UVertex@PolyMesh@easy3d@@U?$less@UVertex@PolyMesh@easy3d@@@std@@V?$allocator@UVertex@PolyMesh@easy3d@@@5@$0A@@std@@@std@@IEAAPEAU?$_Tree_node@UVertex@PolyMesh@easy3d@@PEAX@1@PEAU21@0@Z
	??$_Copy_unchecked@PEBUElement@io@easy3d@@PEBU123@PEAU123@@std@@YAPEAUElement@io@easy3d@@PEBU123@0PEAU123@@Z
	??$_Destroy_range@V?$allocator@UCellConnectivity@PolyMesh@easy3d@@@std@@@std@@YAXPEAUCellConnectivity@PolyMesh@easy3d@@QEAU123@AEAV?$allocator@UCellConnectivity@PolyMesh@easy3d@@@0@@Z
	??$_Destroy_range@V?$allocator@UEdgeConnectivity@PolyMesh@easy3d@@@std@@@std@@YAXPEAUEdgeConnectivity@PolyMesh@easy3d@@QEAU123@AEAV?$allocator@UEdgeConnectivity@PolyMesh@easy3d@@@0@@Z
	??$_Destroy_range@V?$allocator@UElement@io@easy3d@@@std@@@std@@YAXPEAUElement@io@easy3d@@QEAU123@AEAV?$allocator@UElement@io@easy3d@@@0@@Z
	??$_Destroy_range@V?$allocator@UHalfFaceConnectivity@PolyMesh@easy3d@@@std@@@std@@YAXPEAUHalfFaceConnectivity@PolyMesh@easy3d@@QEAU123@AEAV?$allocator@UHalfFaceConnectivity@PolyMesh@easy3d@@@0@@Z
	??$_Destroy_range@V?$allocator@UVertexConnectivity@PolyMesh@easy3d@@@std@@@std@@YAXPEAUVertexConnectivity@PolyMesh@easy3d@@QEAU123@AEAV?$allocator@UVertexConnectivity@PolyMesh@easy3d@@@0@@Z
	??$_Destroy_range@V?$allocator@U__line_t@tinyobj@@@std@@@std@@YAXPEAU__line_t@tinyobj@@QEAU12@AEAV?$allocator@U__line_t@tinyobj@@@0@@Z
	??$_Destroy_range@V?$allocator@U__points_t@tinyobj@@@std@@@std@@YAXPEAU__points_t@tinyobj@@QEAU12@AEAV?$allocator@U__points_t@tinyobj@@@0@@Z
	??$_Destroy_range@V?$allocator@Uface_t@tinyobj@@@std@@@std@@YAXPEAUface_t@tinyobj@@QEAU12@AEAV?$allocator@Uface_t@tinyobj@@@0@@Z
	??$_Destroy_range@V?$allocator@Umaterial_t@tinyobj@@@std@@@std@@YAXPEAUmaterial_t@tinyobj@@QEAU12@AEAV?$allocator@Umaterial_t@tinyobj@@@0@@Z
	??$_Destroy_range@V?$allocator@Ushape_t@tinyobj@@@std@@@std@@YAXPEAUshape_t@tinyobj@@QEAU12@AEAV?$allocator@Ushape_t@tinyobj@@@0@@Z
	??$_Destroy_range@V?$allocator@Uskin_weight_t@tinyobj@@@std@@@std@@YAXPEAUskin_weight_t@tinyobj@@QEAU12@AEAV?$allocator@Uskin_weight_t@tinyobj@@@0@@Z
	??$_Destroy_range@V?$allocator@Utag_t@tinyobj@@@std@@@std@@YAXPEAUtag_t@tinyobj@@QEAU12@AEAV?$allocator@Utag_t@tinyobj@@@0@@Z
	??$_Destroy_range@V?$allocator@V?$GenericProperty@H@io@easy3d@@@std@@@std@@YAXPEAV?$GenericProperty@H@io@easy3d@@QEAV123@AEAV?$allocator@V?$GenericProperty@H@io@easy3d@@@0@@Z
	??$_Destroy_range@V?$allocator@V?$GenericProperty@M@io@easy3d@@@std@@@std@@YAXPEAV?$GenericProperty@M@io@easy3d@@QEAV123@AEAV?$allocator@V?$GenericProperty@M@io@easy3d@@@0@@Z
	??$_Destroy_range@V?$allocator@V?$GenericProperty@V?$Vec@$01M@easy3d@@@io@easy3d@@@std@@@std@@YAXPEAV?$GenericProperty@V?$Vec@$01M@easy3d@@@io@easy3d@@QEAV123@AEAV?$allocator@V?$GenericProperty@V?$Vec@$01M@easy3d@@@io@easy3d@@@0@@Z
	??$_Destroy_range@V?$allocator@V?$GenericProperty@V?$Vec@$02M@easy3d@@@io@easy3d@@@std@@@std@@YAXPEAV?$GenericProperty@V?$Vec@$02M@easy3d@@@io@easy3d@@QEAV123@AEAV?$allocator@V?$GenericProperty@V?$Vec@$02M@easy3d@@@io@easy3d@@@0@@Z
	??$_Destroy_range@V?$allocator@V?$GenericProperty@V?$vector@HV?$allocator@H@std@@@std@@@io@easy3d@@@std@@@std@@YAXPEAV?$GenericProperty@V?$vector@HV?$allocator@H@std@@@std@@@io@easy3d@@QEAV123@AEAV?$allocator@V?$GenericProperty@V?$vector@HV?$allocator@H@std@@@std@@@io@easy3d@@@0@@Z
	??$_Destroy_range@V?$allocator@V?$GenericProperty@V?$vector@MV?$allocator@M@std@@@std@@@io@easy3d@@@std@@@std@@YAXPEAV?$GenericProperty@V?$vector@MV?$allocator@M@std@@@std@@@io@easy3d@@QEAV123@AEAV?$allocator@V?$GenericProperty@V?$vector@MV?$allocator@M@std@@@std@@@io@easy3d@@@0@@Z
	??$_Destroy_range@V?$allocator@V?$basic_json@Vmap@std@@Vvector@2@V?$basic_string@DU?$char_traits@D@std@@V?$allocator@D@2@@2@_N_J_KNVallocator@2@Uadl_serializer@nlohmann@@V?$vector@EV?$allocator@E@std@@@2@@nlohmann@@@std@@@std@@YAXPEAV?$basic_json@Vmap@std@@Vvector@2@V?$basic_string@DU?$char_traits@D@std@@V?$allocator@D@2@@2@_N_J_KNVallocator@2@Uadl_serializer@nlohmann@@V?$vector@EV?$allocator@E@std@@@2@@nlohmann@@QEAV12@AEAV?$allocator@V?$basic_json@Vmap@std@@Vvector@2@V?$basic_string@DU?$char_traits@D@std@@V?$allocator@D@2@@2@_N_J_KNVallocator@2@Uadl_serializer@nlohmann@@V?$vector@EV?$allocator@E@std@@@2@@nlohmann@@@0@@Z
	??$_Destroy_range@V?$allocator@V?$basic_string@DU?$char_traits@D@std@@V?$allocator@D@2@@std@@@std@@@std@@YAXPEAV?$basic_string@DU?$char_traits@D@std@@V?$allocator@D@2@@0@QEAV10@AEAV?$allocator@V?$basic_string@DU?$char_traits@D@std@@V?$allocator@D@2@@std@@@0@@Z
	??$_Destroy_range@V?$allocator@V?$vector@HV?$allocator@H@std@@@std@@@std@@@std@@YAXPEAV?$vector@HV?$allocator@H@std@@@0@QEAV10@AEAV?$allocator@V?$vector@HV?$allocator@H@std@@@std@@@0@@Z
	??$_Destroy_range@V?$allocator@V?$vector@MV?$allocator@M@std@@@std@@@std@@@std@@YAXPEAV?$vector@MV?$allocator@M@std@@@0@QEAV10@AEAV?$allocator@V?$vector@MV?$allocator@M@std@@@std@@@0@@Z
	??$_Destroy_range@V?$allocator@V?$vector@NV?$allocator@N@std@@@std@@@std@@@std@@YAXPEAV?$vector@NV?$allocator@N@std@@@0@QEAV10@AEAV?$allocator@V?$vector@NV?$allocator@N@std@@@std@@@0@@Z
	??$_Destroy_range@V?$allocator@V?$vector@V?$Vec@$02N@easy3d@@V?$allocator@V?$Vec@$02N@easy3d@@@std@@@std@@@std@@@std@@YAXPEAV?$vector@V?$Vec@$02N@easy3d@@V?$allocator@V?$Vec@$02N@easy3d@@@std@@@0@QEAV10@AEAV?$allocator@V?$vector@V?$Vec@$02N@easy3d@@V?$allocator@V?$Vec@$02N@easy3d@@@std@@@std@@@0@@Z
	??$_Destroy_range@V?$allocator@VVertexGroup@PointCloudIO_vg@io@easy3d@@@std@@@std@@YAXPEAVVertexGroup@PointCloudIO_vg@io@easy3d@@QEAV1234@AEAV?$allocator@VVertexGroup@PointCloudIO_vg@io@easy3d@@@0@@Z
	??$_Emplace@U?$pair@V?$basic_string@DU?$char_traits@D@std@@V?$allocator@D@2@@std@@V12@@std@@@?$_Tree@V?$_Tmap_traits@V?$basic_string@DU?$char_traits@D@std@@V?$allocator@D@2@@std@@V12@U?$less@V?$basic_string@DU?$char_traits@D@std@@V?$allocator@D@2@@std@@@2@V?$allocator@U?$pair@$$CBV?$basic_string@DU?$char_traits@D@std@@V?$allocator@D@2@@std@@V12@@std@@@2@$0A@@std@@@std@@IEAA?AU?$pair@PEAU?$_Tree_node@U?$pair@$$CBV?$basic_string@DU?$char_traits@D@std@@V?$allocator@D@2@@std@@V12@@std@@PEAX@std@@_N@1@$$QEAU?$pair@V?$basic_string@DU?$char_traits@D@std@@V?$allocator@D@2@@std@@V12@@1@@Z
	??$_Emplace@V?$basic_string@DU?$char_traits@D@std@@V?$allocator@D@2@@std@@@?$_Tree@V?$_Tset_traits@V?$basic_string@DU?$char_traits@D@std@@V?$allocator@D@2@@std@@U?$less@V?$basic_string@DU?$char_traits@D@std@@V?$allocator@D@2@@std@@@2@V?$allocator@V?$basic_string@DU?$char_traits@D@std@@V?$allocator@D@2@@std@@@2@$0A@@std@@@std@@IEAA?AU?$pair@PEAU?$_Tree_node@V?$basic_string@DU?$char_traits@D@std@@V?$allocator@D@2@@std@@PEAX@std@@_N@1@$$QEAV?$basic_string@DU?$char_traits@D@std@@V?$allocator@D@2@@1@@Z
	??$_Emplace_reallocate@$$T@?$vector@V?$basic_json@Vmap@std@@Vvector@2@V?$basic_string@DU?$char_traits@D@std@@V?$allocator@D@2@@2@_N_J_KNVallocator@2@Uadl_serializer@nlohmann@@V?$vector@EV?$allocator@E@std@@@2@@nlohmann@@V?$allocator@V?$basic_json@Vmap@std@@Vvector@2@V?$basic_string@DU?$char_traits@D@std@@V?$allocator@D@2@@2@_N_J_KNVallocator@2@Uadl_serializer@nlohmann@@V?$vector@EV?$allocator@E@std@@@2@@nlohmann@@@std@@@std@@AEAAPEAV?$basic_json@Vmap@std@@Vvector@2@V?$basic_string@DU?$char_traits@D@std@@V?$allocator@D@2@@2@_N_J_KNVallocator@2@Uadl_serializer@nlohmann@@V?$vector@EV?$allocator@E@std@@@2@@nlohmann@@QEAV23@$$QEA$$T@Z
	??$_Emplace_reallocate@AEAN@?$vector@V?$basic_json@Vmap@std@@Vvector@2@V?$basic_string@DU?$char_traits@D@std@@V?$allocator@D@2@@2@_N_J_KNVallocator@2@Uadl_serializer@nlohmann@@V?$vector@EV?$allocator@E@std@@@2@@nlohmann@@V?$allocator@V?$basic_json@Vmap@std@@Vvector@2@V?$basic_string@DU?$char_traits@D@std@@V?$allocator@D@2@@2@_N_J_KNVallocator@2@Uadl_serializer@nlohmann@@V?$vector@EV?$allocator@E@std@@@2@@nlohmann@@@std@@@std@@AEAAPEAV?$basic_json@Vmap@std@@Vvector@2@V?$basic_string@DU?$char_traits@D@std@@V?$allocator@D@2@@2@_N_J_KNVallocator@2@Uadl_serializer@nlohmann@@V?$vector@EV?$allocator@E@std@@@2@@nlohmann@@QEAV23@AEAN@Z
	??$_Emplace_reallocate@AEAUElement@io@easy3d@@@?$vector@UElement@io@easy3d@@V?$allocator@UElement@io@easy3d@@@std@@@std@@AEAAPEAUElement@io@easy3d@@QEAU234@AEAU234@@Z
	??$_Emplace_reallocate@AEAV?$GenericProperty@V?$vector@HV?$allocator@H@std@@@std@@@io@easy3d@@@?$vector@V?$GenericProperty@V?$vector@HV?$allocator@H@std@@@std@@@io@easy3d@@V?$allocator@V?$GenericProperty@V?$vector@HV?$allocator@H@std@@@std@@@io@easy3d@@@std@@@std@@AEAAPEAV?$GenericProperty@V?$vector@HV?$allocator@H@std@@@std@@@io@easy3d@@QEAV234@AEAV234@@Z
	??$_Emplace_reallocate@AEAV?$basic_string@DU?$char_traits@D@std@@V?$allocator@D@2@@std@@@?$vector@V?$basic_json@Vmap@std@@Vvector@2@V?$basic_string@DU?$char_traits@D@std@@V?$allocator@D@2@@2@_N_J_KNVallocator@2@Uadl_serializer@nlohmann@@V?$vector@EV?$allocator@E@std@@@2@@nlohmann@@V?$allocator@V?$basic_json@Vmap@std@@Vvector@2@V?$basic_string@DU?$char_traits@D@std@@V?$allocator@D@2@@2@_N_J_KNVallocator@2@Uadl_serializer@nlohmann@@V?$vector@EV?$allocator@E@std@@@2@@nlohmann@@@std@@@std@@AEAAPEAV?$basic_json@Vmap@std@@Vvector@2@V?$basic_string@DU?$char_traits@D@std@@V?$allocator@D@2@@2@_N_J_KNVallocator@2@Uadl_serializer@nlohmann@@V?$vector@EV?$allocator@E@std@@@2@@nlohmann@@QEAV23@AEAV?$basic_string@DU?$char_traits@D@std@@V?$allocator@D@2@@1@@Z
	??$_Emplace_reallocate@AEA_J@?$vector@V?$basic_json@Vmap@std@@Vvector@2@V?$basic_string@DU?$char_traits@D@std@@V?$allocator@D@2@@2@_N_J_KNVallocator@2@Uadl_serializer@nlohmann@@V?$vector@EV?$allocator@E@std@@@2@@nlohmann@@V?$allocator@V?$basic_json@Vmap@std@@Vvector@2@V?$basic_string@DU?$char_traits@D@std@@V?$allocator@D@2@@2@_N_J_KNVallocator@2@Uadl_serializer@nlohmann@@V?$vector@EV?$allocator@E@std@@@2@@nlohmann@@@std@@@std@@AEAAPEAV?$basic_json@Vmap@std@@Vvector@2@V?$basic_string@DU?$char_traits@D@std@@V?$allocator@D@2@@2@_N_J_KNVallocator@2@Uadl_serializer@nlohmann@@V?$vector@EV?$allocator@E@std@@@2@@nlohmann@@QEAV23@AEA_J@Z
	??$_Emplace_reallocate@AEA_K@?$vector@V?$basic_json@Vmap@std@@Vvector@2@V?$basic_string@DU?$char_traits@D@std@@V?$allocator@D@2@@2@_N_J_KNVallocator@2@Uadl_serializer@nlohmann@@V?$vector@EV?$allocator@E@std@@@2@@nlohmann@@V?$allocator@V?$basic_json@Vmap@std@@Vvector@2@V?$basic_string@DU?$char_traits@D@std@@V?$allocator@D@2@@2@_N_J_KNVallocator@2@Uadl_serializer@nlohmann@@V?$vector@EV?$allocator@E@std@@@2@@nlohmann@@@std@@@std@@AEAAPEAV?$basic_json@Vmap@std@@Vvector@2@V?$basic_string@DU?$char_traits@D@std@@V?$allocator@D@2@@2@_N_J_KNVallocator@2@Uadl_serializer@nlohmann@@V?$vector@EV?$allocator@E@std@@@2@@nlohmann@@QEAV23@AEA_K@Z
	??$_Emplace_reallocate@AEA_N@?$vector@V?$basic_json@Vmap@std@@Vvector@2@V?$basic_string@DU?$char_traits@D@std@@V?$allocator@D@2@@2@_N_J_KNVallocator@2@Uadl_serializer@nlohmann@@V?$vector@EV?$allocator@E@std@@@2@@nlohmann@@V?$allocator@V?$basic_json@Vmap@std@@Vvector@2@V?$basic_string@DU?$char_traits@D@std@@V?$allocator@D@2@@2@_N_J_KNVallocator@2@Uadl_serializer@nlohmann@@V?$vector@EV?$allocator@E@std@@@2@@nlohmann@@@std@@@std@@AEAAPEAV?$basic_json@Vmap@std@@Vvector@2@V?$basic_string@DU?$char_traits@D@std@@V?$allocator@D@2@@2@_N_J_KNVallocator@2@Uadl_serializer@nlohmann@@V?$vector@EV?$allocator@E@std@@@2@@nlohmann@@QEAV23@AEA_N@Z
	??$_Emplace_reallocate@AEBH@?$vector@HV?$allocator@H@std@@@std@@AEAAPEAHQEAHAEBH@Z
	??$_Emplace_reallocate@AEBH@?$vector@UVertex@SurfaceMesh@easy3d@@V?$allocator@UVertex@SurfaceMesh@easy3d@@@std@@@std@@AEAAPEAUVertex@SurfaceMesh@easy3d@@QEAU234@AEBH@Z
	??$_Emplace_reallocate@AEBI@?$vector@IV?$allocator@I@std@@@std@@AEAAPEAIQEAIAEBI@Z
	??$_Emplace_reallocate@AEBM@?$vector@MV?$allocator@M@std@@@std@@AEAAPEAMQEAMAEBM@Z
	??$_Emplace_reallocate@AEBN@?$vector@NV?$allocator@N@std@@@std@@AEAAPEANQEANAEBN@Z
	??$_Emplace_reallocate@AEBQEAUListProperty@PlyReader@io@easy3d@@@?$vector@PEAUListProperty@PlyReader@io@easy3d@@V?$allocator@PEAUListProperty@PlyReader@io@easy3d@@@std@@@std@@AEAAPEAPEAUListProperty@PlyReader@io@easy3d@@QEAPEAU2345@AEBQEAU2345@@Z
	??$_Emplace_reallocate@AEBQEAUValueProperty@PlyReader@io@easy3d@@@?$vector@PEAUValueProperty@PlyReader@io@easy3d@@V?$allocator@PEAUValueProperty@PlyReader@io@easy3d@@@std@@@std@@AEAAPEAPEAUValueProperty@PlyReader@io@easy3d@@QEAPEAU2345@AEBQEAU2345@@Z
	??$_Emplace_reallocate@AEBQEAV?$basic_json@Vmap@std@@Vvector@2@V?$basic_string@DU?$char_traits@D@std@@V?$allocator@D@2@@2@_N_J_KNVallocator@2@Uadl_serializer@nlohmann@@V?$vector@EV?$allocator@E@std@@@2@@nlohmann@@@?$vector@PEAV?$basic_json@Vmap@std@@Vvector@2@V?$basic_string@DU?$char_traits@D@std@@V?$allocator@D@2@@2@_N_J_KNVallocator@2@Uadl_serializer@nlohmann@@V?$vector@EV?$allocator@E@std@@@2@@nlohmann@@V?$allocator@PEAV?$basic_json@Vmap@std@@Vvector@2@V?$basic_string@DU?$char_traits@D@std@@V?$allocator@D@2@@2@_N_J_KNVallocator@2@Uadl_serializer@nlohmann@@V?$vector@EV?$allocator@E@std@@@2@@nlohmann@@@std@@@std@@AEAAPEAPEAV?$basic_json@Vmap@std@@Vvector@2@V?$basic_string@DU?$char_traits@D@std@@V?$allocator@D@2@@2@_N_J_KNVallocator@2@Uadl_serializer@nlohmann@@V?$vector@EV?$allocator@E@std@@@2@@nlohmann@@QEAPEAV23@AEBQEAV23@@Z
	??$_Emplace_reallocate@AEBUCellConnectivity@PolyMesh@easy3d@@@?$vector@UCellConnectivity@PolyMesh@easy3d@@V?$allocator@UCellConnectivity@PolyMesh@easy3d@@@std@@@std@@AEAAPEAUCellConnectivity@PolyMesh@easy3d@@QEAU234@AEBU234@@Z
	??$_Emplace_reallocate@AEBUEdgeConnectivity@PolyMesh@easy3d@@@?$vector@UEdgeConnectivity@PolyMesh@easy3d@@V?$allocator@UEdgeConnectivity@PolyMesh@easy3d@@@std@@@std@@AEAAPEAUEdgeConnectivity@PolyMesh@easy3d@@QEAU234@AEBU234@@Z
	??$_Emplace_reallocate@AEBUElement@io@easy3d@@@?$vector@UElement@io@easy3d@@V?$allocator@UElement@io@easy3d@@@std@@@std@@AEAAPEAUElement@io@easy3d@@QEAU234@AEBU234@@Z
	??$_Emplace_reallocate@AEBUFace@SurfaceMesh@easy3d@@@?$vector@UFace@SurfaceMesh@easy3d@@V?$allocator@UFace@SurfaceMesh@easy3d@@@std@@@std@@AEAAPEAUFace@SurfaceMesh@easy3d@@QEAU234@AEBU234@@Z
	??$_Emplace_reallocate@AEBUFaceConnectivity@SurfaceMesh@easy3d@@@?$vector@UFaceConnectivity@SurfaceMesh@easy3d@@V?$allocator@UFaceConnectivity@SurfaceMesh@easy3d@@@std@@@std@@AEAAPEAUFaceConnectivity@SurfaceMesh@easy3d@@QEAU234@AEBU234@@Z
	??$_Emplace_reallocate@AEBUHalfFaceConnectivity@PolyMesh@easy3d@@@?$vector@UHalfFaceConnectivity@PolyMesh@easy3d@@V?$allocator@UHalfFaceConnectivity@PolyMesh@easy3d@@@std@@@std@@AEAAPEAUHalfFaceConnectivity@PolyMesh@easy3d@@QEAU234@AEBU234@@Z
	??$_Emplace_reallocate@AEBUHalfedgeConnectivity@SurfaceMesh@easy3d@@@?$vector@UHalfedgeConnectivity@SurfaceMesh@easy3d@@V?$allocator@UHalfedgeConnectivity@SurfaceMesh@easy3d@@@std@@@std@@AEAAPEAUHalfedgeConnectivity@SurfaceMesh@easy3d@@QEAU234@AEBU234@@Z
	??$_Emplace_reallocate@AEBUVertex@PolyMesh@easy3d@@@?$vector@UVertex@PolyMesh@easy3d@@V?$allocator@UVertex@PolyMesh@easy3d@@@std@@@std@@AEAAPEAUVertex@PolyMesh@easy3d@@QEAU234@AEBU234@@Z
	??$_Emplace_reallocate@AEBUVertex@SurfaceMesh@easy3d@@@?$vector@UVertex@SurfaceMesh@easy3d@@V?$allocator@UVertex@SurfaceMesh@easy3d@@@std@@@std@@AEAAPEAUVertex@SurfaceMesh@easy3d@@QEAU234@AEBU234@@Z
	??$_Emplace_reallocate@AEBUVertexConnectivity@PolyMesh@easy3d@@@?$vector@UVertexConnectivity@PolyMesh@easy3d@@V?$allocator@UVertexConnectivity@PolyMesh@easy3d@@@std@@@std@@AEAAPEAUVertexConnectivity@PolyMesh@easy3d@@QEAU234@AEBU234@@Z
	??$_Emplace_reallocate@AEBUVertexConnectivity@SurfaceMesh@easy3d@@@?$vector@UVertexConnectivity@SurfaceMesh@easy3d@@V?$allocator@UVertexConnectivity@SurfaceMesh@easy3d@@@std@@@std@@AEAAPEAUVertexConnectivity@SurfaceMesh@easy3d@@QEAU234@AEBU234@@Z
	??$_Emplace_reallocate@AEBU__line_t@tinyobj@@@?$vector@U__line_t@tinyobj@@V?$allocator@U__line_t@tinyobj@@@std@@@std@@AEAAPEAU__line_t@tinyobj@@QEAU23@AEBU23@@Z
	??$_Emplace_reallocate@AEBU__points_t@tinyobj@@@?$vector@U__points_t@tinyobj@@V?$allocator@U__points_t@tinyobj@@@std@@@std@@AEAAPEAU__points_t@tinyobj@@QEAU23@AEBU23@@Z
	??$_Emplace_reallocate@AEBUface_t@tinyobj@@@?$vector@Uface_t@tinyobj@@V?$allocator@Uface_t@tinyobj@@@std@@@std@@AEAAPEAUface_t@tinyobj@@QEAU23@AEBU23@@Z
	??$_Emplace_reallocate@AEBUindex_t@tinyobj@@@?$vector@Uindex_t@tinyobj@@V?$allocator@Uindex_t@tinyobj@@@std@@@std@@AEAAPEAUindex_t@tinyobj@@QEAU23@AEBU23@@Z
	??$_Emplace_reallocate@AEBUjoint_and_weight_t@tinyobj@@@?$vector@Ujoint_and_weight_t@tinyobj@@V?$allocator@Ujoint_and_weight_t@tinyobj@@@std@@@std@@AEAAPEAUjoint_and_weight_t@tinyobj@@QEAU23@AEBU23@@Z
	??$_Emplace_reallocate@AEBUmaterial_t@tinyobj@@@?$vector@Umaterial_t@tinyobj@@V?$allocator@Umaterial_t@tinyobj@@@std@@@std@@AEAAPEAUmaterial_t@tinyobj@@QEAU23@AEBU23@@Z
	??$_Emplace_reallocate@AEBUshape_t@tinyobj@@@?$vector@Ushape_t@tinyobj@@V?$allocator@Ushape_t@tinyobj@@@std@@@std@@AEAAPEAUshape_t@tinyobj@@QEAU23@AEBU23@@Z
	??$_Emplace_reallocate@AEBUskin_weight_t@tinyobj@@@?$vector@Uskin_weight_t@tinyobj@@V?$allocator@Uskin_weight_t@tinyobj@@@std@@@std@@AEAAPEAUskin_weight_t@tinyobj@@QEAU23@AEBU23@@Z
	??$_Emplace_reallocate@AEBUtag_t@tinyobj@@@?$vector@Utag_t@tinyobj@@V?$allocator@Utag_t@tinyobj@@@std@@@std@@AEAAPEAUtag_t@tinyobj@@QEAU23@AEBU23@@Z
	??$_Emplace_reallocate@AEBUvertex_index_t@tinyobj@@@?$vector@Uvertex_index_t@tinyobj@@V?$allocator@Uvertex_index_t@tinyobj@@@std@@@std@@AEAAPEAUvertex_index_t@tinyobj@@QEAU23@AEBU23@@Z
	??$_Emplace_reallocate@AEBV?$GenericProperty@H@io@easy3d@@@?$vector@V?$GenericProperty@H@io@easy3d@@V?$allocator@V?$GenericProperty@H@io@easy3d@@@std@@@std@@AEAAPEAV?$GenericProperty@H@io@easy3d@@QEAV234@AEBV234@@Z
	??$_Emplace_reallocate@AEBV?$GenericProperty@M@io@easy3d@@@?$vector@V?$GenericProperty@M@io@easy3d@@V?$allocator@V?$GenericProperty@M@io@easy3d@@@std@@@std@@AEAAPEAV?$GenericProperty@M@io@easy3d@@QEAV234@AEBV234@@Z
	??$_Emplace_reallocate@AEBV?$GenericProperty@V?$Vec@$01M@easy3d@@@io@easy3d@@@?$vector@V?$GenericProperty@V?$Vec@$01M@easy3d@@@io@easy3d@@V?$allocator@V?$GenericProperty@V?$Vec@$01M@easy3d@@@io@easy3d@@@std@@@std@@AEAAPEAV?$GenericProperty@V?$Vec@$01M@easy3d@@@io@easy3d@@QEAV234@AEBV234@@Z
	??$_Emplace_reallocate@AEBV?$GenericProperty@V?$Vec@$02M@easy3d@@@io@easy3d@@@?$vector@V?$GenericProperty@V?$Vec@$02M@easy3d@@@io@easy3d@@V?$allocator@V?$GenericProperty@V?$Vec@$02M@easy3d@@@io@easy3d@@@std@@@std@@AEAAPEAV?$GenericProperty@V?$Vec@$02M@easy3d@@@io@easy3d@@QEAV234@AEBV234@@Z
	??$_Emplace_reallocate@AEBV?$GenericProperty@V?$vector@HV?$allocator@H@std@@@std@@@io@easy3d@@@?$vector@V?$GenericProperty@V?$vector@HV?$allocator@H@std@@@std@@@io@easy3d@@V?$allocator@V?$GenericProperty@V?$vector@HV?$allocator@H@std@@@std@@@io@easy3d@@@std@@@std@@AEAAPEAV?$GenericProperty@V?$vector@HV?$allocator@H@std@@@std@@@io@easy3d@@QEAV234@AEBV234@@Z
	??$_Emplace_reallocate@AEBV?$GenericProperty@V?$vector@MV?$allocator@M@std@@@std@@@io@easy3d@@@?$vector@V?$GenericProperty@V?$vector@MV?$allocator@M@std@@@std@@@io@easy3d@@V?$allocator@V?$GenericProperty@V?$vector@MV?$allocator@M@std@@@std@@@io@easy3d@@@std@@@std@@AEAAPEAV?$GenericProperty@V?$vector@MV?$allocator@M@std@@@std@@@io@easy3d@@QEAV234@AEBV234@@Z
	??$_Emplace_reallocate@AEBV?$Vec@$01M@easy3d@@@?$vector@V?$Vec@$01M@easy3d@@V?$allocator@V?$Vec@$01M@easy3d@@@std@@@std@@AEAAPEAV?$Vec@$01M@easy3d@@QEAV23@AEBV23@@Z
	??$_Emplace_reallocate@AEBV?$Vec@$02M@easy3d@@@?$vector@V?$Vec@$02M@easy3d@@V?$allocator@V?$Vec@$02M@easy3d@@@std@@@std@@AEAAPEAV?$Vec@$02M@easy3d@@QEAV23@AEBV23@@Z
	??$_Emplace_reallocate@AEBV?$Vec@$02N@easy3d@@@?$vector@V?$Vec@$02N@easy3d@@V?$allocator@V?$Vec@$02N@easy3d@@@std@@@std@@AEAAPEAV?$Vec@$02N@easy3d@@QEAV23@AEBV23@@Z
	??$_Emplace_reallocate@AEBV?$basic_string@DU?$char_traits@D@std@@V?$allocator@D@2@@std@@@?$vector@V?$basic_string@DU?$char_traits@D@std@@V?$allocator@D@2@@std@@V?$allocator@V?$basic_string@DU?$char_traits@D@std@@V?$allocator@D@2@@std@@@2@@std@@AEAAPEAV?$basic_string@DU?$char_traits@D@std@@V?$allocator@D@2@@1@QEAV21@AEBV21@@Z
	??$_Emplace_reallocate@AEBV?$vector@HV?$allocator@H@std@@@std@@@?$vector@V?$vector@HV?$allocator@H@std@@@std@@V?$allocator@V?$vector@HV?$allocator@H@std@@@std@@@2@@std@@AEAAPEAV?$vector@HV?$allocator@H@std@@@1@QEAV21@AEBV21@@Z
	??$_Emplace_reallocate@AEBV?$vector@MV?$allocator@M@std@@@std@@@?$vector@V?$vector@MV?$allocator@M@std@@@std@@V?$allocator@V?$vector@MV?$allocator@M@std@@@std@@@2@@std@@AEAAPEAV?$vector@MV?$allocator@M@std@@@1@QEAV21@AEBV21@@Z
	??$_Emplace_reallocate@AEBV?$vector@V?$Vec@$02N@easy3d@@V?$allocator@V?$Vec@$02N@easy3d@@@std@@@std@@@?$vector@V?$vector@V?$Vec@$02N@easy3d@@V?$allocator@V?$Vec@$02N@easy3d@@@std@@@std@@V?$allocator@V?$vector@V?$Vec@$02N@easy3d@@V?$allocator@V?$Vec@$02N@easy3d@@@std@@@std@@@2@@std@@AEAAPEAV?$vector@V?$Vec@$02N@easy3d@@V?$allocator@V?$Vec@$02N@easy3d@@@std@@@1@QEAV21@AEBV21@@Z
	??$_Emplace_reallocate@AEBVVertexGroup@PointCloudIO_vg@io@easy3d@@@?$vector@VVertexGroup@PointCloudIO_vg@io@easy3d@@V?$allocator@VVertexGroup@PointCloudIO_vg@io@easy3d@@@std@@@std@@AEAAPEAVVertexGroup@PointCloudIO_vg@io@easy3d@@QEAV2345@AEBV2345@@Z
	??$_Emplace_reallocate@D@?$vector@DV?$allocator@D@std@@@std@@AEAAPEADQEAD$$QEAD@Z
	??$_Emplace_reallocate@H@?$vector@HV?$allocator@H@std@@@std@@AEAAPEAHQEAH$$QEAH@Z
	??$_Emplace_reallocate@I@?$vector@IV?$allocator@I@std@@@std@@AEAAPEAIQEAI$$QEAI@Z
	??$_Emplace_reallocate@N@?$vector@NV?$allocator@N@std@@@std@@AEAAPEANQEAN$$QEAN@Z
	??$_Emplace_reallocate@PEAV?$basic_json@Vmap@std@@Vvector@2@V?$basic_string@DU?$char_traits@D@std@@V?$allocator@D@2@@2@_N_J_KNVallocator@2@Uadl_serializer@nlohmann@@V?$vector@EV?$allocator@E@std@@@2@@nlohmann@@@?$vector@PEAV?$basic_json@Vmap@std@@Vvector@2@V?$basic_string@DU?$char_traits@D@std@@V?$allocator@D@2@@2@_N_J_KNVallocator@2@Uadl_serializer@nlohmann@@V?$vector@EV?$allocator@E@std@@@2@@nlohmann@@V?$allocator@PEAV?$basic_json@Vmap@std@@Vvector@2@V?$basic_string@DU?$char_traits@D@std@@V?$allocator@D@2@@2@_N_J_KNVallocator@2@Uadl_serializer@nlohmann@@V?$vector@EV?$allocator@E@std@@@2@@nlohmann@@@std@@@std@@AEAAPEAPEAV?$basic_json@Vmap@std@@Vvector@2@V?$basic_string@DU?$char_traits@D@std@@V?$allocator@D@2@@2@_N_J_KNVallocator@2@Uadl_serializer@nlohmann@@V?$vector@EV?$allocator@E@std@@@2@@nlohmann@@QEAPEAV23@$$QEAPEAV23@@Z
	??$_Emplace_reallocate@PEAVBasePropertyArray@easy3d@@@?$vector@PEAVBasePropertyArray@easy3d@@V?$allocator@PEAVBasePropertyArray@easy3d@@@std@@@std@@AEAAPEAPEAVBasePropertyArray@easy3d@@QEAPEAV23@$$QEAPEAV23@@Z
	??$_Emplace_reallocate@UElement@io@easy3d@@@?$vector@UElement@io@easy3d@@V?$allocator@UElement@io@easy3d@@@std@@@std@@AEAAPEAUElement@io@easy3d@@QEAU234@$$QEAU234@@Z
	??$_Emplace_reallocate@UVertex@SurfaceMesh@easy3d@@@?$vector@UVertex@SurfaceMesh@easy3d@@V?$allocator@UVertex@SurfaceMesh@easy3d@@@std@@@std@@AEAAPEAUVertex@SurfaceMesh@easy3d@@QEAU234@$$QEAU234@@Z
	??$_Emplace_reallocate@V?$GenericProperty@H@io@easy3d@@@?$vector@V?$GenericProperty@H@io@easy3d@@V?$allocator@V?$GenericProperty@H@io@easy3d@@@std@@@std@@AEAAPEAV?$GenericProperty@H@io@easy3d@@QEAV234@$$QEAV234@@Z
	??$_Emplace_reallocate@V?$GenericProperty@M@io@easy3d@@@?$vector@V?$GenericProperty@M@io@easy3d@@V?$allocator@V?$GenericProperty@M@io@easy3d@@@std@@@std@@AEAAPEAV?$GenericProperty@M@io@easy3d@@QEAV234@$$QEAV234@@Z
	??$_Emplace_reallocate@V?$GenericProperty@V?$Vec@$01M@easy3d@@@io@easy3d@@@?$vector@V?$GenericProperty@V?$Vec@$01M@easy3d@@@io@easy3d@@V?$allocator@V?$GenericProperty@V?$Vec@$01M@easy3d@@@io@easy3d@@@std@@@std@@AEAAPEAV?$GenericProperty@V?$Vec@$01M@easy3d@@@io@easy3d@@QEAV234@$$QEAV234@@Z
	??$_Emplace_reallocate@V?$GenericProperty@V?$Vec@$02M@easy3d@@@io@easy3d@@@?$vector@V?$GenericProperty@V?$Vec@$02M@easy3d@@@io@easy3d@@V?$allocator@V?$GenericProperty@V?$Vec@$02M@easy3d@@@io@easy3d@@@std@@@std@@AEAAPEAV?$GenericProperty@V?$Vec@$02M@easy3d@@@io@easy3d@@QEAV234@$$QEAV234@@Z
	??$_Emplace_reallocate@V?$GenericProperty@V?$vector@HV?$allocator@H@std@@@std@@@io@easy3d@@@?$vector@V?$GenericProperty@V?$vector@HV?$allocator@H@std@@@std@@@io@easy3d@@V?$allocator@V?$GenericProperty@V?$vector@HV?$allocator@H@std@@@std@@@io@easy3d@@@std@@@std@@AEAAPEAV?$GenericProperty@V?$vector@HV?$allocator@H@std@@@std@@@io@easy3d@@QEAV234@$$QEAV234@@Z
	??$_Emplace_reallocate@V?$GenericProperty@V?$vector@MV?$allocator@M@std@@@std@@@io@easy3d@@@?$vector@V?$GenericProperty@V?$vector@MV?$allocator@M@std@@@std@@@io@easy3d@@V?$allocator@V?$GenericProperty@V?$vector@MV?$allocator@M@std@@@std@@@io@easy3d@@@std@@@std@@AEAAPEAV?$GenericProperty@V?$vector@MV?$allocator@M@std@@@std@@@io@easy3d@@QEAV234@$$QEAV234@@Z
	??$_Emplace_reallocate@V?$Vec@$01M@easy3d@@@?$vector@V?$Vec@$01M@easy3d@@V?$allocator@V?$Vec@$01M@easy3d@@@std@@@std@@AEAAPEAV?$Vec@$01M@easy3d@@QEAV23@$$QEAV23@@Z
	??$_Emplace_reallocate@V?$Vec@$02N@easy3d@@@?$vector@V?$Vec@$02N@easy3d@@V?$allocator@V?$Vec@$02N@easy3d@@@std@@@std@@AEAAPEAV?$Vec@$02N@easy3d@@QEAV23@$$QEAV23@@Z
	??$_Emplace_reallocate@V?$basic_json@Vmap@std@@Vvector@2@V?$basic_string@DU?$char_traits@D@std@@V?$allocator@D@2@@2@_N_J_KNVallocator@2@Uadl_serializer@nlohmann@@V?$vector@EV?$allocator@E@std@@@2@@nlohmann@@@?$vector@V?$basic_json@Vmap@std@@Vvector@2@V?$basic_string@DU?$char_traits@D@std@@V?$allocator@D@2@@2@_N_J_KNVallocator@2@Uadl_serializer@nlohmann@@V?$vector@EV?$allocator@E@std@@@2@@nlohmann@@V?$allocator@V?$basic_json@Vmap@std@@Vvector@2@V?$basic_string@DU?$char_traits@D@std@@V?$allocator@D@2@@2@_N_J_KNVallocator@2@Uadl_serializer@nlohmann@@V?$vector@EV?$allocator@E@std@@@2@@nlohmann@@@std@@@std@@AEAAPEAV?$basic_json@Vmap@std@@Vvector@2@V?$basic_string@DU?$char_traits@D@std@@V?$allocator@D@2@@2@_N_J_KNVallocator@2@Uadl_serializer@nlohmann@@V?$vector@EV?$allocator@E@std@@@2@@nlohmann@@QEAV23@$$QEAV23@@Z
	??$_Emplace_reallocate@V?$vector@HV?$allocator@H@std@@@std@@@?$vector@V?$vector@HV?$allocator@H@std@@@std@@V?$allocator@V?$vector@HV?$allocator@H@std@@@std@@@2@@std@@AEAAPEAV?$vector@HV?$allocator@H@std@@@1@QEAV21@$$QEAV21@@Z
	??$_Emplace_reallocate@W4value_t@detail@nlohmann@@@?$vector@V?$basic_json@Vmap@std@@Vvector@2@V?$basic_string@DU?$char_traits@D@std@@V?$allocator@D@2@@2@_N_J_KNVallocator@2@Uadl_serializer@nlohmann@@V?$vector@EV?$allocator@E@std@@@2@@nlohmann@@V?$allocator@V?$basic_json@Vmap@std@@Vvector@2@V?$basic_string@DU?$char_traits@D@std@@V?$allocator@D@2@@2@_N_J_KNVallocator@2@Uadl_serializer@nlohmann@@V?$vector@EV?$allocator@E@std@@@2@@nlohmann@@@std@@@std@@AEAAPEAV?$basic_json@Vmap@std@@Vvector@2@V?$basic_string@DU?$char_traits@D@std@@V?$allocator@D@2@@2@_N_J_KNVallocator@2@Uadl_serializer@nlohmann@@V?$vector@EV?$allocator@E@std@@@2@@nlohmann@@QEAV23@$$QEAW4value_t@detail@3@@Z
	??$_Erase_head@V?$allocator@U?$_Tree_node@UCell@PolyMesh@easy3d@@PEAX@std@@@std@@@?$_Tree_val@U?$_Tree_simple_types@UCell@PolyMesh@easy3d@@@std@@@std@@QEAAXAEAV?$allocator@U?$_Tree_node@UCell@PolyMesh@easy3d@@PEAX@std@@@1@@Z
	??$_Erase_head@V?$allocator@U?$_Tree_node@UEdge@PolyMesh@easy3d@@PEAX@std@@@std@@@?$_Tree_val@U?$_Tree_simple_types@UEdge@PolyMesh@easy3d@@@std@@@std@@QEAAXAEAV?$allocator@U?$_Tree_node@UEdge@PolyMesh@easy3d@@PEAX@std@@@1@@Z
	??$_Erase_head@V?$allocator@U?$_Tree_node@UHalfFace@PolyMesh@easy3d@@PEAX@std@@@std@@@?$_Tree_val@U?$_Tree_simple_types@UHalfFace@PolyMesh@easy3d@@@std@@@std@@QEAAXAEAV?$allocator@U?$_Tree_node@UHalfFace@PolyMesh@easy3d@@PEAX@std@@@1@@Z
	??$_Erase_head@V?$allocator@U?$_Tree_node@UVertex@PolyMesh@easy3d@@PEAX@std@@@std@@@?$_Tree_val@U?$_Tree_simple_types@UVertex@PolyMesh@easy3d@@@std@@@std@@QEAAXAEAV?$allocator@U?$_Tree_node@UVertex@PolyMesh@easy3d@@PEAX@std@@@1@@Z
	??$_Erase_tree@V?$allocator@U?$_Tree_node@U?$pair@$$CBV?$Vec@$02M@easy3d@@UVertex@SurfaceMesh@2@@std@@PEAX@std@@@std@@@?$_Tree_val@U?$_Tree_simple_types@U?$pair@$$CBV?$Vec@$02M@easy3d@@UVertex@SurfaceMesh@2@@std@@@std@@@std@@QEAAXAEAV?$allocator@U?$_Tree_node@U?$pair@$$CBV?$Vec@$02M@easy3d@@UVertex@SurfaceMesh@2@@std@@PEAX@std@@@1@PEAU?$_Tree_node@U?$pair@$$CBV?$Vec@$02M@easy3d@@UVertex@SurfaceMesh@2@@std@@PEAX@1@@Z
	??$_Erase_tree@V?$allocator@U?$_Tree_node@U?$pair@$$CBV?$basic_string@DU?$char_traits@D@std@@V?$allocator@D@2@@std@@H@std@@PEAX@std@@@std@@@?$_Tree_val@U?$_Tree_simple_types@U?$pair@$$CBV?$basic_string@DU?$char_traits@D@std@@V?$allocator@D@2@@std@@H@std@@@std@@@std@@QEAAXAEAV?$allocator@U?$_Tree_node@U?$pair@$$CBV?$basic_string@DU?$char_traits@D@std@@V?$allocator@D@2@@std@@H@std@@PEAX@std@@@1@PEAU?$_Tree_node@U?$pair@$$CBV?$basic_string@DU?$char_traits@D@std@@V?$allocator@D@2@@std@@H@std@@PEAX@1@@Z
	??$_Erase_tree@V?$allocator@U?$_Tree_node@U?$pair@$$CBV?$basic_string@DU?$char_traits@D@std@@V?$allocator@D@2@@std@@V12@@std@@PEAX@std@@@std@@@?$_Tree_val@U?$_Tree_simple_types@U?$pair@$$CBV?$basic_string@DU?$char_traits@D@std@@V?$allocator@D@2@@std@@V12@@std@@@std@@@std@@QEAAXAEAV?$allocator@U?$_Tree_node@U?$pair@$$CBV?$basic_string@DU?$char_traits@D@std@@V?$allocator@D@2@@std@@V12@@std@@PEAX@std@@@1@PEAU?$_Tree_node@U?$pair@$$CBV?$basic_string@DU?$char_traits@D@std@@V?$allocator@D@2@@std@@V12@@std@@PEAX@1@@Z
	??$_Erase_tree@V?$allocator@U?$_Tree_node@U?$pair@$$CBV?$basic_string@DU?$char_traits@D@std@@V?$allocator@D@2@@std@@V?$basic_json@Vmap@std@@Vvector@2@V?$basic_string@DU?$char_traits@D@std@@V?$allocator@D@2@@2@_N_J_KNVallocator@2@Uadl_serializer@nlohmann@@V?$vector@EV?$allocator@E@std@@@2@@nlohmann@@@std@@PEAX@std@@@std@@@?$_Tree_val@U?$_Tree_simple_types@U?$pair@$$CBV?$basic_string@DU?$char_traits@D@std@@V?$allocator@D@2@@std@@V?$basic_json@Vmap@std@@Vvector@2@V?$basic_string@DU?$char_traits@D@std@@V?$allocator@D@2@@2@_N_J_KNVallocator@2@Uadl_serializer@nlohmann@@V?$vector@EV?$allocator@E@std@@@2@@nlohmann@@@std@@@std@@@std@@QEAAXAEAV?$allocator@U?$_Tree_node@U?$pair@$$CBV?$basic_string@DU?$char_traits@D@std@@V?$allocator@D@2@@std@@V?$basic_json@Vmap@std@@Vvector@2@V?$basic_string@DU?$char_traits@D@std@@V?$allocator@D@2@@2@_N_J_KNVallocator@2@Uadl_serializer@nlohmann@@V?$vector@EV?$allocator@E@std@@@2@@nlohmann@@@std@@PEAX@std@@@1@PEAU?$_Tree_node@U?$pair@$$CBV?$basic_string@DU?$char_traits@D@std@@V?$allocator@D@2@@std@@V?$basic_json@Vmap@std@@Vvector@2@V?$basic_string@DU?$char_traits@D@std@@V?$allocator@D@2@@2@_N_J_KNVallocator@2@Uadl_serializer@nlohmann@@V?$vector@EV?$allocator@E@std@@@2@@nlohmann@@@std@@PEAX@1@@Z
	??$_Erase_tree@V?$allocator@U?$_Tree_node@UCell@PolyMesh@easy3d@@PEAX@std@@@std@@@?$_Tree_val@U?$_Tree_simple_types@UCell@PolyMesh@easy3d@@@std@@@std@@QEAAXAEAV?$allocator@U?$_Tree_node@UCell@PolyMesh@easy3d@@PEAX@std@@@1@PEAU?$_Tree_node@UCell@PolyMesh@easy3d@@PEAX@1@@Z
	??$_Erase_tree@V?$allocator@U?$_Tree_node@UEdge@PolyMesh@easy3d@@PEAX@std@@@std@@@?$_Tree_val@U?$_Tree_simple_types@UEdge@PolyMesh@easy3d@@@std@@@std@@QEAAXAEAV?$allocator@U?$_Tree_node@UEdge@PolyMesh@easy3d@@PEAX@std@@@1@PEAU?$_Tree_node@UEdge@PolyMesh@easy3d@@PEAX@1@@Z
	??$_Erase_tree@V?$allocator@U?$_Tree_node@UHalfFace@PolyMesh@easy3d@@PEAX@std@@@std@@@?$_Tree_val@U?$_Tree_simple_types@UHalfFace@PolyMesh@easy3d@@@std@@@std@@QEAAXAEAV?$allocator@U?$_Tree_node@UHalfFace@PolyMesh@easy3d@@PEAX@std@@@1@PEAU?$_Tree_node@UHalfFace@PolyMesh@easy3d@@PEAX@1@@Z
	??$_Erase_tree@V?$allocator@U?$_Tree_node@UVertex@PolyMesh@easy3d@@PEAX@std@@@std@@@?$_Tree_val@U?$_Tree_simple_types@UVertex@PolyMesh@easy3d@@@std@@@std@@QEAAXAEAV?$allocator@U?$_Tree_node@UVertex@PolyMesh@easy3d@@PEAX@std@@@1@PEAU?$_Tree_node@UVertex@PolyMesh@easy3d@@PEAX@1@@Z
	??$_Erase_tree@V?$allocator@U?$_Tree_node@V?$basic_string@DU?$char_traits@D@std@@V?$allocator@D@2@@std@@PEAX@std@@@std@@@?$_Tree_val@U?$_Tree_simple_types@V?$basic_string@DU?$char_traits@D@std@@V?$allocator@D@2@@std@@@std@@@std@@QEAAXAEAV?$allocator@U?$_Tree_node@V?$basic_string@DU?$char_traits@D@std@@V?$allocator@D@2@@std@@PEAX@std@@@1@PEAU?$_Tree_node@V?$basic_string@DU?$char_traits@D@std@@V?$allocator@D@2@@std@@PEAX@1@@Z
	??$_Erase_tree_and_orphan@V?$allocator@U?$_Tree_node@U?$pair@$$CBV?$basic_string@DU?$char_traits@D@std@@V?$allocator@D@2@@std@@V12@@std@@PEAX@std@@@std@@@?$_Tree_val@U?$_Tree_simple_types@U?$pair@$$CBV?$basic_string@DU?$char_traits@D@std@@V?$allocator@D@2@@std@@V12@@std@@@std@@@std@@QEAAXAEAV?$allocator@U?$_Tree_node@U?$pair@$$CBV?$basic_string@DU?$char_traits@D@std@@V?$allocator@D@2@@std@@V12@@std@@PEAX@std@@@1@PEAU?$_Tree_node@U?$pair@$$CBV?$basic_string@DU?$char_traits@D@std@@V?$allocator@D@2@@std@@V12@@std@@PEAX@1@@Z
	??$_Erase_tree_and_orphan@V?$allocator@U?$_Tree_node@U?$pair@$$CBV?$basic_string@DU?$char_traits@D@std@@V?$allocator@D@2@@std@@V?$basic_json@Vmap@std@@Vvector@2@V?$basic_string@DU?$char_traits@D@std@@V?$allocator@D@2@@2@_N_J_KNVallocator@2@Uadl_serializer@nlohmann@@V?$vector@EV?$allocator@E@std@@@2@@nlohmann@@@std@@PEAX@std@@@std@@@?$_Tree_val@U?$_Tree_simple_types@U?$pair@$$CBV?$basic_string@DU?$char_traits@D@std@@V?$allocator@D@2@@std@@V?$basic_json@Vmap@std@@Vvector@2@V?$basic_string@DU?$char_traits@D@std@@V?$allocator@D@2@@2@_N_J_KNVallocator@2@Uadl_serializer@nlohmann@@V?$vector@EV?$allocator@E@std@@@2@@nlohmann@@@std@@@std@@@std@@QEAAXAEAV?$allocator@U?$_Tree_node@U?$pair@$$CBV?$basic_string@DU?$char_traits@D@std@@V?$allocator@D@2@@std@@V?$basic_json@Vmap@std@@Vvector@2@V?$basic_string@DU?$char_traits@D@std@@V?$allocator@D@2@@2@_N_J_KNVallocator@2@Uadl_serializer@nlohmann@@V?$vector@EV?$allocator@E@std@@@2@@nlohmann@@@std@@PEAX@std@@@1@PEAU?$_Tree_node@U?$pair@$$CBV?$basic_string@DU?$char_traits@D@std@@V?$allocator@D@2@@std@@V?$basic_json@Vmap@std@@Vvector@2@V?$basic_string@DU?$char_traits@D@std@@V?$allocator@D@2@@2@_N_J_KNVallocator@2@Uadl_serializer@nlohmann@@V?$vector@EV?$allocator@E@std@@@2@@nlohmann@@@std@@PEAX@1@@Z
	??$_Erase_tree_and_orphan@V?$allocator@U?$_Tree_node@UCell@PolyMesh@easy3d@@PEAX@std@@@std@@@?$_Tree_val@U?$_Tree_simple_types@UCell@PolyMesh@easy3d@@@std@@@std@@QEAAXAEAV?$allocator@U?$_Tree_node@UCell@PolyMesh@easy3d@@PEAX@std@@@1@PEAU?$_Tree_node@UCell@PolyMesh@easy3d@@PEAX@1@@Z
	??$_Erase_tree_and_orphan@V?$allocator@U?$_Tree_node@UEdge@PolyMesh@easy3d@@PEAX@std@@@std@@@?$_Tree_val@U?$_Tree_simple_types@UEdge@PolyMesh@easy3d@@@std@@@std@@QEAAXAEAV?$allocator@U?$_Tree_node@UEdge@PolyMesh@easy3d@@PEAX@std@@@1@PEAU?$_Tree_node@UEdge@PolyMesh@easy3d@@PEAX@1@@Z
	??$_Erase_tree_and_orphan@V?$allocator@U?$_Tree_node@UHalfFace@PolyMesh@easy3d@@PEAX@std@@@std@@@?$_Tree_val@U?$_Tree_simple_types@UHalfFace@PolyMesh@easy3d@@@std@@@std@@QEAAXAEAV?$allocator@U?$_Tree_node@UHalfFace@PolyMesh@easy3d@@PEAX@std@@@1@PEAU?$_Tree_node@UHalfFace@PolyMesh@easy3d@@PEAX@1@@Z
	??$_Erase_tree_and_orphan@V?$allocator@U?$_Tree_node@UVertex@PolyMesh@easy3d@@PEAX@std@@@std@@@?$_Tree_val@U?$_Tree_simple_types@UVertex@PolyMesh@easy3d@@@std@@@std@@QEAAXAEAV?$allocator@U?$_Tree_node@UVertex@PolyMesh@easy3d@@PEAX@std@@@1@PEAU?$_Tree_node@UVertex@PolyMesh@easy3d@@PEAX@1@@Z
	??$_Fill_zero_memset@PEAH@std@@YAXPEAH_K@Z
	??$_Fill_zero_memset@PEAI@std@@YAXPEAI_K@Z
	??$_Fill_zero_memset@PEAM@std@@YAXPEAM_K@Z
	??$_Find_last@V?$basic_string@DU?$char_traits@D@std@@V?$allocator@D@2@@std@@@?$_Hash@V?$_Umap_traits@V?$basic_string@DU?$char_traits@D@std@@V?$allocator@D@2@@std@@PEAUElement@io@easy3d@@V?$_Uhash_compare@V?$basic_string@DU?$char_traits@D@std@@V?$allocator@D@2@@std@@U?$hash@V?$basic_string@DU?$char_traits@D@std@@V?$allocator@D@2@@std@@@2@U?$equal_to@V?$basic_string@DU?$char_traits@D@std@@V?$allocator@D@2@@std@@@2@@2@V?$allocator@U?$pair@$$CBV?$basic_string@DU?$char_traits@D@std@@V?$allocator@D@2@@std@@PEAUElement@io@easy3d@@@std@@@2@$0A@@std@@@std@@IEBA?AU?$_Hash_find_last_result@PEAU?$_List_node@U?$pair@$$CBV?$basic_string@DU?$char_traits@D@std@@V?$allocator@D@2@@std@@PEAUElement@io@easy3d@@@std@@PEAX@std@@@1@AEBV?$basic_string@DU?$char_traits@D@std@@V?$allocator@D@2@@1@_K@Z
	??$_Find_last@V?$basic_string@DU?$char_traits@D@std@@V?$allocator@D@2@@std@@@?$_Hash@V?$_Umap_traits@V?$basic_string@DU?$char_traits@D@std@@V?$allocator@D@2@@std@@_KV?$_Uhash_compare@V?$basic_string@DU?$char_traits@D@std@@V?$allocator@D@2@@std@@U?$hash@V?$basic_string@DU?$char_traits@D@std@@V?$allocator@D@2@@std@@@2@U?$equal_to@V?$basic_string@DU?$char_traits@D@std@@V?$allocator@D@2@@std@@@2@@2@V?$allocator@U?$pair@$$CBV?$basic_string@DU?$char_traits@D@std@@V?$allocator@D@2@@std@@_K@std@@@2@$0A@@std@@@std@@IEBA?AU?$_Hash_find_last_result@PEAU?$_List_node@U?$pair@$$CBV?$basic_string@DU?$char_traits@D@std@@V?$allocator@D@2@@std@@_K@std@@PEAX@std@@@1@AEBV?$basic_string@DU?$char_traits@D@std@@V?$allocator@D@2@@1@_K@Z
	??$_Find_lower_bound@V?$basic_string@DU?$char_traits@D@std@@V?$allocator@D@2@@std@@@?$_Tree@V?$_Tmap_traits@V?$basic_string@DU?$char_traits@D@std@@V?$allocator@D@2@@std@@HU?$less@V?$basic_string@DU?$char_traits@D@std@@V?$allocator@D@2@@std@@@2@V?$allocator@U?$pair@$$CBV?$basic_string@DU?$char_traits@D@std@@V?$allocator@D@2@@std@@H@std@@@2@$0A@@std@@@std@@IEBA?AU?$_Tree_find_result@PEAU?$_Tree_node@U?$pair@$$CBV?$basic_string@DU?$char_traits@D@std@@V?$allocator@D@2@@std@@H@std@@PEAX@std@@@1@AEBV?$basic_string@DU?$char_traits@D@std@@V?$allocator@D@2@@1@@Z
	??$_Find_lower_bound@V?$basic_string@DU?$char_traits@D@std@@V?$allocator@D@2@@std@@@?$_Tree@V?$_Tmap_traits@V?$basic_string@DU?$char_traits@D@std@@V?$allocator@D@2@@std@@V?$basic_json@Vmap@std@@Vvector@2@V?$basic_string@DU?$char_traits@D@std@@V?$allocator@D@2@@2@_N_J_KNVallocator@2@Uadl_serializer@nlohmann@@V?$vector@EV?$allocator@E@std@@@2@@nlohmann@@U?$less@V?$basic_string@DU?$char_traits@D@std@@V?$allocator@D@2@@std@@@2@V?$allocator@U?$pair@$$CBV?$basic_string@DU?$char_traits@D@std@@V?$allocator@D@2@@std@@V?$basic_json@Vmap@std@@Vvector@2@V?$basic_string@DU?$char_traits@D@std@@V?$allocator@D@2@@2@_N_J_KNVallocator@2@Uadl_serializer@nlohmann@@V?$vector@EV?$allocator@E@std@@@2@@nlohmann@@@std@@@2@$0A@@std@@@std@@IEBA?AU?$_Tree_find_result@PEAU?$_Tree_node@U?$pair@$$CBV?$basic_string@DU?$char_traits@D@std@@V?$allocator@D@2@@std@@V?$basic_json@Vmap@std@@Vvector@2@V?$basic_string@DU?$char_traits@D@std@@V?$allocator@D@2@@2@_N_J_KNVallocator@2@Uadl_serializer@nlohmann@@V?$vector@EV?$allocator@E@std@@@2@@nlohmann@@@std@@PEAX@std@@@1@AEBV?$basic_string@DU?$char_traits@D@std@@V?$allocator@D@2@@1@@Z
	??$_Find_lower_bound@V?$basic_string@DU?$char_traits@D@std@@V?$allocator@D@2@@std@@@?$_Tree@V?$_Tset_traits@V?$basic_string@DU?$char_traits@D@std@@V?$allocator@D@2@@std@@U?$less@V?$basic_string@DU?$char_traits@D@std@@V?$allocator@D@2@@std@@@2@V?$allocator@V?$basic_string@DU?$char_traits@D@std@@V?$allocator@D@2@@std@@@2@$0A@@std@@@std@@IEBA?AU?$_Tree_find_result@PEAU?$_Tree_node@V?$basic_string@DU?$char_traits@D@std@@V?$allocator@D@2@@std@@PEAX@std@@@1@AEBV?$basic_string@DU?$char_traits@D@std@@V?$allocator@D@2@@1@@Z
	??$_Fnv1a_append_value@H@std@@YA_K_KAEBH@Z
	??$_Free_non_head@V?$allocator@U?$_List_node@U?$pair@$$CBV?$basic_string@DU?$char_traits@D@std@@V?$allocator@D@2@@std@@PEAUElement@io@easy3d@@@std@@PEAX@std@@@std@@@?$_List_node@U?$pair@$$CBV?$basic_string@DU?$char_traits@D@std@@V?$allocator@D@2@@std@@PEAUElement@io@easy3d@@@std@@PEAX@std@@SAXAEAV?$allocator@U?$_List_node@U?$pair@$$CBV?$basic_string@DU?$char_traits@D@std@@V?$allocator@D@2@@std@@PEAUElement@io@easy3d@@@std@@PEAX@std@@@1@PEAU01@@Z
	??$_Free_non_head@V?$allocator@U?$_List_node@U?$pair@$$CBV?$basic_string@DU?$char_traits@D@std@@V?$allocator@D@2@@std@@_K@std@@PEAX@std@@@std@@@?$_List_node@U?$pair@$$CBV?$basic_string@DU?$char_traits@D@std@@V?$allocator@D@2@@std@@_K@std@@PEAX@std@@SAXAEAV?$allocator@U?$_List_node@U?$pair@$$CBV?$basic_string@DU?$char_traits@D@std@@V?$allocator@D@2@@std@@_K@std@@PEAX@std@@@1@PEAU01@@Z
	??$_Getvals@_W@?$time_get@DV?$istreambuf_iterator@DU?$char_traits@D@std@@@std@@@std@@IEAAX_WAEBV_Locinfo@1@@Z
	??$_Getvals@_W@?$time_get@_WV?$istreambuf_iterator@_WU?$char_traits@_W@std@@@std@@@std@@IEAAX_WAEBV_Locinfo@1@@Z
	??$_Hash_array_representation@D@std@@YA_KQEBD_K@Z
	??$_Hash_representation@H@std@@YA_KAEBH@Z
	??$_Insert_string@DU?$char_traits@D@std@@_K@std@@YAAEAV?$basic_ostream@DU?$char_traits@D@std@@@0@AEAV10@QEBD_K@Z
	??$_Integral_to_string@DH@std@@YA?AV?$basic_string@DU?$char_traits@D@std@@V?$allocator@D@2@@0@H@Z
	??$_Is_all_bits_zero@H@std@@YA_NAEBH@Z
	??$_Is_all_bits_zero@I@std@@YA_NAEBI@Z
	??$_Is_all_bits_zero@M@std@@YA_NAEBM@Z
	??$_Maklocstr@D@std@@YAPEADPEBDPEADAEBU_Cvtvec@@@Z
	??$_Memcmp_ranges@PEBEPEBE@std@@YAHPEBE00@Z
	??$_Reallocate_grow_by@V<lambda_319d5e083f45f90dcdce5dce53cbb275>@@D@?$basic_string@DU?$char_traits@D@std@@V?$allocator@D@2@@std@@AEAAAEAV01@_KV<lambda_319d5e083f45f90dcdce5dce53cbb275>@@D@Z
	??$_Reallocate_grow_by@V<lambda_65e615be2a453ca0576c979606f46740>@@PEBD_K@?$basic_string@DU?$char_traits@D@std@@V?$allocator@D@2@@std@@AEAAAEAV01@_KV<lambda_65e615be2a453ca0576c979606f46740>@@PEBD_K@Z
	??$_Reallocate_grow_by@V<lambda_f3a66ab6a0570788f31503db83886f49>@@_KPEBD_K@?$basic_string@DU?$char_traits@D@std@@V?$allocator@D@2@@std@@AEAAAEAV01@_KV<lambda_f3a66ab6a0570788f31503db83886f49>@@_KPEBD2@Z
	??$_Resize@H@?$vector@HV?$allocator@H@std@@@std@@AEAAX_KAEBH@Z
	??$_Resize@M@?$vector@MV?$allocator@M@std@@@std@@AEAAX_KAEBM@Z
	??$_Resize@UFaceConnectivity@SurfaceMesh@easy3d@@@?$vector@UFaceConnectivity@SurfaceMesh@easy3d@@V?$allocator@UFaceConnectivity@SurfaceMesh@easy3d@@@std@@@std@@AEAAX_KAEBUFaceConnectivity@SurfaceMesh@easy3d@@@Z
	??$_Resize@UHalfedgeConnectivity@SurfaceMesh@easy3d@@@?$vector@UHalfedgeConnectivity@SurfaceMesh@easy3d@@V?$allocator@UHalfedgeConnectivity@SurfaceMesh@easy3d@@@std@@@std@@AEAAX_KAEBUHalfedgeConnectivity@SurfaceMesh@easy3d@@@Z
	??$_Resize@UVertexConnectivity@SurfaceMesh@easy3d@@@?$vector@UVertexConnectivity@SurfaceMesh@easy3d@@V?$allocator@UVertexConnectivity@SurfaceMesh@easy3d@@@std@@@std@@AEAAX_KAEBUVertexConnectivity@SurfaceMesh@easy3d@@@Z
	??$_Resize@V?$Vec@$01M@easy3d@@@?$vector@V?$Vec@$01M@easy3d@@V?$allocator@V?$Vec@$01M@easy3d@@@std@@@std@@AEAAX_KAEBV?$Vec@$01M@easy3d@@@Z
	??$_Resize@V?$Vec@$02M@easy3d@@@?$vector@V?$Vec@$02M@easy3d@@V?$allocator@V?$Vec@$02M@easy3d@@@std@@@std@@AEAAX_KAEBV?$Vec@$02M@easy3d@@@Z
	??$_Resize@V?$Vec@$02N@easy3d@@@?$vector@V?$Vec@$02N@easy3d@@V?$allocator@V?$Vec@$02N@easy3d@@@std@@@std@@AEAAX_KAEBV?$Vec@$02N@easy3d@@@Z
	??$_Resize_reallocate@H@?$vector@HV?$allocator@H@std@@@std@@AEAAX_KAEBH@Z
	??$_Resize_reallocate@I@?$vector@IV?$allocator@I@std@@@std@@AEAAX_KAEBI@Z
	??$_Resize_reallocate@M@?$vector@MV?$allocator@M@std@@@std@@AEAAX_KAEBM@Z
	??$_Resize_reallocate@UCellConnectivity@PolyMesh@easy3d@@@?$vector@UCellConnectivity@PolyMesh@easy3d@@V?$allocator@UCellConnectivity@PolyMesh@easy3d@@@std@@@std@@AEAAX_KAEBUCellConnectivity@PolyMesh@easy3d@@@Z
	??$_Resize_reallocate@UEdgeConnectivity@PolyMesh@easy3d@@@?$vector@UEdgeConnectivity@PolyMesh@easy3d@@V?$allocator@UEdgeConnectivity@PolyMesh@easy3d@@@std@@@std@@AEAAX_KAEBUEdgeConnectivity@PolyMesh@easy3d@@@Z
	??$_Resize_reallocate@UElement@io@easy3d@@@?$vector@UElement@io@easy3d@@V?$allocator@UElement@io@easy3d@@@std@@@std@@AEAAX_KAEBUElement@io@easy3d@@@Z
	??$_Resize_reallocate@UFaceConnectivity@SurfaceMesh@easy3d@@@?$vector@UFaceConnectivity@SurfaceMesh@easy3d@@V?$allocator@UFaceConnectivity@SurfaceMesh@easy3d@@@std@@@std@@AEAAX_KAEBUFaceConnectivity@SurfaceMesh@easy3d@@@Z
	??$_Resize_reallocate@UHalfFaceConnectivity@PolyMesh@easy3d@@@?$vector@UHalfFaceConnectivity@PolyMesh@easy3d@@V?$allocator@UHalfFaceConnectivity@PolyMesh@easy3d@@@std@@@std@@AEAAX_KAEBUHalfFaceConnectivity@PolyMesh@easy3d@@@Z
	??$_Resize_reallocate@UHalfedgeConnectivity@SurfaceMesh@easy3d@@@?$vector@UHalfedgeConnectivity@SurfaceMesh@easy3d@@V?$allocator@UHalfedgeConnectivity@SurfaceMesh@easy3d@@@std@@@std@@AEAAX_KAEBUHalfedgeConnectivity@SurfaceMesh@easy3d@@@Z
	??$_Resize_reallocate@UVertexConnectivity@PolyMesh@easy3d@@@?$vector@UVertexConnectivity@PolyMesh@easy3d@@V?$allocator@UVertexConnectivity@PolyMesh@easy3d@@@std@@@std@@AEAAX_KAEBUVertexConnectivity@PolyMesh@easy3d@@@Z
	??$_Resize_reallocate@UVertexConnectivity@SurfaceMesh@easy3d@@@?$vector@UVertexConnectivity@SurfaceMesh@easy3d@@V?$allocator@UVertexConnectivity@SurfaceMesh@easy3d@@@std@@@std@@AEAAX_KAEBUVertexConnectivity@SurfaceMesh@easy3d@@@Z
	??$_Resize_reallocate@U_Value_init_tag@std@@@?$vector@HV?$allocator@H@std@@@std@@AEAAX_KAEBU_Value_init_tag@1@@Z
	??$_Resize_reallocate@U_Value_init_tag@std@@@?$vector@MV?$allocator@M@std@@@std@@AEAAX_KAEBU_Value_init_tag@1@@Z
	??$_Resize_reallocate@U_Value_init_tag@std@@@?$vector@NV?$allocator@N@std@@@std@@AEAAX_KAEBU_Value_init_tag@1@@Z
	??$_Resize_reallocate@U_Value_init_tag@std@@@?$vector@PEBDV?$allocator@PEBD@std@@@std@@AEAAX_KAEBU_Value_init_tag@1@@Z
	??$_Resize_reallocate@U_Value_init_tag@std@@@?$vector@UVertex@PolyMesh@easy3d@@V?$allocator@UVertex@PolyMesh@easy3d@@@std@@@std@@AEAAX_KAEBU_Value_init_tag@1@@Z
	??$_Resize_reallocate@U_Value_init_tag@std@@@?$vector@V?$Vec@$01M@easy3d@@V?$allocator@V?$Vec@$01M@easy3d@@@std@@@std@@AEAAX_KAEBU_Value_init_tag@1@@Z
	??$_Resize_reallocate@U_Value_init_tag@std@@@?$vector@V?$Vec@$02M@easy3d@@V?$allocator@V?$Vec@$02M@easy3d@@@std@@@std@@AEAAX_KAEBU_Value_init_tag@1@@Z
	??$_Resize_reallocate@U_Value_init_tag@std@@@?$vector@V?$basic_string@DU?$char_traits@D@std@@V?$allocator@D@2@@std@@V?$allocator@V?$basic_string@DU?$char_traits@D@std@@V?$allocator@D@2@@std@@@2@@std@@AEAAX_KAEBU_Value_init_tag@1@@Z
	??$_Resize_reallocate@U_Value_init_tag@std@@@?$vector@V?$vector@HV?$allocator@H@std@@@std@@V?$allocator@V?$vector@HV?$allocator@H@std@@@std@@@2@@std@@AEAAX_KAEBU_Value_init_tag@1@@Z
	??$_Resize_reallocate@U_Value_init_tag@std@@@?$vector@V?$vector@MV?$allocator@M@std@@@std@@V?$allocator@V?$vector@MV?$allocator@M@std@@@std@@@2@@std@@AEAAX_KAEBU_Value_init_tag@1@@Z
	??$_Resize_reallocate@U_Value_init_tag@std@@@?$vector@V?$vector@NV?$allocator@N@std@@@std@@V?$allocator@V?$vector@NV?$allocator@N@std@@@std@@@2@@std@@AEAAX_KAEBU_Value_init_tag@1@@Z
	??$_Resize_reallocate@V?$Vec@$01M@easy3d@@@?$vector@V?$Vec@$01M@easy3d@@V?$allocator@V?$Vec@$01M@easy3d@@@std@@@std@@AEAAX_KAEBV?$Vec@$01M@easy3d@@@Z
	??$_Resize_reallocate@V?$Vec@$02M@easy3d@@@?$vector@V?$Vec@$02M@easy3d@@V?$allocator@V?$Vec@$02M@easy3d@@@std@@@std@@AEAAX_KAEBV?$Vec@$02M@easy3d@@@Z
	??$_Resize_reallocate@V?$Vec@$02N@easy3d@@@?$vector@V?$Vec@$02N@easy3d@@V?$allocator@V?$Vec@$02N@easy3d@@@std@@@std@@AEAAX_KAEBV?$Vec@$02N@easy3d@@@Z
	??$_Resize_reallocate@V?$vector@HV?$allocator@H@std@@@std@@@?$vector@V?$vector@HV?$allocator@H@std@@@std@@V?$allocator@V?$vector@HV?$allocator@H@std@@@std@@@2@@std@@AEAAX_KAEBV?$vector@HV?$allocator@H@std@@@1@@Z
	??$_Resize_reallocate@V?$vector@MV?$allocator@M@std@@@std@@@?$vector@V?$vector@MV?$allocator@M@std@@@std@@V?$allocator@V?$vector@MV?$allocator@M@std@@@std@@@2@@std@@AEAAX_KAEBV?$vector@MV?$allocator@M@std@@@1@@Z
	??$_Try_emplace@AEBH$$V@?$_Hash@V?$_Umap_traits@HV?$unordered_map@HVVertexGroup@PointCloudIO_vg@io@easy3d@@U?$hash@H@std@@U?$equal_to@H@6@V?$allocator@U?$pair@$$CBHVVertexGroup@PointCloudIO_vg@io@easy3d@@@std@@@6@@std@@V?$_Uhash_compare@HU?$hash@H@std@@U?$equal_to@H@2@@2@V?$allocator@U?$pair@$$CBHV?$unordered_map@HVVertexGroup@PointCloudIO_vg@io@easy3d@@U?$hash@H@std@@U?$equal_to@H@6@V?$allocator@U?$pair@$$CBHVVertexGroup@PointCloudIO_vg@io@easy3d@@@std@@@6@@std@@@std@@@2@$0A@@std@@@std@@IEAA?AU?$pair@PEAU?$_List_node@U?$pair@$$CBHV?$unordered_map@HVVertexGroup@PointCloudIO_vg@io@easy3d@@U?$hash@H@std@@U?$equal_to@H@6@V?$allocator@U?$pair@$$CBHVVertexGroup@PointCloudIO_vg@io@easy3d@@@std@@@6@@std@@@std@@PEAX@std@@_N@1@AEBH@Z
	??$_Try_emplace@AEBH$$V@?$_Hash@V?$_Umap_traits@HVVertexGroup@PointCloudIO_vg@io@easy3d@@V?$_Uhash_compare@HU?$hash@H@std@@U?$equal_to@H@2@@std@@V?$allocator@U?$pair@$$CBHVVertexGroup@PointCloudIO_vg@io@easy3d@@@std@@@6@$0A@@std@@@std@@IEAA?AU?$pair@PEAU?$_List_node@U?$pair@$$CBHVVertexGroup@PointCloudIO_vg@io@easy3d@@@std@@PEAX@std@@_N@1@AEBH@Z
	??$_Try_emplace@AEBV?$basic_string@DU?$char_traits@D@std@@V?$allocator@D@2@@std@@$$V@?$_Hash@V?$_Umap_traits@V?$basic_string@DU?$char_traits@D@std@@V?$allocator@D@2@@std@@PEAUElement@io@easy3d@@V?$_Uhash_compare@V?$basic_string@DU?$char_traits@D@std@@V?$allocator@D@2@@std@@U?$hash@V?$basic_string@DU?$char_traits@D@std@@V?$allocator@D@2@@std@@@2@U?$equal_to@V?$basic_string@DU?$char_traits@D@std@@V?$allocator@D@2@@std@@@2@@2@V?$allocator@U?$pair@$$CBV?$basic_string@DU?$char_traits@D@std@@V?$allocator@D@2@@std@@PEAUElement@io@easy3d@@@std@@@2@$0A@@std@@@std@@IEAA?AU?$pair@PEAU?$_List_node@U?$pair@$$CBV?$basic_string@DU?$char_traits@D@std@@V?$allocator@D@2@@std@@PEAUElement@io@easy3d@@@std@@PEAX@std@@_N@1@AEBV?$basic_string@DU?$char_traits@D@std@@V?$allocator@D@2@@1@@Z
	??$_Try_emplace@AEBV?$basic_string@DU?$char_traits@D@std@@V?$allocator@D@2@@std@@$$V@?$_Hash@V?$_Umap_traits@V?$basic_string@DU?$char_traits@D@std@@V?$allocator@D@2@@std@@_KV?$_Uhash_compare@V?$basic_string@DU?$char_traits@D@std@@V?$allocator@D@2@@std@@U?$hash@V?$basic_string@DU?$char_traits@D@std@@V?$allocator@D@2@@std@@@2@U?$equal_to@V?$basic_string@DU?$char_traits@D@std@@V?$allocator@D@2@@std@@@2@@2@V?$allocator@U?$pair@$$CBV?$basic_string@DU?$char_traits@D@std@@V?$allocator@D@2@@std@@_K@std@@@2@$0A@@std@@@std@@IEAA?AU?$pair@PEAU?$_List_node@U?$pair@$$CBV?$basic_string@DU?$char_traits@D@std@@V?$allocator@D@2@@std@@_K@std@@PEAX@std@@_N@1@AEBV?$basic_string@DU?$char_traits@D@std@@V?$allocator@D@2@@1@@Z
	??$_UIntegral_to_buff@DI@std@@YAPEADPEADI@Z
	??$_UIntegral_to_buff@D_K@std@@YAPEADPEAD_K@Z
	??$_UIntegral_to_string@D_K@std@@YA?AV?$basic_string@DU?$char_traits@D@std@@V?$allocator@D@2@@0@_K@Z
	??$_Uninitialized_copy@PEAUCellConnectivity@PolyMesh@easy3d@@PEAU123@V?$allocator@UCellConnectivity@PolyMesh@easy3d@@@std@@@std@@YAPEAUCellConnectivity@PolyMesh@easy3d@@PEAU123@00AEAV?$allocator@UCellConnectivity@PolyMesh@easy3d@@@0@@Z
	??$_Uninitialized_copy@PEAUEdgeConnectivity@PolyMesh@easy3d@@PEAU123@V?$allocator@UEdgeConnectivity@PolyMesh@easy3d@@@std@@@std@@YAPEAUEdgeConnectivity@PolyMesh@easy3d@@PEAU123@00AEAV?$allocator@UEdgeConnectivity@PolyMesh@easy3d@@@0@@Z
	??$_Uninitialized_copy@PEAUHalfFaceConnectivity@PolyMesh@easy3d@@PEAU123@V?$allocator@UHalfFaceConnectivity@PolyMesh@easy3d@@@std@@@std@@YAPEAUHalfFaceConnectivity@PolyMesh@easy3d@@PEAU123@00AEAV?$allocator@UHalfFaceConnectivity@PolyMesh@easy3d@@@0@@Z
	??$_Uninitialized_copy@PEAUVertexConnectivity@PolyMesh@easy3d@@PEAU123@V?$allocator@UVertexConnectivity@PolyMesh@easy3d@@@std@@@std@@YAPEAUVertexConnectivity@PolyMesh@easy3d@@PEAU123@00AEAV?$allocator@UVertexConnectivity@PolyMesh@easy3d@@@0@@Z
	??$_Uninitialized_copy@PEAVVertexGroup@PointCloudIO_vg@io@easy3d@@PEAV1234@V?$allocator@VVertexGroup@PointCloudIO_vg@io@easy3d@@@std@@@std@@YAPEAVVertexGroup@PointCloudIO_vg@io@easy3d@@PEAV1234@00AEAV?$allocator@VVertexGroup@PointCloudIO_vg@io@easy3d@@@0@@Z
	??$_Uninitialized_fill_n@V?$allocator@H@std@@@std@@YAPEAHPEAH_KAEBHAEAV?$allocator@H@0@@Z
	??$_Uninitialized_fill_n@V?$allocator@M@std@@@std@@YAPEAMPEAM_KAEBMAEAV?$allocator@M@0@@Z
	??$_Uninitialized_fill_n@V?$allocator@UCellConnectivity@PolyMesh@easy3d@@@std@@@std@@YAPEAUCellConnectivity@PolyMesh@easy3d@@PEAU123@_KAEBU123@AEAV?$allocator@UCellConnectivity@PolyMesh@easy3d@@@0@@Z
	??$_Uninitialized_fill_n@V?$allocator@UEdgeConnectivity@PolyMesh@easy3d@@@std@@@std@@YAPEAUEdgeConnectivity@PolyMesh@easy3d@@PEAU123@_KAEBU123@AEAV?$allocator@UEdgeConnectivity@PolyMesh@easy3d@@@0@@Z
	??$_Uninitialized_fill_n@V?$allocator@UElement@io@easy3d@@@std@@@std@@YAPEAUElement@io@easy3d@@PEAU123@_KAEBU123@AEAV?$allocator@UElement@io@easy3d@@@0@@Z
	??$_Uninitialized_fill_n@V?$allocator@UHalfFaceConnectivity@PolyMesh@easy3d@@@std@@@std@@YAPEAUHalfFaceConnectivity@PolyMesh@easy3d@@PEAU123@_KAEBU123@AEAV?$allocator@UHalfFaceConnectivity@PolyMesh@easy3d@@@0@@Z
	??$_Uninitialized_fill_n@V?$allocator@UVertexConnectivity@PolyMesh@easy3d@@@std@@@std@@YAPEAUVertexConnectivity@PolyMesh@easy3d@@PEAU123@_KAEBU123@AEAV?$allocator@UVertexConnectivity@PolyMesh@easy3d@@@0@@Z
	??$_Uninitialized_fill_n@V?$allocator@V?$vector@HV?$allocator@H@std@@@std@@@std@@@std@@YAPEAV?$vector@HV?$allocator@H@std@@@0@PEAV10@_KAEBV10@AEAV?$allocator@V?$vector@HV?$allocator@H@std@@@std@@@0@@Z
	??$_Uninitialized_fill_n@V?$allocator@V?$vector@MV?$allocator@M@std@@@std@@@std@@@std@@YAPEAV?$vector@MV?$allocator@M@std@@@0@PEAV10@_KAEBV10@AEAV?$allocator@V?$vector@MV?$allocator@M@std@@@std@@@0@@Z
	??$_Uninitialized_move@PEAUCellConnectivity@PolyMesh@easy3d@@V?$allocator@UCellConnectivity@PolyMesh@easy3d@@@std@@@std@@YAPEAUCellConnectivity@PolyMesh@easy3d@@QEAU123@0PEAU123@AEAV?$allocator@UCellConnectivity@PolyMesh@easy3d@@@0@@Z
	??$_Uninitialized_move@PEAUEdgeConnectivity@PolyMesh@easy3d@@V?$allocator@UEdgeConnectivity@PolyMesh@easy3d@@@std@@@std@@YAPEAUEdgeConnectivity@PolyMesh@easy3d@@QEAU123@0PEAU123@AEAV?$allocator@UEdgeConnectivity@PolyMesh@easy3d@@@0@@Z
	??$_Uninitialized_move@PEAUHalfFaceConnectivity@PolyMesh@easy3d@@V?$allocator@UHalfFaceConnectivity@PolyMesh@easy3d@@@std@@@std@@YAPEAUHalfFaceConnectivity@PolyMesh@easy3d@@QEAU123@0PEAU123@AEAV?$allocator@UHalfFaceConnectivity@PolyMesh@easy3d@@@0@@Z
	??$_Uninitialized_move@PEAUVertexConnectivity@PolyMesh@easy3d@@V?$allocator@UVertexConnectivity@PolyMesh@easy3d@@@std@@@std@@YAPEAUVertexConnectivity@PolyMesh@easy3d@@QEAU123@0PEAU123@AEAV?$allocator@UVertexConnectivity@PolyMesh@easy3d@@@0@@Z
	??$_Uninitialized_move@PEAU__line_t@tinyobj@@V?$allocator@U__line_t@tinyobj@@@std@@@std@@YAPEAU__line_t@tinyobj@@QEAU12@0PEAU12@AEAV?$allocator@U__line_t@tinyobj@@@0@@Z
	??$_Uninitialized_move@PEAU__points_t@tinyobj@@V?$allocator@U__points_t@tinyobj@@@std@@@std@@YAPEAU__points_t@tinyobj@@QEAU12@0PEAU12@AEAV?$allocator@U__points_t@tinyobj@@@0@@Z
	??$_Uninitialized_move@PEAUface_t@tinyobj@@V?$allocator@Uface_t@tinyobj@@@std@@@std@@YAPEAUface_t@tinyobj@@QEAU12@0PEAU12@AEAV?$allocator@Uface_t@tinyobj@@@0@@Z
	??$_Uninitialized_move@PEAUmaterial_t@tinyobj@@V?$allocator@Umaterial_t@tinyobj@@@std@@@std@@YAPEAUmaterial_t@tinyobj@@QEAU12@0PEAU12@AEAV?$allocator@Umaterial_t@tinyobj@@@0@@Z
	??$_Uninitialized_move@PEAUskin_weight_t@tinyobj@@V?$allocator@Uskin_weight_t@tinyobj@@@std@@@std@@YAPEAUskin_weight_t@tinyobj@@QEAU12@0PEAU12@AEAV?$allocator@Uskin_weight_t@tinyobj@@@0@@Z
	??$_Uninitialized_move@PEAUtag_t@tinyobj@@V?$allocator@Utag_t@tinyobj@@@std@@@std@@YAPEAUtag_t@tinyobj@@QEAU12@0PEAU12@AEAV?$allocator@Utag_t@tinyobj@@@0@@Z
	??$_Uninitialized_move@PEAV?$GenericProperty@H@io@easy3d@@V?$allocator@V?$GenericProperty@H@io@easy3d@@@std@@@std@@YAPEAV?$GenericProperty@H@io@easy3d@@QEAV123@0PEAV123@AEAV?$allocator@V?$GenericProperty@H@io@easy3d@@@0@@Z
	??$_Uninitialized_move@PEAV?$GenericProperty@M@io@easy3d@@V?$allocator@V?$GenericProperty@M@io@easy3d@@@std@@@std@@YAPEAV?$GenericProperty@M@io@easy3d@@QEAV123@0PEAV123@AEAV?$allocator@V?$GenericProperty@M@io@easy3d@@@0@@Z
	??$_Uninitialized_move@PEAV?$GenericProperty@V?$Vec@$01M@easy3d@@@io@easy3d@@V?$allocator@V?$GenericProperty@V?$Vec@$01M@easy3d@@@io@easy3d@@@std@@@std@@YAPEAV?$GenericProperty@V?$Vec@$01M@easy3d@@@io@easy3d@@QEAV123@0PEAV123@AEAV?$allocator@V?$GenericProperty@V?$Vec@$01M@easy3d@@@io@easy3d@@@0@@Z
	??$_Uninitialized_move@PEAV?$GenericProperty@V?$Vec@$02M@easy3d@@@io@easy3d@@V?$allocator@V?$GenericProperty@V?$Vec@$02M@easy3d@@@io@easy3d@@@std@@@std@@YAPEAV?$GenericProperty@V?$Vec@$02M@easy3d@@@io@easy3d@@QEAV123@0PEAV123@AEAV?$allocator@V?$GenericProperty@V?$Vec@$02M@easy3d@@@io@easy3d@@@0@@Z
	??$_Uninitialized_move@PEAV?$GenericProperty@V?$vector@HV?$allocator@H@std@@@std@@@io@easy3d@@V?$allocator@V?$GenericProperty@V?$vector@HV?$allocator@H@std@@@std@@@io@easy3d@@@std@@@std@@YAPEAV?$GenericProperty@V?$vector@HV?$allocator@H@std@@@std@@@io@easy3d@@QEAV123@0PEAV123@AEAV?$allocator@V?$GenericProperty@V?$vector@HV?$allocator@H@std@@@std@@@io@easy3d@@@0@@Z
	??$_Uninitialized_move@PEAV?$GenericProperty@V?$vector@MV?$allocator@M@std@@@std@@@io@easy3d@@V?$allocator@V?$GenericProperty@V?$vector@MV?$allocator@M@std@@@std@@@io@easy3d@@@std@@@std@@YAPEAV?$GenericProperty@V?$vector@MV?$allocator@M@std@@@std@@@io@easy3d@@QEAV123@0PEAV123@AEAV?$allocator@V?$GenericProperty@V?$vector@MV?$allocator@M@std@@@std@@@io@easy3d@@@0@@Z
	??$_Uninitialized_move@PEAV?$basic_string@DU?$char_traits@D@std@@V?$allocator@D@2@@std@@V?$allocator@V?$basic_string@DU?$char_traits@D@std@@V?$allocator@D@2@@std@@@2@@std@@YAPEAV?$basic_string@DU?$char_traits@D@std@@V?$allocator@D@2@@0@QEAV10@0PEAV10@AEAV?$allocator@V?$basic_string@DU?$char_traits@D@std@@V?$allocator@D@2@@std@@@0@@Z
	??$_Uninitialized_move@PEAV?$vector@HV?$allocator@H@std@@@std@@V?$allocator@V?$vector@HV?$allocator@H@std@@@std@@@2@@std@@YAPEAV?$vector@HV?$allocator@H@std@@@0@QEAV10@0PEAV10@AEAV?$allocator@V?$vector@HV?$allocator@H@std@@@std@@@0@@Z
	??$_Uninitialized_move@PEAV?$vector@MV?$allocator@M@std@@@std@@V?$allocator@V?$vector@MV?$allocator@M@std@@@std@@@2@@std@@YAPEAV?$vector@MV?$allocator@M@std@@@0@QEAV10@0PEAV10@AEAV?$allocator@V?$vector@MV?$allocator@M@std@@@std@@@0@@Z
	??$_Uninitialized_move@PEAV?$vector@V?$Vec@$02N@easy3d@@V?$allocator@V?$Vec@$02N@easy3d@@@std@@@std@@V?$allocator@V?$vector@V?$Vec@$02N@easy3d@@V?$allocator@V?$Vec@$02N@easy3d@@@std@@@std@@@2@@std@@YAPEAV?$vector@V?$Vec@$02N@easy3d@@V?$allocator@V?$Vec@$02N@easy3d@@@std@@@0@QEAV10@0PEAV10@AEAV?$allocator@V?$vector@V?$Vec@$02N@easy3d@@V?$allocator@V?$Vec@$02N@easy3d@@@std@@@std@@@0@@Z
	??$_Uninitialized_move@PEAVVertexGroup@PointCloudIO_vg@io@easy3d@@V?$allocator@VVertexGroup@PointCloudIO_vg@io@easy3d@@@std@@@std@@YAPEAVVertexGroup@PointCloudIO_vg@io@easy3d@@QEAV1234@0PEAV1234@AEAV?$allocator@VVertexGroup@PointCloudIO_vg@io@easy3d@@@0@@Z
	??$_Uninitialized_value_construct_n@V?$allocator@UVertex@PolyMesh@easy3d@@@std@@@std@@YAPEAUVertex@PolyMesh@easy3d@@PEAU123@_KAEAV?$allocator@UVertex@PolyMesh@easy3d@@@0@@Z
	??$_Uninitialized_value_construct_n@V?$allocator@V?$basic_string@DU?$char_traits@D@std@@V?$allocator@D@2@@std@@@std@@@std@@YAPEAV?$basic_string@DU?$char_traits@D@std@@V?$allocator@D@2@@0@PEAV10@_KAEAV?$allocator@V?$basic_string@DU?$char_traits@D@std@@V?$allocator@D@2@@std@@@0@@Z
	??$_Uninitialized_value_construct_n@V?$allocator@V?$vector@HV?$allocator@H@std@@@std@@@std@@@std@@YAPEAV?$vector@HV?$allocator@H@std@@@0@PEAV10@_KAEAV?$allocator@V?$vector@HV?$allocator@H@std@@@std@@@0@@Z
	??$_Zero_range@PEAD@std@@YAPEADQEAD0@Z
	??$_Zero_range@PEAH@std@@YAPEAHQEAH0@Z
	??$_Zero_range@PEAM@std@@YAPEAMQEAM0@Z
	??$_Zero_range@PEAN@std@@YAPEANQEAN0@Z
	??$_Zero_range@PEAPEBD@std@@YAPEAPEBDQEAPEBD0@Z
	??$add@H@PropertyContainer@easy3d@@QEAA?AV?$Property@H@1@AEBV?$basic_string@DU?$char_traits@D@std@@V?$allocator@D@2@@std@@H@Z
	??$add@M@PropertyContainer@easy3d@@QEAA?AV?$Property@M@1@AEBV?$basic_string@DU?$char_traits@D@std@@V?$allocator@D@2@@std@@M@Z
	??$add@UCellConnectivity@PolyMesh@easy3d@@@PropertyContainer@easy3d@@QEAA?AV?$Property@UCellConnectivity@PolyMesh@easy3d@@@1@AEBV?$basic_string@DU?$char_traits@D@std@@V?$allocator@D@2@@std@@UCellConnectivity@PolyMesh@1@@Z
	??$add@UEdgeConnectivity@PolyMesh@easy3d@@@PropertyContainer@easy3d@@QEAA?AV?$Property@UEdgeConnectivity@PolyMesh@easy3d@@@1@AEBV?$basic_string@DU?$char_traits@D@std@@V?$allocator@D@2@@std@@UEdgeConnectivity@PolyMesh@1@@Z
	??$add@UElement@io@easy3d@@@PropertyContainer@easy3d@@QEAA?AV?$Property@UElement@io@easy3d@@@1@AEBV?$basic_string@DU?$char_traits@D@std@@V?$allocator@D@2@@std@@UElement@io@1@@Z
	??$add@UFaceConnectivity@SurfaceMesh@easy3d@@@PropertyContainer@easy3d@@QEAA?AV?$Property@UFaceConnectivity@SurfaceMesh@easy3d@@@1@AEBV?$basic_string@DU?$char_traits@D@std@@V?$allocator@D@2@@std@@UFaceConnectivity@SurfaceMesh@1@@Z
	??$add@UHalfFaceConnectivity@PolyMesh@easy3d@@@PropertyContainer@easy3d@@QEAA?AV?$Property@UHalfFaceConnectivity@PolyMesh@easy3d@@@1@AEBV?$basic_string@DU?$char_traits@D@std@@V?$allocator@D@2@@std@@UHalfFaceConnectivity@PolyMesh@1@@Z
	??$add@UHalfedgeConnectivity@SurfaceMesh@easy3d@@@PropertyContainer@easy3d@@QEAA?AV?$Property@UHalfedgeConnectivity@SurfaceMesh@easy3d@@@1@AEBV?$basic_string@DU?$char_traits@D@std@@V?$allocator@D@2@@std@@UHalfedgeConnectivity@SurfaceMesh@1@@Z
	??$add@UVertexConnectivity@PolyMesh@easy3d@@@PropertyContainer@easy3d@@QEAA?AV?$Property@UVertexConnectivity@PolyMesh@easy3d@@@1@AEBV?$basic_string@DU?$char_traits@D@std@@V?$allocator@D@2@@std@@UVertexConnectivity@PolyMesh@1@@Z
	??$add@UVertexConnectivity@SurfaceMesh@easy3d@@@PropertyContainer@easy3d@@QEAA?AV?$Property@UVertexConnectivity@SurfaceMesh@easy3d@@@1@AEBV?$basic_string@DU?$char_traits@D@std@@V?$allocator@D@2@@std@@UVertexConnectivity@SurfaceMesh@1@@Z
	??$add@V?$Vec@$01M@easy3d@@@PropertyContainer@easy3d@@QEAA?AV?$Property@V?$Vec@$01M@easy3d@@@1@AEBV?$basic_string@DU?$char_traits@D@std@@V?$allocator@D@2@@std@@V?$Vec@$01M@1@@Z
	??$add@V?$Vec@$02M@easy3d@@@PropertyContainer@easy3d@@QEAA?AV?$Property@V?$Vec@$02M@easy3d@@@1@AEBV?$basic_string@DU?$char_traits@D@std@@V?$allocator@D@2@@std@@V?$Vec@$02M@1@@Z
	??$add@V?$Vec@$02N@easy3d@@@PropertyContainer@easy3d@@QEAA?AV?$Property@V?$Vec@$02N@easy3d@@@1@AEBV?$basic_string@DU?$char_traits@D@std@@V?$allocator@D@2@@std@@V?$Vec@$02N@1@@Z
	??$add@V?$vector@HV?$allocator@H@std@@@std@@@PropertyContainer@easy3d@@QEAA?AV?$Property@V?$vector@HV?$allocator@H@std@@@std@@@1@AEBV?$basic_string@DU?$char_traits@D@std@@V?$allocator@D@2@@std@@V?$vector@HV?$allocator@H@std@@@4@@Z
	??$add@V?$vector@MV?$allocator@M@std@@@std@@@PropertyContainer@easy3d@@QEAA?AV?$Property@V?$vector@MV?$allocator@M@std@@@std@@@1@AEBV?$basic_string@DU?$char_traits@D@std@@V?$allocator@D@2@@std@@V?$vector@MV?$allocator@M@std@@@4@@Z
	??$add_edge_properties@HV?$GenericProperty@H@io@easy3d@@@internal@io@easy3d@@YAXPEAVGraph@2@AEBV?$vector@V?$GenericProperty@H@io@easy3d@@V?$allocator@V?$GenericProperty@H@io@easy3d@@@std@@@std@@@Z
	??$add_edge_properties@HV?$GenericProperty@H@io@easy3d@@@internal@io@easy3d@@YAXPEAVSurfaceMesh@2@AEBV?$vector@V?$GenericProperty@H@io@easy3d@@V?$allocator@V?$GenericProperty@H@io@easy3d@@@std@@@std@@@Z
	??$add_edge_properties@MV?$GenericProperty@M@io@easy3d@@@internal@io@easy3d@@YAXPEAVGraph@2@AEBV?$vector@V?$GenericProperty@M@io@easy3d@@V?$allocator@V?$GenericProperty@M@io@easy3d@@@std@@@std@@@Z
	??$add_edge_properties@MV?$GenericProperty@M@io@easy3d@@@internal@io@easy3d@@YAXPEAVSurfaceMesh@2@AEBV?$vector@V?$GenericProperty@M@io@easy3d@@V?$allocator@V?$GenericProperty@M@io@easy3d@@@std@@@std@@@Z
	??$add_edge_properties@V?$Vec@$01M@easy3d@@V?$GenericProperty@V?$Vec@$01M@easy3d@@@io@2@@internal@io@easy3d@@YAXPEAVGraph@2@AEBV?$vector@V?$GenericProperty@V?$Vec@$01M@easy3d@@@io@easy3d@@V?$allocator@V?$GenericProperty@V?$Vec@$01M@easy3d@@@io@easy3d@@@std@@@std@@@Z
	??$add_edge_properties@V?$Vec@$01M@easy3d@@V?$GenericProperty@V?$Vec@$01M@easy3d@@@io@2@@internal@io@easy3d@@YAXPEAVSurfaceMesh@2@AEBV?$vector@V?$GenericProperty@V?$Vec@$01M@easy3d@@@io@easy3d@@V?$allocator@V?$GenericProperty@V?$Vec@$01M@easy3d@@@io@easy3d@@@std@@@std@@@Z
	??$add_edge_properties@V?$Vec@$02M@easy3d@@V?$GenericProperty@V?$Vec@$02M@easy3d@@@io@2@@internal@io@easy3d@@YAXPEAVGraph@2@AEBV?$vector@V?$GenericProperty@V?$Vec@$02M@easy3d@@@io@easy3d@@V?$allocator@V?$GenericProperty@V?$Vec@$02M@easy3d@@@io@easy3d@@@std@@@std@@@Z
	??$add_edge_properties@V?$Vec@$02M@easy3d@@V?$GenericProperty@V?$Vec@$02M@easy3d@@@io@2@@internal@io@easy3d@@YAXPEAVSurfaceMesh@2@AEBV?$vector@V?$GenericProperty@V?$Vec@$02M@easy3d@@@io@easy3d@@V?$allocator@V?$GenericProperty@V?$Vec@$02M@easy3d@@@io@easy3d@@@std@@@std@@@Z
	??$add_edge_properties@V?$vector@HV?$allocator@H@std@@@std@@V?$GenericProperty@V?$vector@HV?$allocator@H@std@@@std@@@io@easy3d@@@internal@io@easy3d@@YAXPEAVGraph@2@AEBV?$vector@V?$GenericProperty@V?$vector@HV?$allocator@H@std@@@std@@@io@easy3d@@V?$allocator@V?$GenericProperty@V?$vector@HV?$allocator@H@std@@@std@@@io@easy3d@@@std@@@std@@@Z
	??$add_edge_properties@V?$vector@HV?$allocator@H@std@@@std@@V?$GenericProperty@V?$vector@HV?$allocator@H@std@@@std@@@io@easy3d@@@internal@io@easy3d@@YAXPEAVSurfaceMesh@2@AEBV?$vector@V?$GenericProperty@V?$vector@HV?$allocator@H@std@@@std@@@io@easy3d@@V?$allocator@V?$GenericProperty@V?$vector@HV?$allocator@H@std@@@std@@@io@easy3d@@@std@@@std@@@Z
	??$add_edge_properties@V?$vector@MV?$allocator@M@std@@@std@@V?$GenericProperty@V?$vector@MV?$allocator@M@std@@@std@@@io@easy3d@@@internal@io@easy3d@@YAXPEAVGraph@2@AEBV?$vector@V?$GenericProperty@V?$vector@MV?$allocator@M@std@@@std@@@io@easy3d@@V?$allocator@V?$GenericProperty@V?$vector@MV?$allocator@M@std@@@std@@@io@easy3d@@@std@@@std@@@Z
	??$add_edge_properties@V?$vector@MV?$allocator@M@std@@@std@@V?$GenericProperty@V?$vector@MV?$allocator@M@std@@@std@@@io@easy3d@@@internal@io@easy3d@@YAXPEAVSurfaceMesh@2@AEBV?$vector@V?$GenericProperty@V?$vector@MV?$allocator@M@std@@@std@@@io@easy3d@@V?$allocator@V?$GenericProperty@V?$vector@MV?$allocator@M@std@@@std@@@io@easy3d@@@std@@@std@@@Z
	??$add_face_properties@HV?$GenericProperty@H@io@easy3d@@@internal@io@easy3d@@YAXPEAVSurfaceMesh@2@AEBV?$vector@V?$GenericProperty@H@io@easy3d@@V?$allocator@V?$GenericProperty@H@io@easy3d@@@std@@@std@@@Z
	??$add_face_properties@MV?$GenericProperty@M@io@easy3d@@@internal@io@easy3d@@YAXPEAVSurfaceMesh@2@AEBV?$vector@V?$GenericProperty@M@io@easy3d@@V?$allocator@V?$GenericProperty@M@io@easy3d@@@std@@@std@@@Z
	??$add_face_properties@V?$Vec@$01M@easy3d@@V?$GenericProperty@V?$Vec@$01M@easy3d@@@io@2@@internal@io@easy3d@@YAXPEAVSurfaceMesh@2@AEBV?$vector@V?$GenericProperty@V?$Vec@$01M@easy3d@@@io@easy3d@@V?$allocator@V?$GenericProperty@V?$Vec@$01M@easy3d@@@io@easy3d@@@std@@@std@@@Z
	??$add_face_properties@V?$Vec@$02M@easy3d@@V?$GenericProperty@V?$Vec@$02M@easy3d@@@io@2@@internal@io@easy3d@@YAXPEAVSurfaceMesh@2@AEBV?$vector@V?$GenericProperty@V?$Vec@$02M@easy3d@@@io@easy3d@@V?$allocator@V?$GenericProperty@V?$Vec@$02M@easy3d@@@io@easy3d@@@std@@@std@@@Z
	??$add_face_properties@V?$vector@HV?$allocator@H@std@@@std@@V?$GenericProperty@V?$vector@HV?$allocator@H@std@@@std@@@io@easy3d@@@internal@io@easy3d@@YAXPEAVSurfaceMesh@2@AEBV?$vector@V?$GenericProperty@V?$vector@HV?$allocator@H@std@@@std@@@io@easy3d@@V?$allocator@V?$GenericProperty@V?$vector@HV?$allocator@H@std@@@std@@@io@easy3d@@@std@@@std@@@Z
	??$add_face_properties@V?$vector@MV?$allocator@M@std@@@std@@V?$GenericProperty@V?$vector@MV?$allocator@M@std@@@std@@@io@easy3d@@@internal@io@easy3d@@YAXPEAVSurfaceMesh@2@AEBV?$vector@V?$GenericProperty@V?$vector@MV?$allocator@M@std@@@std@@@io@easy3d@@V?$allocator@V?$GenericProperty@V?$vector@MV?$allocator@M@std@@@std@@@io@easy3d@@@std@@@std@@@Z
	??$add_properties@HV?$GenericProperty@H@io@easy3d@@@internal@io@easy3d@@YAXPEAVPointCloud@2@AEBV?$vector@V?$GenericProperty@H@io@easy3d@@V?$allocator@V?$GenericProperty@H@io@easy3d@@@std@@@std@@@Z
	??$add_properties@MV?$GenericProperty@M@io@easy3d@@@internal@io@easy3d@@YAXPEAVPointCloud@2@AEBV?$vector@V?$GenericProperty@M@io@easy3d@@V?$allocator@V?$GenericProperty@M@io@easy3d@@@std@@@std@@@Z
	??$add_properties@V?$Vec@$01M@easy3d@@V?$GenericProperty@V?$Vec@$01M@easy3d@@@io@2@@internal@io@easy3d@@YAXPEAVPointCloud@2@AEBV?$vector@V?$GenericProperty@V?$Vec@$01M@easy3d@@@io@easy3d@@V?$allocator@V?$GenericProperty@V?$Vec@$01M@easy3d@@@io@easy3d@@@std@@@std@@@Z
	??$add_properties@V?$Vec@$02M@easy3d@@V?$GenericProperty@V?$Vec@$02M@easy3d@@@io@2@@internal@io@easy3d@@YAXPEAVPointCloud@2@AEBV?$vector@V?$GenericProperty@V?$Vec@$02M@easy3d@@@io@easy3d@@V?$allocator@V?$GenericProperty@V?$Vec@$02M@easy3d@@@io@easy3d@@@std@@@std@@@Z
	??$add_properties@V?$vector@HV?$allocator@H@std@@@std@@V?$GenericProperty@V?$vector@HV?$allocator@H@std@@@std@@@io@easy3d@@@internal@io@easy3d@@YAXPEAVPointCloud@2@AEBV?$vector@V?$GenericProperty@V?$vector@HV?$allocator@H@std@@@std@@@io@easy3d@@V?$allocator@V?$GenericProperty@V?$vector@HV?$allocator@H@std@@@std@@@io@easy3d@@@std@@@std@@@Z
	??$add_properties@V?$vector@MV?$allocator@M@std@@@std@@V?$GenericProperty@V?$vector@MV?$allocator@M@std@@@std@@@io@easy3d@@@internal@io@easy3d@@YAXPEAVPointCloud@2@AEBV?$vector@V?$GenericProperty@V?$vector@MV?$allocator@M@std@@@std@@@io@easy3d@@V?$allocator@V?$GenericProperty@V?$vector@MV?$allocator@M@std@@@std@@@io@easy3d@@@std@@@std@@@Z
	??$add_vertex_properties@HV?$GenericProperty@H@io@easy3d@@@internal@io@easy3d@@YAXPEAVGraph@2@AEBV?$vector@V?$GenericProperty@H@io@easy3d@@V?$allocator@V?$GenericProperty@H@io@easy3d@@@std@@@std@@@Z
	??$add_vertex_properties@HV?$GenericProperty@H@io@easy3d@@@internal@io@easy3d@@YAXPEAVSurfaceMesh@2@AEBV?$vector@V?$GenericProperty@H@io@easy3d@@V?$allocator@V?$GenericProperty@H@io@easy3d@@@std@@@std@@@Z
	??$add_vertex_properties@MV?$GenericProperty@M@io@easy3d@@@internal@io@easy3d@@YAXPEAVGraph@2@AEBV?$vector@V?$GenericProperty@M@io@easy3d@@V?$allocator@V?$GenericProperty@M@io@easy3d@@@std@@@std@@@Z
	??$add_vertex_properties@MV?$GenericProperty@M@io@easy3d@@@internal@io@easy3d@@YAXPEAVSurfaceMesh@2@AEBV?$vector@V?$GenericProperty@M@io@easy3d@@V?$allocator@V?$GenericProperty@M@io@easy3d@@@std@@@std@@@Z
	??$add_vertex_properties@V?$Vec@$01M@easy3d@@V?$GenericProperty@V?$Vec@$01M@easy3d@@@io@2@@internal@io@easy3d@@YAXPEAVGraph@2@AEBV?$vector@V?$GenericProperty@V?$Vec@$01M@easy3d@@@io@easy3d@@V?$allocator@V?$GenericProperty@V?$Vec@$01M@easy3d@@@io@easy3d@@@std@@@std@@@Z
	??$add_vertex_properties@V?$Vec@$01M@easy3d@@V?$GenericProperty@V?$Vec@$01M@easy3d@@@io@2@@internal@io@easy3d@@YAXPEAVSurfaceMesh@2@AEBV?$vector@V?$GenericProperty@V?$Vec@$01M@easy3d@@@io@easy3d@@V?$allocator@V?$GenericProperty@V?$Vec@$01M@easy3d@@@io@easy3d@@@std@@@std@@@Z
	??$add_vertex_properties@V?$Vec@$02M@easy3d@@V?$GenericProperty@V?$Vec@$02M@easy3d@@@io@2@@internal@io@easy3d@@YAXPEAVGraph@2@AEBV?$vector@V?$GenericProperty@V?$Vec@$02M@easy3d@@@io@easy3d@@V?$allocator@V?$GenericProperty@V?$Vec@$02M@easy3d@@@io@easy3d@@@std@@@std@@@Z
	??$add_vertex_properties@V?$Vec@$02M@easy3d@@V?$GenericProperty@V?$Vec@$02M@easy3d@@@io@2@@internal@io@easy3d@@YAXPEAVSurfaceMesh@2@AEBV?$vector@V?$GenericProperty@V?$Vec@$02M@easy3d@@@io@easy3d@@V?$allocator@V?$GenericProperty@V?$Vec@$02M@easy3d@@@io@easy3d@@@std@@@std@@@Z
	??$add_vertex_properties@V?$vector@HV?$allocator@H@std@@@std@@V?$GenericProperty@V?$vector@HV?$allocator@H@std@@@std@@@io@easy3d@@@internal@io@easy3d@@YAXPEAVGraph@2@AEBV?$vector@V?$GenericProperty@V?$vector@HV?$allocator@H@std@@@std@@@io@easy3d@@V?$allocator@V?$GenericProperty@V?$vector@HV?$allocator@H@std@@@std@@@io@easy3d@@@std@@@std@@@Z
	??$add_vertex_properties@V?$vector@HV?$allocator@H@std@@@std@@V?$GenericProperty@V?$vector@HV?$allocator@H@std@@@std@@@io@easy3d@@@internal@io@easy3d@@YAXPEAVSurfaceMesh@2@AEBV?$vector@V?$GenericProperty@V?$vector@HV?$allocator@H@std@@@std@@@io@easy3d@@V?$allocator@V?$GenericProperty@V?$vector@HV?$allocator@H@std@@@std@@@io@easy3d@@@std@@@std@@@Z
	??$add_vertex_properties@V?$vector@MV?$allocator@M@std@@@std@@V?$GenericProperty@V?$vector@MV?$allocator@M@std@@@std@@@io@easy3d@@@internal@io@easy3d@@YAXPEAVGraph@2@AEBV?$vector@V?$GenericProperty@V?$vector@MV?$allocator@M@std@@@std@@@io@easy3d@@V?$allocator@V?$GenericProperty@V?$vector@MV?$allocator@M@std@@@std@@@io@easy3d@@@std@@@std@@@Z
	??$add_vertex_properties@V?$vector@MV?$allocator@M@std@@@std@@V?$GenericProperty@V?$vector@MV?$allocator@M@std@@@std@@@io@easy3d@@@internal@io@easy3d@@YAXPEAVSurfaceMesh@2@AEBV?$vector@V?$GenericProperty@V?$vector@MV?$allocator@M@std@@@std@@@io@easy3d@@V?$allocator@V?$GenericProperty@V?$vector@MV?$allocator@M@std@@@std@@@io@easy3d@@@std@@@std@@@Z
	??$collect_edge_properties@H@internal@io@easy3d@@YAXPEBVGraph@2@AEAV?$vector@V?$GenericProperty@H@io@easy3d@@V?$allocator@V?$GenericProperty@H@io@easy3d@@@std@@@std@@@Z
	??$collect_edge_properties@H@internal@io@easy3d@@YAXPEBVSurfaceMesh@2@AEAV?$vector@V?$GenericProperty@H@io@easy3d@@V?$allocator@V?$GenericProperty@H@io@easy3d@@@std@@@std@@@Z
	??$collect_edge_properties@M@internal@io@easy3d@@YAXPEBVGraph@2@AEAV?$vector@V?$GenericProperty@M@io@easy3d@@V?$allocator@V?$GenericProperty@M@io@easy3d@@@std@@@std@@@Z
	??$collect_edge_properties@M@internal@io@easy3d@@YAXPEBVSurfaceMesh@2@AEAV?$vector@V?$GenericProperty@M@io@easy3d@@V?$allocator@V?$GenericProperty@M@io@easy3d@@@std@@@std@@@Z
	??$collect_edge_properties@V?$Vec@$01M@easy3d@@@internal@io@easy3d@@YAXPEBVGraph@2@AEAV?$vector@V?$GenericProperty@V?$Vec@$01M@easy3d@@@io@easy3d@@V?$allocator@V?$GenericProperty@V?$Vec@$01M@easy3d@@@io@easy3d@@@std@@@std@@@Z
	??$collect_edge_properties@V?$Vec@$01M@easy3d@@@internal@io@easy3d@@YAXPEBVSurfaceMesh@2@AEAV?$vector@V?$GenericProperty@V?$Vec@$01M@easy3d@@@io@easy3d@@V?$allocator@V?$GenericProperty@V?$Vec@$01M@easy3d@@@io@easy3d@@@std@@@std@@@Z
	??$collect_edge_properties@V?$Vec@$02M@easy3d@@@internal@io@easy3d@@YAXPEBVGraph@2@AEAV?$vector@V?$GenericProperty@V?$Vec@$02M@easy3d@@@io@easy3d@@V?$allocator@V?$GenericProperty@V?$Vec@$02M@easy3d@@@io@easy3d@@@std@@@std@@@Z
	??$collect_edge_properties@V?$Vec@$02M@easy3d@@@internal@io@easy3d@@YAXPEBVSurfaceMesh@2@AEAV?$vector@V?$GenericProperty@V?$Vec@$02M@easy3d@@@io@easy3d@@V?$allocator@V?$GenericProperty@V?$Vec@$02M@easy3d@@@io@easy3d@@@std@@@std@@@Z
	??$collect_edge_properties@V?$vector@HV?$allocator@H@std@@@std@@@internal@io@easy3d@@YAXPEBVGraph@2@AEAV?$vector@V?$GenericProperty@V?$vector@HV?$allocator@H@std@@@std@@@io@easy3d@@V?$allocator@V?$GenericProperty@V?$vector@HV?$allocator@H@std@@@std@@@io@easy3d@@@std@@@std@@@Z
	??$collect_edge_properties@V?$vector@HV?$allocator@H@std@@@std@@@internal@io@easy3d@@YAXPEBVSurfaceMesh@2@AEAV?$vector@V?$GenericProperty@V?$vector@HV?$allocator@H@std@@@std@@@io@easy3d@@V?$allocator@V?$GenericProperty@V?$vector@HV?$allocator@H@std@@@std@@@io@easy3d@@@std@@@std@@@Z
	??$collect_edge_properties@V?$vector@MV?$allocator@M@std@@@std@@@internal@io@easy3d@@YAXPEBVGraph@2@AEAV?$vector@V?$GenericProperty@V?$vector@MV?$allocator@M@std@@@std@@@io@easy3d@@V?$allocator@V?$GenericProperty@V?$vector@MV?$allocator@M@std@@@std@@@io@easy3d@@@std@@@std@@@Z
	??$collect_edge_properties@V?$vector@MV?$allocator@M@std@@@std@@@internal@io@easy3d@@YAXPEBVSurfaceMesh@2@AEAV?$vector@V?$GenericProperty@V?$vector@MV?$allocator@M@std@@@std@@@io@easy3d@@V?$allocator@V?$GenericProperty@V?$vector@MV?$allocator@M@std@@@std@@@io@easy3d@@@std@@@std@@@Z
	??$collect_face_properties@H@internal@io@easy3d@@YAXPEBVSurfaceMesh@2@AEAV?$vector@V?$GenericProperty@H@io@easy3d@@V?$allocator@V?$GenericProperty@H@io@easy3d@@@std@@@std@@@Z
	??$collect_face_properties@M@internal@io@easy3d@@YAXPEBVSurfaceMesh@2@AEAV?$vector@V?$GenericProperty@M@io@easy3d@@V?$allocator@V?$GenericProperty@M@io@easy3d@@@std@@@std@@@Z
	??$collect_face_properties@V?$Vec@$01M@easy3d@@@internal@io@easy3d@@YAXPEBVSurfaceMesh@2@AEAV?$vector@V?$GenericProperty@V?$Vec@$01M@easy3d@@@io@easy3d@@V?$allocator@V?$GenericProperty@V?$Vec@$01M@easy3d@@@io@easy3d@@@std@@@std@@@Z
	??$collect_face_properties@V?$Vec@$02M@easy3d@@@internal@io@easy3d@@YAXPEBVSurfaceMesh@2@AEAV?$vector@V?$GenericProperty@V?$Vec@$02M@easy3d@@@io@easy3d@@V?$allocator@V?$GenericProperty@V?$Vec@$02M@easy3d@@@io@easy3d@@@std@@@std@@@Z
	??$collect_face_properties@V?$vector@HV?$allocator@H@std@@@std@@@internal@io@easy3d@@YAXPEBVSurfaceMesh@2@AEAV?$vector@V?$GenericProperty@V?$vector@HV?$allocator@H@std@@@std@@@io@easy3d@@V?$allocator@V?$GenericProperty@V?$vector@HV?$allocator@H@std@@@std@@@io@easy3d@@@std@@@std@@@Z
	??$collect_face_properties@V?$vector@MV?$allocator@M@std@@@std@@@internal@io@easy3d@@YAXPEBVSurfaceMesh@2@AEAV?$vector@V?$GenericProperty@V?$vector@MV?$allocator@M@std@@@std@@@io@easy3d@@V?$allocator@V?$GenericProperty@V?$vector@MV?$allocator@M@std@@@std@@@io@easy3d@@@std@@@std@@@Z
	??$collect_properties@H@internal@io@easy3d@@YAXPEBVPointCloud@2@AEAV?$vector@V?$GenericProperty@H@io@easy3d@@V?$allocator@V?$GenericProperty@H@io@easy3d@@@std@@@std@@@Z
	??$collect_properties@M@internal@io@easy3d@@YAXPEBVPointCloud@2@AEAV?$vector@V?$GenericProperty@M@io@easy3d@@V?$allocator@V?$GenericProperty@M@io@easy3d@@@std@@@std@@@Z
	??$collect_properties@V?$Vec@$01M@easy3d@@@internal@io@easy3d@@YAXPEBVPointCloud@2@AEAV?$vector@V?$GenericProperty@V?$Vec@$01M@easy3d@@@io@easy3d@@V?$allocator@V?$GenericProperty@V?$Vec@$01M@easy3d@@@io@easy3d@@@std@@@std@@@Z
	??$collect_properties@V?$Vec@$02M@easy3d@@@internal@io@easy3d@@YAXPEBVPointCloud@2@AEAV?$vector@V?$GenericProperty@V?$Vec@$02M@easy3d@@@io@easy3d@@V?$allocator@V?$GenericProperty@V?$Vec@$02M@easy3d@@@io@easy3d@@@std@@@std@@@Z
	??$collect_properties@V?$vector@HV?$allocator@H@std@@@std@@@internal@io@easy3d@@YAXPEBVPointCloud@2@AEAV?$vector@V?$GenericProperty@V?$vector@HV?$allocator@H@std@@@std@@@io@easy3d@@V?$allocator@V?$GenericProperty@V?$vector@HV?$allocator@H@std@@@std@@@io@easy3d@@@std@@@std@@@Z
	??$collect_properties@V?$vector@MV?$allocator@M@std@@@std@@@internal@io@easy3d@@YAXPEBVPointCloud@2@AEAV?$vector@V?$GenericProperty@V?$vector@MV?$allocator@M@std@@@std@@@io@easy3d@@V?$allocator@V?$GenericProperty@V?$vector@MV?$allocator@M@std@@@std@@@io@easy3d@@@std@@@std@@@Z
	??$collect_vertex_properties@H@internal@io@easy3d@@YAXPEBVGraph@2@AEAV?$vector@V?$GenericProperty@H@io@easy3d@@V?$allocator@V?$GenericProperty@H@io@easy3d@@@std@@@std@@@Z
	??$collect_vertex_properties@H@internal@io@easy3d@@YAXPEBVSurfaceMesh@2@AEAV?$vector@V?$GenericProperty@H@io@easy3d@@V?$allocator@V?$GenericProperty@H@io@easy3d@@@std@@@std@@@Z
	??$collect_vertex_properties@M@internal@io@easy3d@@YAXPEBVGraph@2@AEAV?$vector@V?$GenericProperty@M@io@easy3d@@V?$allocator@V?$GenericProperty@M@io@easy3d@@@std@@@std@@@Z
	??$collect_vertex_properties@M@internal@io@easy3d@@YAXPEBVSurfaceMesh@2@AEAV?$vector@V?$GenericProperty@M@io@easy3d@@V?$allocator@V?$GenericProperty@M@io@easy3d@@@std@@@std@@@Z
	??$collect_vertex_properties@V?$Vec@$01M@easy3d@@@internal@io@easy3d@@YAXPEBVGraph@2@AEAV?$vector@V?$GenericProperty@V?$Vec@$01M@easy3d@@@io@easy3d@@V?$allocator@V?$GenericProperty@V?$Vec@$01M@easy3d@@@io@easy3d@@@std@@@std@@@Z
	??$collect_vertex_properties@V?$Vec@$01M@easy3d@@@internal@io@easy3d@@YAXPEBVSurfaceMesh@2@AEAV?$vector@V?$GenericProperty@V?$Vec@$01M@easy3d@@@io@easy3d@@V?$allocator@V?$GenericProperty@V?$Vec@$01M@easy3d@@@io@easy3d@@@std@@@std@@@Z
	??$collect_vertex_properties@V?$Vec@$02M@easy3d@@@internal@io@easy3d@@YAXPEBVGraph@2@AEAV?$vector@V?$GenericProperty@V?$Vec@$02M@easy3d@@@io@easy3d@@V?$allocator@V?$GenericProperty@V?$Vec@$02M@easy3d@@@io@easy3d@@@std@@@std@@@Z
	??$collect_vertex_properties@V?$Vec@$02M@easy3d@@@internal@io@easy3d@@YAXPEBVSurfaceMesh@2@AEAV?$vector@V?$GenericProperty@V?$Vec@$02M@easy3d@@@io@easy3d@@V?$allocator@V?$GenericProperty@V?$Vec@$02M@easy3d@@@io@easy3d@@@std@@@std@@@Z
	??$collect_vertex_properties@V?$vector@HV?$allocator@H@std@@@std@@@internal@io@easy3d@@YAXPEBVGraph@2@AEAV?$vector@V?$GenericProperty@V?$vector@HV?$allocator@H@std@@@std@@@io@easy3d@@V?$allocator@V?$GenericProperty@V?$vector@HV?$allocator@H@std@@@std@@@io@easy3d@@@std@@@std@@@Z
	??$collect_vertex_properties@V?$vector@HV?$allocator@H@std@@@std@@@internal@io@easy3d@@YAXPEBVSurfaceMesh@2@AEAV?$vector@V?$GenericProperty@V?$vector@HV?$allocator@H@std@@@std@@@io@easy3d@@V?$allocator@V?$GenericProperty@V?$vector@HV?$allocator@H@std@@@std@@@io@easy3d@@@std@@@std@@@Z
	??$collect_vertex_properties@V?$vector@MV?$allocator@M@std@@@std@@@internal@io@easy3d@@YAXPEBVGraph@2@AEAV?$vector@V?$GenericProperty@V?$vector@MV?$allocator@M@std@@@std@@@io@easy3d@@V?$allocator@V?$GenericProperty@V?$vector@MV?$allocator@M@std@@@std@@@io@easy3d@@@std@@@std@@@Z
	??$collect_vertex_properties@V?$vector@MV?$allocator@M@std@@@std@@@internal@io@easy3d@@YAXPEBVSurfaceMesh@2@AEAV?$vector@V?$GenericProperty@V?$vector@MV?$allocator@M@std@@@std@@@io@easy3d@@V?$allocator@V?$GenericProperty@V?$vector@MV?$allocator@M@std@@@std@@@io@easy3d@@@std@@@std@@@Z
	??$construct@Uskin_weight_t@tinyobj@@AEBU12@@?$_Default_allocator_traits@V?$allocator@Uskin_weight_t@tinyobj@@@std@@@std@@SAXAEAV?$allocator@Uskin_weight_t@tinyobj@@@1@QEAUskin_weight_t@tinyobj@@AEBU34@@Z
	??$convert@NH@internal@io@easy3d@@YAXAEBV?$GenericProperty@N@12@AEAV?$GenericProperty@H@12@@Z
	??$convert@NH@internal@io@easy3d@@YAXAEBV?$GenericProperty@V?$vector@NV?$allocator@N@std@@@std@@@12@AEAV?$GenericProperty@V?$vector@HV?$allocator@H@std@@@std@@@12@@Z
	??$convert@NM@internal@io@easy3d@@YAXAEBV?$GenericProperty@N@12@AEAV?$GenericProperty@M@12@@Z
	??$convert@NM@internal@io@easy3d@@YAXAEBV?$GenericProperty@V?$vector@NV?$allocator@N@std@@@std@@@12@AEAV?$GenericProperty@V?$vector@MV?$allocator@M@std@@@std@@@12@@Z
	??$create@V?$basic_json@Vmap@std@@Vvector@2@V?$basic_string@DU?$char_traits@D@std@@V?$allocator@D@2@@2@_N_J_KNVallocator@2@Uadl_serializer@nlohmann@@V?$vector@EV?$allocator@E@std@@@2@@nlohmann@@@invalid_iterator@detail@nlohmann@@SA?AV012@HAEBV?$basic_string@DU?$char_traits@D@std@@V?$allocator@D@2@@std@@AEBV?$basic_json@Vmap@std@@Vvector@2@V?$basic_string@DU?$char_traits@D@std@@V?$allocator@D@2@@2@_N_J_KNVallocator@2@Uadl_serializer@nlohmann@@V?$vector@EV?$allocator@E@std@@@2@@2@@Z
	??$create@V?$basic_json@Vmap@std@@Vvector@2@V?$basic_string@DU?$char_traits@D@std@@V?$allocator@D@2@@2@_N_J_KNVallocator@2@Uadl_serializer@nlohmann@@V?$vector@EV?$allocator@E@std@@@2@@nlohmann@@@other_error@detail@nlohmann@@SA?AV012@HAEBV?$basic_string@DU?$char_traits@D@std@@V?$allocator@D@2@@std@@AEBV?$basic_json@Vmap@std@@Vvector@2@V?$basic_string@DU?$char_traits@D@std@@V?$allocator@D@2@@2@_N_J_KNVallocator@2@Uadl_serializer@nlohmann@@V?$vector@EV?$allocator@E@std@@@2@@2@@Z
	??$create@V?$basic_json@Vmap@std@@Vvector@2@V?$basic_string@DU?$char_traits@D@std@@V?$allocator@D@2@@2@_N_J_KNVallocator@2@Uadl_serializer@nlohmann@@V?$vector@EV?$allocator@E@std@@@2@@nlohmann@@@out_of_range@detail@nlohmann@@SA?AV012@HAEBV?$basic_string@DU?$char_traits@D@std@@V?$allocator@D@2@@std@@AEBV?$basic_json@Vmap@std@@Vvector@2@V?$basic_string@DU?$char_traits@D@std@@V?$allocator@D@2@@2@_N_J_KNVallocator@2@Uadl_serializer@nlohmann@@V?$vector@EV?$allocator@E@std@@@2@@2@@Z
	??$create@V?$basic_json@Vmap@std@@Vvector@2@V?$basic_string@DU?$char_traits@D@std@@V?$allocator@D@2@@2@_N_J_KNVallocator@2@Uadl_serializer@nlohmann@@V?$vector@EV?$allocator@E@std@@@2@@nlohmann@@@parse_error@detail@nlohmann@@SA?AV012@HAEBUposition_t@12@AEBV?$basic_string@DU?$char_traits@D@std@@V?$allocator@D@2@@std@@AEBV?$basic_json@Vmap@std@@Vvector@2@V?$basic_string@DU?$char_traits@D@std@@V?$allocator@D@2@@2@_N_J_KNVallocator@2@Uadl_serializer@nlohmann@@V?$vector@EV?$allocator@E@std@@@2@@2@@Z
	??$create@V?$basic_json@Vmap@std@@Vvector@2@V?$basic_string@DU?$char_traits@D@std@@V?$allocator@D@2@@2@_N_J_KNVallocator@2@Uadl_serializer@nlohmann@@V?$vector@EV?$allocator@E@std@@@2@@nlohmann@@@type_error@detail@nlohmann@@SA?AV012@HAEBV?$basic_string@DU?$char_traits@D@std@@V?$allocator@D@2@@std@@AEBV?$basic_json@Vmap@std@@Vvector@2@V?$basic_string@DU?$char_traits@D@std@@V?$allocator@D@2@@2@_N_J_KNVallocator@2@Uadl_serializer@nlohmann@@V?$vector@EV?$allocator@E@std@@@2@@2@@Z
	??$emplace_back@UElement@io@easy3d@@@?$vector@UElement@io@easy3d@@V?$allocator@UElement@io@easy3d@@@std@@@std@@QEAA?A_T$$QEAUElement@io@easy3d@@@Z
	??$endl@DU?$char_traits@D@std@@@std@@YAAEAV?$basic_ostream@DU?$char_traits@D@std@@@0@AEAV10@@Z
	??$erase@V?$iter_impl@V?$basic_json@Vmap@std@@Vvector@2@V?$basic_string@DU?$char_traits@D@std@@V?$allocator@D@2@@2@_N_J_KNVallocator@2@Uadl_serializer@nlohmann@@V?$vector@EV?$allocator@E@std@@@2@@nlohmann@@@detail@nlohmann@@$0A@@?$basic_json@Vmap@std@@Vvector@2@V?$basic_string@DU?$char_traits@D@std@@V?$allocator@D@2@@2@_N_J_KNVallocator@2@Uadl_serializer@nlohmann@@V?$vector@EV?$allocator@E@std@@@2@@nlohmann@@QEAA?AV?$iter_impl@V?$basic_json@Vmap@std@@Vvector@2@V?$basic_string@DU?$char_traits@D@std@@V?$allocator@D@2@@2@_N_J_KNVallocator@2@Uadl_serializer@nlohmann@@V?$vector@EV?$allocator@E@std@@@2@@nlohmann@@@detail@1@V231@@Z
	??$extract_named_property@V?$GenericProperty@H@io@easy3d@@@internal@io@easy3d@@YA_NAEAV?$vector@V?$GenericProperty@H@io@easy3d@@V?$allocator@V?$GenericProperty@H@io@easy3d@@@std@@@std@@AEAV?$GenericProperty@H@12@AEBV?$basic_string@DU?$char_traits@D@std@@V?$allocator@D@2@@4@@Z
	??$extract_named_property@V?$GenericProperty@M@io@easy3d@@@internal@io@easy3d@@YA_NAEAV?$vector@V?$GenericProperty@M@io@easy3d@@V?$allocator@V?$GenericProperty@M@io@easy3d@@@std@@@std@@AEAV?$GenericProperty@M@12@AEBV?$basic_string@DU?$char_traits@D@std@@V?$allocator@D@2@@4@@Z
	??$extract_named_property@V?$GenericProperty@V?$Vec@$02M@easy3d@@@io@easy3d@@@internal@io@easy3d@@YA_NAEAV?$vector@V?$GenericProperty@V?$Vec@$02M@easy3d@@@io@easy3d@@V?$allocator@V?$GenericProperty@V?$Vec@$02M@easy3d@@@io@easy3d@@@std@@@std@@AEAV?$GenericProperty@V?$Vec@$02M@easy3d@@@12@AEBV?$basic_string@DU?$char_traits@D@std@@V?$allocator@D@2@@4@@Z
	??$extract_named_property@V?$GenericProperty@V?$vector@HV?$allocator@H@std@@@std@@@io@easy3d@@@internal@io@easy3d@@YA_NAEAV?$vector@V?$GenericProperty@V?$vector@HV?$allocator@H@std@@@std@@@io@easy3d@@V?$allocator@V?$GenericProperty@V?$vector@HV?$allocator@H@std@@@std@@@io@easy3d@@@std@@@std@@AEAV?$GenericProperty@V?$vector@HV?$allocator@H@std@@@std@@@12@AEBV?$basic_string@DU?$char_traits@D@std@@V?$allocator@D@2@@4@@Z
	??$extract_named_property@V?$GenericProperty@V?$vector@MV?$allocator@M@std@@@std@@@io@easy3d@@@internal@io@easy3d@@YA_NAEAV?$vector@V?$GenericProperty@V?$vector@MV?$allocator@M@std@@@std@@@io@easy3d@@V?$allocator@V?$GenericProperty@V?$vector@MV?$allocator@M@std@@@std@@@io@easy3d@@@std@@@std@@AEAV?$GenericProperty@V?$vector@MV?$allocator@M@std@@@std@@@12@AEBV?$basic_string@DU?$char_traits@D@std@@V?$allocator@D@2@@4@@Z
	??$extract_vector_property@V?$GenericProperty@H@io@easy3d@@@internal@io@easy3d@@YA_NAEAV?$vector@V?$GenericProperty@H@io@easy3d@@V?$allocator@V?$GenericProperty@H@io@easy3d@@@std@@@std@@AEBV?$basic_string@DU?$char_traits@D@std@@V?$allocator@D@2@@4@11AEAV?$GenericProperty@V?$Vec@$02M@easy3d@@@12@@Z
	??$extract_vector_property@V?$GenericProperty@M@io@easy3d@@@internal@io@easy3d@@YA_NAEAV?$vector@V?$GenericProperty@M@io@easy3d@@V?$allocator@V?$GenericProperty@M@io@easy3d@@@std@@@std@@AEBV?$basic_string@DU?$char_traits@D@std@@V?$allocator@D@2@@4@11AEAV?$GenericProperty@V?$Vec@$02M@easy3d@@@12@@Z
	??$extract_vector_property@V?$GenericProperty@M@io@easy3d@@@internal@io@easy3d@@YA_NAEAV?$vector@V?$GenericProperty@M@io@easy3d@@V?$allocator@V?$GenericProperty@M@io@easy3d@@@std@@@std@@AEBV?$basic_string@DU?$char_traits@D@std@@V?$allocator@D@2@@4@1AEAV?$GenericProperty@V?$Vec@$01M@easy3d@@@12@@Z
	??$fill@PEAV?$_List_unchecked_iterator@V?$_List_val@U?$_List_simple_types@U?$pair@$$CBHV?$unordered_map@HVVertexGroup@PointCloudIO_vg@io@easy3d@@U?$hash@H@std@@U?$equal_to@H@6@V?$allocator@U?$pair@$$CBHVVertexGroup@PointCloudIO_vg@io@easy3d@@@std@@@6@@std@@@std@@@std@@@std@@@std@@V12@@std@@YAXQEAV?$_List_unchecked_iterator@V?$_List_val@U?$_List_simple_types@U?$pair@$$CBHV?$unordered_map@HVVertexGroup@PointCloudIO_vg@io@easy3d@@U?$hash@H@std@@U?$equal_to@H@6@V?$allocator@U?$pair@$$CBHVVertexGroup@PointCloudIO_vg@io@easy3d@@@std@@@6@@std@@@std@@@std@@@std@@@0@0AEBV10@@Z
	??$fill@PEAV?$_List_unchecked_iterator@V?$_List_val@U?$_List_simple_types@U?$pair@$$CBHVVertexGroup@PointCloudIO_vg@io@easy3d@@@std@@@std@@@std@@@std@@V12@@std@@YAXQEAV?$_List_unchecked_iterator@V?$_List_val@U?$_List_simple_types@U?$pair@$$CBHVVertexGroup@PointCloudIO_vg@io@easy3d@@@std@@@std@@@std@@@0@0AEBV10@@Z
	??$fill@PEAV?$_List_unchecked_iterator@V?$_List_val@U?$_List_simple_types@U?$pair@$$CBV?$basic_string@DU?$char_traits@D@std@@V?$allocator@D@2@@std@@PEAUElement@io@easy3d@@@std@@@std@@@std@@@std@@V12@@std@@YAXQEAV?$_List_unchecked_iterator@V?$_List_val@U?$_List_simple_types@U?$pair@$$CBV?$basic_string@DU?$char_traits@D@std@@V?$allocator@D@2@@std@@PEAUElement@io@easy3d@@@std@@@std@@@std@@@0@0AEBV10@@Z
	??$fill@PEAV?$_List_unchecked_iterator@V?$_List_val@U?$_List_simple_types@U?$pair@$$CBV?$basic_string@DU?$char_traits@D@std@@V?$allocator@D@2@@std@@_K@std@@@std@@@std@@@std@@V12@@std@@YAXQEAV?$_List_unchecked_iterator@V?$_List_val@U?$_List_simple_types@U?$pair@$$CBV?$basic_string@DU?$char_traits@D@std@@V?$allocator@D@2@@std@@_K@std@@@std@@@std@@@0@0AEBV10@@Z
	??$find@AEAY04$$CBD@?$basic_json@Vmap@std@@Vvector@2@V?$basic_string@DU?$char_traits@D@std@@V?$allocator@D@2@@2@_N_J_KNVallocator@2@Uadl_serializer@nlohmann@@V?$vector@EV?$allocator@E@std@@@2@@nlohmann@@QEBA?AV?$iter_impl@$$CBV?$basic_json@Vmap@std@@Vvector@2@V?$basic_string@DU?$char_traits@D@std@@V?$allocator@D@2@@2@_N_J_KNVallocator@2@Uadl_serializer@nlohmann@@V?$vector@EV?$allocator@E@std@@@2@@nlohmann@@@detail@1@AEAY04$$CBD@Z
	??$find@AEAY08$$CBD@?$basic_json@Vmap@std@@Vvector@2@V?$basic_string@DU?$char_traits@D@std@@V?$allocator@D@2@@2@_N_J_KNVallocator@2@Uadl_serializer@nlohmann@@V?$vector@EV?$allocator@E@std@@@2@@nlohmann@@QEAA?AV?$iter_impl@V?$basic_json@Vmap@std@@Vvector@2@V?$basic_string@DU?$char_traits@D@std@@V?$allocator@D@2@@2@_N_J_KNVallocator@2@Uadl_serializer@nlohmann@@V?$vector@EV?$allocator@E@std@@@2@@nlohmann@@@detail@1@AEAY08$$CBD@Z
	??$find@AEAY08$$CBD@?$basic_json@Vmap@std@@Vvector@2@V?$basic_string@DU?$char_traits@D@std@@V?$allocator@D@2@@2@_N_J_KNVallocator@2@Uadl_serializer@nlohmann@@V?$vector@EV?$allocator@E@std@@@2@@nlohmann@@QEBA?AV?$iter_impl@$$CBV?$basic_json@Vmap@std@@Vvector@2@V?$basic_string@DU?$char_traits@D@std@@V?$allocator@D@2@@2@_N_J_KNVallocator@2@Uadl_serializer@nlohmann@@V?$vector@EV?$allocator@E@std@@@2@@nlohmann@@@detail@1@AEAY08$$CBD@Z
	??$find@AEAY0M@$$CBD@?$basic_json@Vmap@std@@Vvector@2@V?$basic_string@DU?$char_traits@D@std@@V?$allocator@D@2@@2@_N_J_KNVallocator@2@Uadl_serializer@nlohmann@@V?$vector@EV?$allocator@E@std@@@2@@nlohmann@@QEBA?AV?$iter_impl@$$CBV?$basic_json@Vmap@std@@Vvector@2@V?$basic_string@DU?$char_traits@D@std@@V?$allocator@D@2@@2@_N_J_KNVallocator@2@Uadl_serializer@nlohmann@@V?$vector@EV?$allocator@E@std@@@2@@nlohmann@@@detail@1@AEAY0M@$$CBD@Z
	??$find@X@?$_Hash@V?$_Umap_traits@V?$basic_string@DU?$char_traits@D@std@@V?$allocator@D@2@@std@@_KV?$_Uhash_compare@V?$basic_string@DU?$char_traits@D@std@@V?$allocator@D@2@@std@@U?$hash@V?$basic_string@DU?$char_traits@D@std@@V?$allocator@D@2@@std@@@2@U?$equal_to@V?$basic_string@DU?$char_traits@D@std@@V?$allocator@D@2@@std@@@2@@2@V?$allocator@U?$pair@$$CBV?$basic_string@DU?$char_traits@D@std@@V?$allocator@D@2@@std@@_K@std@@@2@$0A@@std@@@std@@QEAA?AV?$_List_iterator@V?$_List_val@U?$_List_simple_types@U?$pair@$$CBV?$basic_string@DU?$char_traits@D@std@@V?$allocator@D@2@@std@@_K@std@@@std@@@std@@@1@AEBV?$basic_string@DU?$char_traits@D@std@@V?$allocator@D@2@@1@@Z
	??$from_json@V?$basic_json@Vmap@std@@Vvector@2@V?$basic_string@DU?$char_traits@D@std@@V?$allocator@D@2@@2@_N_J_KNVallocator@2@Uadl_serializer@nlohmann@@V?$vector@EV?$allocator@E@std@@@2@@nlohmann@@@detail@nlohmann@@YAXAEBV?$basic_json@Vmap@std@@Vvector@2@V?$basic_string@DU?$char_traits@D@std@@V?$allocator@D@2@@2@_N_J_KNVallocator@2@Uadl_serializer@nlohmann@@V?$vector@EV?$allocator@E@std@@@2@@1@AEAN@Z
	??$get@H@PropertyContainer@easy3d@@QEBA?AV?$Property@H@1@AEBV?$basic_string@DU?$char_traits@D@std@@V?$allocator@D@2@@std@@@Z
	??$get@M@PropertyContainer@easy3d@@QEBA?AV?$Property@M@1@AEBV?$basic_string@DU?$char_traits@D@std@@V?$allocator@D@2@@std@@@Z
	??$get@UCellConnectivity@PolyMesh@easy3d@@@PropertyContainer@easy3d@@QEBA?AV?$Property@UCellConnectivity@PolyMesh@easy3d@@@1@AEBV?$basic_string@DU?$char_traits@D@std@@V?$allocator@D@2@@std@@@Z
	??$get@UEdgeConnectivity@PolyMesh@easy3d@@@PropertyContainer@easy3d@@QEBA?AV?$Property@UEdgeConnectivity@PolyMesh@easy3d@@@1@AEBV?$basic_string@DU?$char_traits@D@std@@V?$allocator@D@2@@std@@@Z
	??$get@UFaceConnectivity@SurfaceMesh@easy3d@@@PropertyContainer@easy3d@@QEBA?AV?$Property@UFaceConnectivity@SurfaceMesh@easy3d@@@1@AEBV?$basic_string@DU?$char_traits@D@std@@V?$allocator@D@2@@std@@@Z
	??$get@UHalfFaceConnectivity@PolyMesh@easy3d@@@PropertyContainer@easy3d@@QEBA?AV?$Property@UHalfFaceConnectivity@PolyMesh@easy3d@@@1@AEBV?$basic_string@DU?$char_traits@D@std@@V?$allocator@D@2@@std@@@Z
	??$get@UHalfedgeConnectivity@SurfaceMesh@easy3d@@@PropertyContainer@easy3d@@QEBA?AV?$Property@UHalfedgeConnectivity@SurfaceMesh@easy3d@@@1@AEBV?$basic_string@DU?$char_traits@D@std@@V?$allocator@D@2@@std@@@Z
	??$get@UVertexConnectivity@PolyMesh@easy3d@@@PropertyContainer@easy3d@@QEBA?AV?$Property@UVertexConnectivity@PolyMesh@easy3d@@@1@AEBV?$basic_string@DU?$char_traits@D@std@@V?$allocator@D@2@@std@@@Z
	??$get@UVertexConnectivity@SurfaceMesh@easy3d@@@PropertyContainer@easy3d@@QEBA?AV?$Property@UVertexConnectivity@SurfaceMesh@easy3d@@@1@AEBV?$basic_string@DU?$char_traits@D@std@@V?$allocator@D@2@@std@@@Z
	??$get@V?$Vec@$01M@easy3d@@@PropertyContainer@easy3d@@QEBA?AV?$Property@V?$Vec@$01M@easy3d@@@1@AEBV?$basic_string@DU?$char_traits@D@std@@V?$allocator@D@2@@std@@@Z
	??$get@V?$Vec@$02M@easy3d@@@PropertyContainer@easy3d@@QEBA?AV?$Property@V?$Vec@$02M@easy3d@@@1@AEBV?$basic_string@DU?$char_traits@D@std@@V?$allocator@D@2@@std@@@Z
	??$get@V?$vector@HV?$allocator@H@std@@@std@@@PropertyContainer@easy3d@@QEBA?AV?$Property@V?$vector@HV?$allocator@H@std@@@std@@@1@AEBV?$basic_string@DU?$char_traits@D@std@@V?$allocator@D@2@@std@@@Z
	??$get@V?$vector@MV?$allocator@M@std@@@std@@@PropertyContainer@easy3d@@QEBA?AV?$Property@V?$vector@MV?$allocator@M@std@@@std@@@1@AEBV?$basic_string@DU?$char_traits@D@std@@V?$allocator@D@2@@std@@@Z
	??$get_arithmetic_value@V?$basic_json@Vmap@std@@Vvector@2@V?$basic_string@DU?$char_traits@D@std@@V?$allocator@D@2@@2@_N_J_KNVallocator@2@Uadl_serializer@nlohmann@@V?$vector@EV?$allocator@E@std@@@2@@nlohmann@@N$0A@@detail@nlohmann@@YAXAEBV?$basic_json@Vmap@std@@Vvector@2@V?$basic_string@DU?$char_traits@D@std@@V?$allocator@D@2@@2@_N_J_KNVallocator@2@Uadl_serializer@nlohmann@@V?$vector@EV?$allocator@E@std@@@2@@1@AEAN@Z
	??$get_vertex_property@V?$Vec@$02M@easy3d@@@PointCloud@easy3d@@QEBA?AV?$VertexProperty@V?$Vec@$02M@easy3d@@@01@AEBV?$basic_string@DU?$char_traits@D@std@@V?$allocator@D@2@@std@@@Z
	??$getline@DU?$char_traits@D@std@@V?$allocator@D@2@@std@@YAAEAV?$basic_istream@DU?$char_traits@D@std@@@0@$$QEAV10@AEAV?$basic_string@DU?$char_traits@D@std@@V?$allocator@D@2@@0@D@Z
	??$getline@DU?$char_traits@D@std@@V?$allocator@D@2@@std@@YAAEAV?$basic_istream@DU?$char_traits@D@std@@@0@AEAV10@AEAV?$basic_string@DU?$char_traits@D@std@@V?$allocator@D@2@@0@@Z
	??$getline@DU?$char_traits@D@std@@V?$allocator@D@2@@std@@YAAEAV?$basic_istream@DU?$char_traits@D@std@@@0@AEAV10@AEAV?$basic_string@DU?$char_traits@D@std@@V?$allocator@D@2@@0@D@Z
	??$handle_value@$$T@?$json_sax_dom_callback_parser@V?$basic_json@Vmap@std@@Vvector@2@V?$basic_string@DU?$char_traits@D@std@@V?$allocator@D@2@@2@_N_J_KNVallocator@2@Uadl_serializer@nlohmann@@V?$vector@EV?$allocator@E@std@@@2@@nlohmann@@@detail@nlohmann@@AEAA?AU?$pair@_NPEAV?$basic_json@Vmap@std@@Vvector@2@V?$basic_string@DU?$char_traits@D@std@@V?$allocator@D@2@@2@_N_J_KNVallocator@2@Uadl_serializer@nlohmann@@V?$vector@EV?$allocator@E@std@@@2@@nlohmann@@@std@@$$QEA$$T_N@Z
	??$handle_value@AEAN@?$json_sax_dom_callback_parser@V?$basic_json@Vmap@std@@Vvector@2@V?$basic_string@DU?$char_traits@D@std@@V?$allocator@D@2@@2@_N_J_KNVallocator@2@Uadl_serializer@nlohmann@@V?$vector@EV?$allocator@E@std@@@2@@nlohmann@@@detail@nlohmann@@AEAA?AU?$pair@_NPEAV?$basic_json@Vmap@std@@Vvector@2@V?$basic_string@DU?$char_traits@D@std@@V?$allocator@D@2@@2@_N_J_KNVallocator@2@Uadl_serializer@nlohmann@@V?$vector@EV?$allocator@E@std@@@2@@nlohmann@@@std@@AEAN_N@Z
	??$handle_value@AEAN@?$json_sax_dom_parser@V?$basic_json@Vmap@std@@Vvector@2@V?$basic_string@DU?$char_traits@D@std@@V?$allocator@D@2@@2@_N_J_KNVallocator@2@Uadl_serializer@nlohmann@@V?$vector@EV?$allocator@E@std@@@2@@nlohmann@@@detail@nlohmann@@AEAAPEAV?$basic_json@Vmap@std@@Vvector@2@V?$basic_string@DU?$char_traits@D@std@@V?$allocator@D@2@@2@_N_J_KNVallocator@2@Uadl_serializer@nlohmann@@V?$vector@EV?$allocator@E@std@@@2@@2@AEAN@Z
	??$handle_value@AEAV?$basic_string@DU?$char_traits@D@std@@V?$allocator@D@2@@std@@@?$json_sax_dom_callback_parser@V?$basic_json@Vmap@std@@Vvector@2@V?$basic_string@DU?$char_traits@D@std@@V?$allocator@D@2@@2@_N_J_KNVallocator@2@Uadl_serializer@nlohmann@@V?$vector@EV?$allocator@E@std@@@2@@nlohmann@@@detail@nlohmann@@AEAA?AU?$pair@_NPEAV?$basic_json@Vmap@std@@Vvector@2@V?$basic_string@DU?$char_traits@D@std@@V?$allocator@D@2@@2@_N_J_KNVallocator@2@Uadl_serializer@nlohmann@@V?$vector@EV?$allocator@E@std@@@2@@nlohmann@@@std@@AEAV?$basic_string@DU?$char_traits@D@std@@V?$allocator@D@2@@4@_N@Z
	??$handle_value@AEAV?$basic_string@DU?$char_traits@D@std@@V?$allocator@D@2@@std@@@?$json_sax_dom_parser@V?$basic_json@Vmap@std@@Vvector@2@V?$basic_string@DU?$char_traits@D@std@@V?$allocator@D@2@@2@_N_J_KNVallocator@2@Uadl_serializer@nlohmann@@V?$vector@EV?$allocator@E@std@@@2@@nlohmann@@@detail@nlohmann@@AEAAPEAV?$basic_json@Vmap@std@@Vvector@2@V?$basic_string@DU?$char_traits@D@std@@V?$allocator@D@2@@2@_N_J_KNVallocator@2@Uadl_serializer@nlohmann@@V?$vector@EV?$allocator@E@std@@@2@@2@AEAV?$basic_string@DU?$char_traits@D@std@@V?$allocator@D@2@@std@@@Z
	??$handle_value@AEA_J@?$json_sax_dom_callback_parser@V?$basic_json@Vmap@std@@Vvector@2@V?$basic_string@DU?$char_traits@D@std@@V?$allocator@D@2@@2@_N_J_KNVallocator@2@Uadl_serializer@nlohmann@@V?$vector@EV?$allocator@E@std@@@2@@nlohmann@@@detail@nlohmann@@AEAA?AU?$pair@_NPEAV?$basic_json@Vmap@std@@Vvector@2@V?$basic_string@DU?$char_traits@D@std@@V?$allocator@D@2@@2@_N_J_KNVallocator@2@Uadl_serializer@nlohmann@@V?$vector@EV?$allocator@E@std@@@2@@nlohmann@@@std@@AEA_J_N@Z
	??$handle_value@AEA_J@?$json_sax_dom_parser@V?$basic_json@Vmap@std@@Vvector@2@V?$basic_string@DU?$char_traits@D@std@@V?$allocator@D@2@@2@_N_J_KNVallocator@2@Uadl_serializer@nlohmann@@V?$vector@EV?$allocator@E@std@@@2@@nlohmann@@@detail@nlohmann@@AEAAPEAV?$basic_json@Vmap@std@@Vvector@2@V?$basic_string@DU?$char_traits@D@std@@V?$allocator@D@2@@2@_N_J_KNVallocator@2@Uadl_serializer@nlohmann@@V?$vector@EV?$allocator@E@std@@@2@@2@AEA_J@Z
	??$handle_value@AEA_K@?$json_sax_dom_callback_parser@V?$basic_json@Vmap@std@@Vvector@2@V?$basic_string@DU?$char_traits@D@std@@V?$allocator@D@2@@2@_N_J_KNVallocator@2@Uadl_serializer@nlohmann@@V?$vector@EV?$allocator@E@std@@@2@@nlohmann@@@detail@nlohmann@@AEAA?AU?$pair@_NPEAV?$basic_json@Vmap@std@@Vvector@2@V?$basic_string@DU?$char_traits@D@std@@V?$allocator@D@2@@2@_N_J_KNVallocator@2@Uadl_serializer@nlohmann@@V?$vector@EV?$allocator@E@std@@@2@@nlohmann@@@std@@AEA_K_N@Z
	??$handle_value@AEA_K@?$json_sax_dom_parser@V?$basic_json@Vmap@std@@Vvector@2@V?$basic_string@DU?$char_traits@D@std@@V?$allocator@D@2@@2@_N_J_KNVallocator@2@Uadl_serializer@nlohmann@@V?$vector@EV?$allocator@E@std@@@2@@nlohmann@@@detail@nlohmann@@AEAAPEAV?$basic_json@Vmap@std@@Vvector@2@V?$basic_string@DU?$char_traits@D@std@@V?$allocator@D@2@@2@_N_J_KNVallocator@2@Uadl_serializer@nlohmann@@V?$vector@EV?$allocator@E@std@@@2@@2@AEA_K@Z
	??$handle_value@AEA_N@?$json_sax_dom_callback_parser@V?$basic_json@Vmap@std@@Vvector@2@V?$basic_string@DU?$char_traits@D@std@@V?$allocator@D@2@@2@_N_J_KNVallocator@2@Uadl_serializer@nlohmann@@V?$vector@EV?$allocator@E@std@@@2@@nlohmann@@@detail@nlohmann@@AEAA?AU?$pair@_NPEAV?$basic_json@Vmap@std@@Vvector@2@V?$basic_string@DU?$char_traits@D@std@@V?$allocator@D@2@@2@_N_J_KNVallocator@2@Uadl_serializer@nlohmann@@V?$vector@EV?$allocator@E@std@@@2@@nlohmann@@@std@@AEA_N_N@Z
	??$handle_value@AEA_N@?$json_sax_dom_parser@V?$basic_json@Vmap@std@@Vvector@2@V?$basic_string@DU?$char_traits@D@std@@V?$allocator@D@2@@2@_N_J_KNVallocator@2@Uadl_serializer@nlohmann@@V?$vector@EV?$allocator@E@std@@@2@@nlohmann@@@detail@nlohmann@@AEAAPEAV?$basic_json@Vmap@std@@Vvector@2@V?$basic_string@DU?$char_traits@D@std@@V?$allocator@D@2@@2@_N_J_KNVallocator@2@Uadl_serializer@nlohmann@@V?$vector@EV?$allocator@E@std@@@2@@2@AEA_N@Z
	??$handle_value@W4value_t@detail@nlohmann@@@?$json_sax_dom_callback_parser@V?$basic_json@Vmap@std@@Vvector@2@V?$basic_string@DU?$char_traits@D@std@@V?$allocator@D@2@@2@_N_J_KNVallocator@2@Uadl_serializer@nlohmann@@V?$vector@EV?$allocator@E@std@@@2@@nlohmann@@@detail@nlohmann@@AEAA?AU?$pair@_NPEAV?$basic_json@Vmap@std@@Vvector@2@V?$basic_string@DU?$char_traits@D@std@@V?$allocator@D@2@@2@_N_J_KNVallocator@2@Uadl_serializer@nlohmann@@V?$vector@EV?$allocator@E@std@@@2@@nlohmann@@@std@@$$QEAW4value_t@12@_N@Z
	??$handle_value@W4value_t@detail@nlohmann@@@?$json_sax_dom_parser@V?$basic_json@Vmap@std@@Vvector@2@V?$basic_string@DU?$char_traits@D@std@@V?$allocator@D@2@@2@_N_J_KNVallocator@2@Uadl_serializer@nlohmann@@V?$vector@EV?$allocator@E@std@@@2@@nlohmann@@@detail@nlohmann@@AEAAPEAV?$basic_json@Vmap@std@@Vvector@2@V?$basic_string@DU?$char_traits@D@std@@V?$allocator@D@2@@2@_N_J_KNVallocator@2@Uadl_serializer@nlohmann@@V?$vector@EV?$allocator@E@std@@@2@@2@$$QEAW4value_t@12@@Z
	??$insert@$0A@$0A@@?$_Tree@V?$_Tset_traits@V?$basic_string@DU?$char_traits@D@std@@V?$allocator@D@2@@std@@U?$less@V?$basic_string@DU?$char_traits@D@std@@V?$allocator@D@2@@std@@@2@V?$allocator@V?$basic_string@DU?$char_traits@D@std@@V?$allocator@D@2@@std@@@2@$0A@@std@@@std@@QEAA?AU?$pair@V?$_Tree_const_iterator@V?$_Tree_val@U?$_Tree_simple_types@V?$basic_string@DU?$char_traits@D@std@@V?$allocator@D@2@@std@@@std@@@std@@@std@@_N@1@AEBV?$basic_string@DU?$char_traits@D@std@@V?$allocator@D@2@@1@@Z
	??$insert@U?$pair@V?$basic_string@DU?$char_traits@D@std@@V?$allocator@D@2@@std@@H@std@@$0A@@?$map@V?$basic_string@DU?$char_traits@D@std@@V?$allocator@D@2@@std@@HU?$less@V?$basic_string@DU?$char_traits@D@std@@V?$allocator@D@2@@std@@@2@V?$allocator@U?$pair@$$CBV?$basic_string@DU?$char_traits@D@std@@V?$allocator@D@2@@std@@H@std@@@2@@std@@QEAA?AU?$pair@V?$_Tree_iterator@V?$_Tree_val@U?$_Tree_simple_types@U?$pair@$$CBV?$basic_string@DU?$char_traits@D@std@@V?$allocator@D@2@@std@@H@std@@@std@@@std@@@std@@_N@1@$$QEAU?$pair@V?$basic_string@DU?$char_traits@D@std@@V?$allocator@D@2@@std@@H@1@@Z
	??$length@$02M@easy3d@@YAMAEBV?$Vec@$02M@0@@Z
	??$parse_error@V0detail@nlohmann@@@?$json_sax_dom_callback_parser@V?$basic_json@Vmap@std@@Vvector@2@V?$basic_string@DU?$char_traits@D@std@@V?$allocator@D@2@@2@_N_J_KNVallocator@2@Uadl_serializer@nlohmann@@V?$vector@EV?$allocator@E@std@@@2@@nlohmann@@@detail@nlohmann@@QEAA_N_KAEBV?$basic_string@DU?$char_traits@D@std@@V?$allocator@D@2@@std@@AEBVparse_error@12@@Z
	??$parse_error@V0detail@nlohmann@@@?$json_sax_dom_parser@V?$basic_json@Vmap@std@@Vvector@2@V?$basic_string@DU?$char_traits@D@std@@V?$allocator@D@2@@2@_N_J_KNVallocator@2@Uadl_serializer@nlohmann@@V?$vector@EV?$allocator@E@std@@@2@@nlohmann@@@detail@nlohmann@@QEAA_N_KAEBV?$basic_string@DU?$char_traits@D@std@@V?$allocator@D@2@@std@@AEBVparse_error@12@@Z
	??$parse_error@Vout_of_range@detail@nlohmann@@@?$json_sax_dom_callback_parser@V?$basic_json@Vmap@std@@Vvector@2@V?$basic_string@DU?$char_traits@D@std@@V?$allocator@D@2@@2@_N_J_KNVallocator@2@Uadl_serializer@nlohmann@@V?$vector@EV?$allocator@E@std@@@2@@nlohmann@@@detail@nlohmann@@QEAA_N_KAEBV?$basic_string@DU?$char_traits@D@std@@V?$allocator@D@2@@std@@AEBVout_of_range@12@@Z
	??$parser@Vinput_stream_adapter@detail@nlohmann@@@?$basic_json@Vmap@std@@Vvector@2@V?$basic_string@DU?$char_traits@D@std@@V?$allocator@D@2@@2@_N_J_KNVallocator@2@Uadl_serializer@nlohmann@@V?$vector@EV?$allocator@E@std@@@2@@nlohmann@@CA?AV?$parser@V?$basic_json@Vmap@std@@Vvector@2@V?$basic_string@DU?$char_traits@D@std@@V?$allocator@D@2@@2@_N_J_KNVallocator@2@Uadl_serializer@nlohmann@@V?$vector@EV?$allocator@E@std@@@2@@nlohmann@@Vinput_stream_adapter@detail@2@@detail@1@Vinput_stream_adapter@31@V?$function@$$A6A_NHW4parse_event_t@detail@nlohmann@@AEAV?$basic_json@Vmap@std@@Vvector@2@V?$basic_string@DU?$char_traits@D@std@@V?$allocator@D@2@@2@_N_J_KNVallocator@2@Uadl_serializer@nlohmann@@V?$vector@EV?$allocator@E@std@@@2@@3@@Z@std@@_N2@Z
	??$pow@NH$0A@@@YANNH@Z
	??$read@I@io@easy3d@@YAXPEAU_iobuf@@AEAI@Z
	??$read@V?$Vec@$02M@easy3d@@@io@easy3d@@YAXPEAU_iobuf@@AEAV?$Vec@$02M@1@@Z
	??$sax_parse_internal@V?$json_sax_dom_callback_parser@V?$basic_json@Vmap@std@@Vvector@2@V?$basic_string@DU?$char_traits@D@std@@V?$allocator@D@2@@2@_N_J_KNVallocator@2@Uadl_serializer@nlohmann@@V?$vector@EV?$allocator@E@std@@@2@@nlohmann@@@detail@nlohmann@@@?$parser@V?$basic_json@Vmap@std@@Vvector@2@V?$basic_string@DU?$char_traits@D@std@@V?$allocator@D@2@@2@_N_J_KNVallocator@2@Uadl_serializer@nlohmann@@V?$vector@EV?$allocator@E@std@@@2@@nlohmann@@Vinput_stream_adapter@detail@2@@detail@nlohmann@@AEAA_NPEAV?$json_sax_dom_callback_parser@V?$basic_json@Vmap@std@@Vvector@2@V?$basic_string@DU?$char_traits@D@std@@V?$allocator@D@2@@2@_N_J_KNVallocator@2@Uadl_serializer@nlohmann@@V?$vector@EV?$allocator@E@std@@@2@@nlohmann@@@12@@Z
	??$sax_parse_internal@V?$json_sax_dom_parser@V?$basic_json@Vmap@std@@Vvector@2@V?$basic_string@DU?$char_traits@D@std@@V?$allocator@D@2@@2@_N_J_KNVallocator@2@Uadl_serializer@nlohmann@@V?$vector@EV?$allocator@E@std@@@2@@nlohmann@@@detail@nlohmann@@@?$parser@V?$basic_json@Vmap@std@@Vvector@2@V?$basic_string@DU?$char_traits@D@std@@V?$allocator@D@2@@2@_N_J_KNVallocator@2@Uadl_serializer@nlohmann@@V?$vector@EV?$allocator@E@std@@@2@@nlohmann@@Vinput_stream_adapter@detail@2@@detail@nlohmann@@AEAA_NPEAV?$json_sax_dom_parser@V?$basic_json@Vmap@std@@Vvector@2@V?$basic_string@DU?$char_traits@D@std@@V?$allocator@D@2@@2@_N_J_KNVallocator@2@Uadl_serializer@nlohmann@@V?$vector@EV?$allocator@E@std@@@2@@nlohmann@@@12@@Z
	??$set_col@$03@?$Mat@$03$03M@easy3d@@QEAAX_KAEBV?$Vec@$03M@1@@Z
	??$swap@VVertexGroup@PointCloudIO_vg@io@easy3d@@$0A@@std@@YAXAEAVVertexGroup@PointCloudIO_vg@io@easy3d@@0@Z
	??$to_json@V?$basic_json@Vmap@std@@Vvector@2@V?$basic_string@DU?$char_traits@D@std@@V?$allocator@D@2@@2@_N_J_KNVallocator@2@Uadl_serializer@nlohmann@@V?$vector@EV?$allocator@E@std@@@2@@nlohmann@@N$0A@@detail@nlohmann@@YAXAEAV?$basic_json@Vmap@std@@Vvector@2@V?$basic_string@DU?$char_traits@D@std@@V?$allocator@D@2@@2@_N_J_KNVallocator@2@Uadl_serializer@nlohmann@@V?$vector@EV?$allocator@E@std@@@2@@1@N@Z
	??$to_json@V?$basic_json@Vmap@std@@Vvector@2@V?$basic_string@DU?$char_traits@D@std@@V?$allocator@D@2@@2@_N_J_KNVallocator@2@Uadl_serializer@nlohmann@@V?$vector@EV?$allocator@E@std@@@2@@nlohmann@@PEBD$0A@@detail@nlohmann@@YAXAEAV?$basic_json@Vmap@std@@Vvector@2@V?$basic_string@DU?$char_traits@D@std@@V?$allocator@D@2@@2@_N_J_KNVallocator@2@Uadl_serializer@nlohmann@@V?$vector@EV?$allocator@E@std@@@2@@1@AEBQEBD@Z
	??$to_json@V?$basic_json@Vmap@std@@Vvector@2@V?$basic_string@DU?$char_traits@D@std@@V?$allocator@D@2@@2@_N_J_KNVallocator@2@Uadl_serializer@nlohmann@@V?$vector@EV?$allocator@E@std@@@2@@nlohmann@@V?$basic_string@DU?$char_traits@D@std@@V?$allocator@D@2@@std@@$0A@@detail@nlohmann@@YAXAEAV?$basic_json@Vmap@std@@Vvector@2@V?$basic_string@DU?$char_traits@D@std@@V?$allocator@D@2@@2@_N_J_KNVallocator@2@Uadl_serializer@nlohmann@@V?$vector@EV?$allocator@E@std@@@2@@1@AEBV?$basic_string@DU?$char_traits@D@std@@V?$allocator@D@2@@std@@@Z
	??$to_json@V?$basic_json@Vmap@std@@Vvector@2@V?$basic_string@DU?$char_traits@D@std@@V?$allocator@D@2@@2@_N_J_KNVallocator@2@Uadl_serializer@nlohmann@@V?$vector@EV?$allocator@E@std@@@2@@nlohmann@@_J$0A@@detail@nlohmann@@YAXAEAV?$basic_json@Vmap@std@@Vvector@2@V?$basic_string@DU?$char_traits@D@std@@V?$allocator@D@2@@2@_N_J_KNVallocator@2@Uadl_serializer@nlohmann@@V?$vector@EV?$allocator@E@std@@@2@@1@_J@Z
	??$to_json@V?$basic_json@Vmap@std@@Vvector@2@V?$basic_string@DU?$char_traits@D@std@@V?$allocator@D@2@@2@_N_J_KNVallocator@2@Uadl_serializer@nlohmann@@V?$vector@EV?$allocator@E@std@@@2@@nlohmann@@_K$0A@@detail@nlohmann@@YAXAEAV?$basic_json@Vmap@std@@Vvector@2@V?$basic_string@DU?$char_traits@D@std@@V?$allocator@D@2@@2@_N_J_KNVallocator@2@Uadl_serializer@nlohmann@@V?$vector@EV?$allocator@E@std@@@2@@1@_K@Z
	??$to_json@V?$basic_json@Vmap@std@@Vvector@2@V?$basic_string@DU?$char_traits@D@std@@V?$allocator@D@2@@2@_N_J_KNVallocator@2@Uadl_serializer@nlohmann@@V?$vector@EV?$allocator@E@std@@@2@@nlohmann@@_N$0A@@detail@nlohmann@@YAXAEAV?$basic_json@Vmap@std@@Vvector@2@V?$basic_string@DU?$char_traits@D@std@@V?$allocator@D@2@@2@_N_J_KNVallocator@2@Uadl_serializer@nlohmann@@V?$vector@EV?$allocator@E@std@@@2@@1@_N@Z
	??$uninitialized_fill@PEAV?$_List_unchecked_iterator@V?$_List_val@U?$_List_simple_types@U?$pair@$$CBHV?$unordered_map@HVVertexGroup@PointCloudIO_vg@io@easy3d@@U?$hash@H@std@@U?$equal_to@H@6@V?$allocator@U?$pair@$$CBHVVertexGroup@PointCloudIO_vg@io@easy3d@@@std@@@6@@std@@@std@@@std@@@std@@@std@@V12@@std@@YAXQEAV?$_List_unchecked_iterator@V?$_List_val@U?$_List_simple_types@U?$pair@$$CBHV?$unordered_map@HVVertexGroup@PointCloudIO_vg@io@easy3d@@U?$hash@H@std@@U?$equal_to@H@6@V?$allocator@U?$pair@$$CBHVVertexGroup@PointCloudIO_vg@io@easy3d@@@std@@@6@@std@@@std@@@std@@@std@@@0@0AEBV10@@Z
	??$uninitialized_fill@PEAV?$_List_unchecked_iterator@V?$_List_val@U?$_List_simple_types@U?$pair@$$CBHVVertexGroup@PointCloudIO_vg@io@easy3d@@@std@@@std@@@std@@@std@@V12@@std@@YAXQEAV?$_List_unchecked_iterator@V?$_List_val@U?$_List_simple_types@U?$pair@$$CBHVVertexGroup@PointCloudIO_vg@io@easy3d@@@std@@@std@@@std@@@0@0AEBV10@@Z
	??$uninitialized_fill@PEAV?$_List_unchecked_iterator@V?$_List_val@U?$_List_simple_types@U?$pair@$$CBV?$basic_string@DU?$char_traits@D@std@@V?$allocator@D@2@@std@@PEAUElement@io@easy3d@@@std@@@std@@@std@@@std@@V12@@std@@YAXQEAV?$_List_unchecked_iterator@V?$_List_val@U?$_List_simple_types@U?$pair@$$CBV?$basic_string@DU?$char_traits@D@std@@V?$allocator@D@2@@std@@PEAUElement@io@easy3d@@@std@@@std@@@std@@@0@0AEBV10@@Z
	??$uninitialized_fill@PEAV?$_List_unchecked_iterator@V?$_List_val@U?$_List_simple_types@U?$pair@$$CBV?$basic_string@DU?$char_traits@D@std@@V?$allocator@D@2@@std@@_K@std@@@std@@@std@@@std@@V12@@std@@YAXQEAV?$_List_unchecked_iterator@V?$_List_val@U?$_List_simple_types@U?$pair@$$CBV?$basic_string@DU?$char_traits@D@std@@V?$allocator@D@2@@std@@_K@std@@@std@@@std@@@0@0AEBV10@@Z
	??$use_facet@V?$codecvt@DDU_Mbstatet@@@std@@@std@@YAAEBV?$codecvt@DDU_Mbstatet@@@0@AEBVlocale@0@@Z
	??$use_facet@V?$ctype@D@std@@@std@@YAAEBV?$ctype@D@0@AEBVlocale@0@@Z
	??0?$GenericProperty@H@io@easy3d@@QEAA@AEBV?$basic_string@DU?$char_traits@D@std@@V?$allocator@D@2@@std@@AEBV?$vector@HV?$allocator@H@std@@@4@@Z
	??0?$GenericProperty@M@io@easy3d@@QEAA@AEBV?$basic_string@DU?$char_traits@D@std@@V?$allocator@D@2@@std@@AEBV?$vector@MV?$allocator@M@std@@@4@@Z
	??0?$GenericProperty@V?$vector@HV?$allocator@H@std@@@std@@@io@easy3d@@QEAA@AEBV?$basic_string@DU?$char_traits@D@std@@V?$allocator@D@2@@std@@AEBV?$vector@V?$vector@HV?$allocator@H@std@@@std@@V?$allocator@V?$vector@HV?$allocator@H@std@@@std@@@2@@4@@Z
	??0?$GenericProperty@V?$vector@MV?$allocator@M@std@@@std@@@io@easy3d@@QEAA@AEBV?$basic_string@DU?$char_traits@D@std@@V?$allocator@D@2@@std@@AEBV?$vector@V?$vector@MV?$allocator@M@std@@@std@@V?$allocator@V?$vector@MV?$allocator@M@std@@@std@@@2@@4@@Z
	??0?$PropertyArray@UCellConnectivity@PolyMesh@easy3d@@@easy3d@@QEAA@AEBV?$basic_string@DU?$char_traits@D@std@@V?$allocator@D@2@@std@@UCellConnectivity@PolyMesh@1@@Z
	??0?$PropertyArray@UEdgeConnectivity@PolyMesh@easy3d@@@easy3d@@QEAA@AEBV?$basic_string@DU?$char_traits@D@std@@V?$allocator@D@2@@std@@UEdgeConnectivity@PolyMesh@1@@Z
	??0?$PropertyArray@UElement@io@easy3d@@@easy3d@@QEAA@AEBV?$basic_string@DU?$char_traits@D@std@@V?$allocator@D@2@@std@@UElement@io@1@@Z
	??0?$PropertyArray@UHalfFaceConnectivity@PolyMesh@easy3d@@@easy3d@@QEAA@AEBV?$basic_string@DU?$char_traits@D@std@@V?$allocator@D@2@@std@@UHalfFaceConnectivity@PolyMesh@1@@Z
	??0?$PropertyArray@UVertexConnectivity@PolyMesh@easy3d@@@easy3d@@QEAA@AEBV?$basic_string@DU?$char_traits@D@std@@V?$allocator@D@2@@std@@UVertexConnectivity@PolyMesh@1@@Z
	??0?$PropertyArray@V?$vector@HV?$allocator@H@std@@@std@@@easy3d@@QEAA@AEBV?$basic_string@DU?$char_traits@D@std@@V?$allocator@D@2@@std@@V?$vector@HV?$allocator@H@std@@@3@@Z
	??0?$PropertyArray@V?$vector@MV?$allocator@M@std@@@std@@@easy3d@@QEAA@AEBV?$basic_string@DU?$char_traits@D@std@@V?$allocator@D@2@@std@@V?$vector@MV?$allocator@M@std@@@3@@Z
	??0?$Vec@$02M@easy3d@@QEAA@XZ
	??0?$Vec@$03M@easy3d@@QEAA@XZ
	??0?$basic_filebuf@DU?$char_traits@D@std@@@std@@QEAA@XZ
	??0?$basic_ifstream@DU?$char_traits@D@std@@@std@@QEAA@PEBDHH@Z
	??0?$basic_istringstream@DU?$char_traits@D@std@@V?$allocator@D@2@@std@@QEAA@AEBV?$basic_string@DU?$char_traits@D@std@@V?$allocator@D@2@@1@H@Z
	??0?$basic_json@Vmap@std@@Vvector@2@V?$basic_string@DU?$char_traits@D@std@@V?$allocator@D@2@@2@_N_J_KNVallocator@2@Uadl_serializer@nlohmann@@V?$vector@EV?$allocator@E@std@@@2@@nlohmann@@QEAA@$$T@Z
	??0?$basic_json@Vmap@std@@Vvector@2@V?$basic_string@DU?$char_traits@D@std@@V?$allocator@D@2@@2@_N_J_KNVallocator@2@Uadl_serializer@nlohmann@@V?$vector@EV?$allocator@E@std@@@2@@nlohmann@@QEAA@AEBV01@@Z
	??0?$basic_json@Vmap@std@@Vvector@2@V?$basic_string@DU?$char_traits@D@std@@V?$allocator@D@2@@2@_N_J_KNVallocator@2@Uadl_serializer@nlohmann@@V?$vector@EV?$allocator@E@std@@@2@@nlohmann@@QEAA@W4value_t@detail@1@@Z
	??0?$basic_ofstream@DU?$char_traits@D@std@@@std@@QEAA@PEBDHH@Z
	??0?$basic_string@DU?$char_traits@D@std@@V?$allocator@D@2@@std@@QEAA@AEBV01@@Z
	??0?$basic_string@DU?$char_traits@D@std@@V?$allocator@D@2@@std@@QEAA@QEBD@Z
	??0?$basic_string@DU?$char_traits@D@std@@V?$allocator@D@2@@std@@QEAA@U_String_constructor_concat_tag@1@AEAV01@1@Z
	??0?$basic_string@DU?$char_traits@D@std@@V?$allocator@D@2@@std@@QEAA@U_String_constructor_concat_tag@1@AEBV01@QEBD_K23@Z
	??0?$basic_string@DU?$char_traits@D@std@@V?$allocator@D@2@@std@@QEAA@XZ
	??0?$basic_stringbuf@DU?$char_traits@D@std@@V?$allocator@D@2@@std@@QEAA@AEBV?$basic_string@DU?$char_traits@D@std@@V?$allocator@D@2@@1@H@Z
	??0?$basic_stringstream@DU?$char_traits@D@std@@V?$allocator@D@2@@std@@QEAA@XZ
	??0?$json_sax_dom_callback_parser@V?$basic_json@Vmap@std@@Vvector@2@V?$basic_string@DU?$char_traits@D@std@@V?$allocator@D@2@@2@_N_J_KNVallocator@2@Uadl_serializer@nlohmann@@V?$vector@EV?$allocator@E@std@@@2@@nlohmann@@@detail@nlohmann@@QEAA@AEAV?$basic_json@Vmap@std@@Vvector@2@V?$basic_string@DU?$char_traits@D@std@@V?$allocator@D@2@@2@_N_J_KNVallocator@2@Uadl_serializer@nlohmann@@V?$vector@EV?$allocator@E@std@@@2@@2@V?$function@$$A6A_NHW4parse_event_t@detail@nlohmann@@AEAV?$basic_json@Vmap@std@@Vvector@2@V?$basic_string@DU?$char_traits@D@std@@V?$allocator@D@2@@2@_N_J_KNVallocator@2@Uadl_serializer@nlohmann@@V?$vector@EV?$allocator@E@std@@@2@@3@@Z@std@@_N@Z
	??0?$unordered_map@V?$basic_string@DU?$char_traits@D@std@@V?$allocator@D@2@@std@@PEAUElement@io@easy3d@@U?$hash@V?$basic_string@DU?$char_traits@D@std@@V?$allocator@D@2@@std@@@2@U?$equal_to@V?$basic_string@DU?$char_traits@D@std@@V?$allocator@D@2@@std@@@2@V?$allocator@U?$pair@$$CBV?$basic_string@DU?$char_traits@D@std@@V?$allocator@D@2@@std@@PEAUElement@io@easy3d@@@std@@@2@@std@@QEAA@XZ
	??0?$unordered_map@V?$basic_string@DU?$char_traits@D@std@@V?$allocator@D@2@@std@@_KU?$hash@V?$basic_string@DU?$char_traits@D@std@@V?$allocator@D@2@@std@@@2@U?$equal_to@V?$basic_string@DU?$char_traits@D@std@@V?$allocator@D@2@@std@@@2@V?$allocator@U?$pair@$$CBV?$basic_string@DU?$char_traits@D@std@@V?$allocator@D@2@@std@@_K@std@@@2@@std@@QEAA@XZ
	??0?$vector@HV?$allocator@H@std@@@std@@QEAA@AEBV01@@Z
	??0?$vector@IV?$allocator@I@std@@@std@@QEAA@AEBV01@@Z
	??0?$vector@MV?$allocator@M@std@@@std@@QEAA@AEBV01@@Z
	??0?$vector@MV?$allocator@M@std@@@std@@QEAA@_KAEBV?$allocator@M@1@@Z
	??0?$vector@NV?$allocator@N@std@@@std@@QEAA@AEBV01@@Z
	??0?$vector@UVertex@PolyMesh@easy3d@@V?$allocator@UVertex@PolyMesh@easy3d@@@std@@@std@@QEAA@AEBV01@@Z
	??0?$vector@Uindex_t@tinyobj@@V?$allocator@Uindex_t@tinyobj@@@std@@@std@@QEAA@AEBV01@@Z
	??0?$vector@Uvertex_index_t@tinyobj@@V?$allocator@Uvertex_index_t@tinyobj@@@std@@@std@@QEAA@AEBV01@@Z
	??0?$vector@V?$Vec@$01M@easy3d@@V?$allocator@V?$Vec@$01M@easy3d@@@std@@@std@@QEAA@AEBV01@@Z
	??0?$vector@V?$Vec@$02M@easy3d@@V?$allocator@V?$Vec@$02M@easy3d@@@std@@@std@@QEAA@AEBV01@@Z
	??0?$vector@V?$Vec@$02N@easy3d@@V?$allocator@V?$Vec@$02N@easy3d@@@std@@@std@@QEAA@AEBV01@@Z
	??0?$vector@V?$vector@HV?$allocator@H@std@@@std@@V?$allocator@V?$vector@HV?$allocator@H@std@@@std@@@2@@std@@QEAA@AEBV01@@Z
	??0?$vector@V?$vector@MV?$allocator@M@std@@@std@@V?$allocator@V?$vector@MV?$allocator@M@std@@@std@@@2@@std@@QEAA@AEBV01@@Z
	??0CellConnectivity@PolyMesh@easy3d@@QEAA@AEBU012@@Z
	??0EdgeConnectivity@PolyMesh@easy3d@@QEAA@AEBU012@@Z
	??0Element@io@easy3d@@QEAA@$$QEAU012@@Z
	??0Element@io@easy3d@@QEAA@AEBU012@@Z
	??0Element@io@easy3d@@QEAA@AEBV?$basic_string@DU?$char_traits@D@std@@V?$allocator@D@2@@std@@_K@Z
	??0HalfFaceConnectivity@PolyMesh@easy3d@@QEAA@AEBU012@@Z
	??0PointCloudIO_ptx@io@easy3d@@QEAA@AEBV?$basic_string@DU?$char_traits@D@std@@V?$allocator@D@2@@std@@@Z
	??0VertexConnectivity@PolyMesh@easy3d@@QEAA@$$QEAU012@@Z
	??0VertexConnectivity@PolyMesh@easy3d@@QEAA@AEBU012@@Z
	??0VertexGroup@PointCloudIO_vg@io@easy3d@@QEAA@AEBV0123@@Z
	??0Writer@base@el@@QEAA@W4Level@2@PEBDK1W4DispatchAction@12@G@Z
	??0bad_alloc@std@@QEAA@AEBV01@@Z
	??0bad_array_new_length@std@@QEAA@AEBV01@@Z
	??0bad_array_new_length@std@@QEAA@XZ
	??0bad_cast@std@@QEAA@AEBV01@@Z
	??0bad_cast@std@@QEAA@XZ
	??0exception@detail@nlohmann@@QEAA@AEBV012@@Z
	??0exception@std@@QEAA@AEBV01@@Z
	??0invalid_iterator@detail@nlohmann@@QEAA@AEBV012@@Z
	??0material_t@tinyobj@@QEAA@$$QEAU01@@Z
	??0material_t@tinyobj@@QEAA@AEBU01@@Z
	??0material_t@tinyobj@@QEAA@XZ
	??0other_error@detail@nlohmann@@QEAA@AEBV012@@Z
	??0out_of_range@detail@nlohmann@@QEAA@AEBV012@@Z
	??0parse_error@detail@nlohmann@@AEAA@H_KPEBD@Z
	??0parse_error@detail@nlohmann@@QEAA@AEBV012@@Z
	??0runtime_error@std@@QEAA@AEBV01@@Z
	??0shape_t@tinyobj@@QEAA@$$QEAU01@@Z
	??0shape_t@tinyobj@@QEAA@AEBU01@@Z
	??0shape_t@tinyobj@@QEAA@XZ
	??0tag_t@tinyobj@@QEAA@AEBU01@@Z
	??0tag_t@tinyobj@@QEAA@XZ
	??0texture_option_t@tinyobj@@QEAA@$$QEAU01@@Z
	??0texture_option_t@tinyobj@@QEAA@AEBU01@@Z
	??0type_error@detail@nlohmann@@QEAA@AEBV012@@Z
	??0vertex_index_t@tinyobj@@QEAA@XZ
	??1?$GenericProperty@H@io@easy3d@@QEAA@XZ
	??1?$GenericProperty@M@io@easy3d@@QEAA@XZ
	??1?$GenericProperty@N@io@easy3d@@QEAA@XZ
	??1?$GenericProperty@V?$Vec@$01M@easy3d@@@io@easy3d@@QEAA@XZ
	??1?$GenericProperty@V?$Vec@$02M@easy3d@@@io@easy3d@@QEAA@XZ
	??1?$GenericProperty@V?$vector@HV?$allocator@H@std@@@std@@@io@easy3d@@QEAA@XZ
	??1?$GenericProperty@V?$vector@MV?$allocator@M@std@@@std@@@io@easy3d@@QEAA@XZ
	??1?$GenericProperty@V?$vector@NV?$allocator@N@std@@@std@@@io@easy3d@@QEAA@XZ
	??1?$_Alloc_construct_ptr@V?$allocator@U?$_List_node@U?$pair@$$CBHV?$unordered_map@HVVertexGroup@PointCloudIO_vg@io@easy3d@@U?$hash@H@std@@U?$equal_to@H@6@V?$allocator@U?$pair@$$CBHVVertexGroup@PointCloudIO_vg@io@easy3d@@@std@@@6@@std@@@std@@PEAX@std@@@std@@@std@@QEAA@XZ
	??1?$_Alloc_construct_ptr@V?$allocator@U?$_List_node@U?$pair@$$CBHVVertexGroup@PointCloudIO_vg@io@easy3d@@@std@@PEAX@std@@@std@@@std@@QEAA@XZ
	??1?$_Alloc_construct_ptr@V?$allocator@U?$_List_node@U?$pair@$$CBV?$basic_string@DU?$char_traits@D@std@@V?$allocator@D@2@@std@@PEAUElement@io@easy3d@@@std@@PEAX@std@@@std@@@std@@QEAA@XZ
	??1?$_Alloc_construct_ptr@V?$allocator@U?$_List_node@U?$pair@$$CBV?$basic_string@DU?$char_traits@D@std@@V?$allocator@D@2@@std@@_K@std@@PEAX@std@@@std@@@std@@QEAA@XZ
	??1?$_Alloc_construct_ptr@V?$allocator@U?$_Tree_node@U?$pair@$$CBV?$Vec@$02M@easy3d@@UVertex@SurfaceMesh@2@@std@@PEAX@std@@@std@@@std@@QEAA@XZ
	??1?$_Alloc_construct_ptr@V?$allocator@U?$_Tree_node@U?$pair@$$CBV?$basic_string@DU?$char_traits@D@std@@V?$allocator@D@2@@std@@H@std@@PEAX@std@@@std@@@std@@QEAA@XZ
	??1?$_Alloc_construct_ptr@V?$allocator@U?$_Tree_node@U?$pair@$$CBV?$basic_string@DU?$char_traits@D@std@@V?$allocator@D@2@@std@@V12@@std@@PEAX@std@@@std@@@std@@QEAA@XZ
	??1?$_Alloc_construct_ptr@V?$allocator@U?$_Tree_node@U?$pair@$$CBV?$basic_string@DU?$char_traits@D@std@@V?$allocator@D@2@@std@@V?$basic_json@Vmap@std@@Vvector@2@V?$basic_string@DU?$char_traits@D@std@@V?$allocator@D@2@@2@_N_J_KNVallocator@2@Uadl_serializer@nlohmann@@V?$vector@EV?$allocator@E@std@@@2@@nlohmann@@@std@@PEAX@std@@@std@@@std@@QEAA@XZ
	??1?$_Alloc_construct_ptr@V?$allocator@U?$_Tree_node@UCell@PolyMesh@easy3d@@PEAX@std@@@std@@@std@@QEAA@XZ
	??1?$_Alloc_construct_ptr@V?$allocator@U?$_Tree_node@UEdge@PolyMesh@easy3d@@PEAX@std@@@std@@@std@@QEAA@XZ
	??1?$_Alloc_construct_ptr@V?$allocator@U?$_Tree_node@UHalfFace@PolyMesh@easy3d@@PEAX@std@@@std@@@std@@QEAA@XZ
	??1?$_Alloc_construct_ptr@V?$allocator@U?$_Tree_node@UVertex@PolyMesh@easy3d@@PEAX@std@@@std@@@std@@QEAA@XZ
	??1?$_Alloc_construct_ptr@V?$allocator@U?$_Tree_node@V?$basic_string@DU?$char_traits@D@std@@V?$allocator@D@2@@std@@PEAX@std@@@std@@@std@@QEAA@XZ
	??1?$_Func_class@_NHW4parse_event_t@detail@nlohmann@@AEAV?$basic_json@Vmap@std@@Vvector@2@V?$basic_string@DU?$char_traits@D@std@@V?$allocator@D@2@@2@_N_J_KNVallocator@2@Uadl_serializer@nlohmann@@V?$vector@EV?$allocator@E@std@@@2@@3@@std@@QEAA@XZ
	??1?$_Hash@V?$_Umap_traits@HV?$unordered_map@HVVertexGroup@PointCloudIO_vg@io@easy3d@@U?$hash@H@std@@U?$equal_to@H@6@V?$allocator@U?$pair@$$CBHVVertexGroup@PointCloudIO_vg@io@easy3d@@@std@@@6@@std@@V?$_Uhash_compare@HU?$hash@H@std@@U?$equal_to@H@2@@2@V?$allocator@U?$pair@$$CBHV?$unordered_map@HVVertexGroup@PointCloudIO_vg@io@easy3d@@U?$hash@H@std@@U?$equal_to@H@6@V?$allocator@U?$pair@$$CBHVVertexGroup@PointCloudIO_vg@io@easy3d@@@std@@@6@@std@@@std@@@2@$0A@@std@@@std@@QEAA@XZ
	??1?$_Hash@V?$_Umap_traits@HVVertexGroup@PointCloudIO_vg@io@easy3d@@V?$_Uhash_compare@HU?$hash@H@std@@U?$equal_to@H@2@@std@@V?$allocator@U?$pair@$$CBHVVertexGroup@PointCloudIO_vg@io@easy3d@@@std@@@6@$0A@@std@@@std@@QEAA@XZ
	??1?$_Hash@V?$_Umap_traits@V?$basic_string@DU?$char_traits@D@std@@V?$allocator@D@2@@std@@PEAUElement@io@easy3d@@V?$_Uhash_compare@V?$basic_string@DU?$char_traits@D@std@@V?$allocator@D@2@@std@@U?$hash@V?$basic_string@DU?$char_traits@D@std@@V?$allocator@D@2@@std@@@2@U?$equal_to@V?$basic_string@DU?$char_traits@D@std@@V?$allocator@D@2@@std@@@2@@2@V?$allocator@U?$pair@$$CBV?$basic_string@DU?$char_traits@D@std@@V?$allocator@D@2@@std@@PEAUElement@io@easy3d@@@std@@@2@$0A@@std@@@std@@QEAA@XZ
	??1?$_Hash@V?$_Umap_traits@V?$basic_string@DU?$char_traits@D@std@@V?$allocator@D@2@@std@@_KV?$_Uhash_compare@V?$basic_string@DU?$char_traits@D@std@@V?$allocator@D@2@@std@@U?$hash@V?$basic_string@DU?$char_traits@D@std@@V?$allocator@D@2@@std@@@2@U?$equal_to@V?$basic_string@DU?$char_traits@D@std@@V?$allocator@D@2@@std@@@2@@2@V?$allocator@U?$pair@$$CBV?$basic_string@DU?$char_traits@D@std@@V?$allocator@D@2@@std@@_K@std@@@2@$0A@@std@@@std@@QEAA@XZ
	??1?$_Hash_vec@V?$allocator@V?$_List_unchecked_iterator@V?$_List_val@U?$_List_simple_types@U?$pair@$$CBHV?$unordered_map@HVVertexGroup@PointCloudIO_vg@io@easy3d@@U?$hash@H@std@@U?$equal_to@H@6@V?$allocator@U?$pair@$$CBHVVertexGroup@PointCloudIO_vg@io@easy3d@@@std@@@6@@std@@@std@@@std@@@std@@@std@@@std@@@std@@QEAA@XZ
	??1?$_Hash_vec@V?$allocator@V?$_List_unchecked_iterator@V?$_List_val@U?$_List_simple_types@U?$pair@$$CBHVVertexGroup@PointCloudIO_vg@io@easy3d@@@std@@@std@@@std@@@std@@@std@@@std@@QEAA@XZ
	??1?$_Hash_vec@V?$allocator@V?$_List_unchecked_iterator@V?$_List_val@U?$_List_simple_types@U?$pair@$$CBV?$basic_string@DU?$char_traits@D@std@@V?$allocator@D@2@@std@@PEAUElement@io@easy3d@@@std@@@std@@@std@@@std@@@std@@@std@@QEAA@XZ
	??1?$_Hash_vec@V?$allocator@V?$_List_unchecked_iterator@V?$_List_val@U?$_List_simple_types@U?$pair@$$CBV?$basic_string@DU?$char_traits@D@std@@V?$allocator@D@2@@std@@_K@std@@@std@@@std@@@std@@@std@@@std@@QEAA@XZ
	??1?$_List_node_emplace_op2@V?$allocator@U?$_List_node@U?$pair@$$CBHV?$unordered_map@HVVertexGroup@PointCloudIO_vg@io@easy3d@@U?$hash@H@std@@U?$equal_to@H@6@V?$allocator@U?$pair@$$CBHVVertexGroup@PointCloudIO_vg@io@easy3d@@@std@@@6@@std@@@std@@PEAX@std@@@std@@@std@@QEAA@XZ
	??1?$_List_node_emplace_op2@V?$allocator@U?$_List_node@U?$pair@$$CBHVVertexGroup@PointCloudIO_vg@io@easy3d@@@std@@PEAX@std@@@std@@@std@@QEAA@XZ
	??1?$_List_node_emplace_op2@V?$allocator@U?$_List_node@U?$pair@$$CBV?$basic_string@DU?$char_traits@D@std@@V?$allocator@D@2@@std@@PEAUElement@io@easy3d@@@std@@PEAX@std@@@std@@@std@@QEAA@XZ
	??1?$_List_node_emplace_op2@V?$allocator@U?$_List_node@U?$pair@$$CBV?$basic_string@DU?$char_traits@D@std@@V?$allocator@D@2@@std@@_K@std@@PEAX@std@@@std@@@std@@QEAA@XZ
	??1?$_Tidy_guard@V?$vector@UCellConnectivity@PolyMesh@easy3d@@V?$allocator@UCellConnectivity@PolyMesh@easy3d@@@std@@@std@@@std@@QEAA@XZ
	??1?$_Tidy_guard@V?$vector@UEdgeConnectivity@PolyMesh@easy3d@@V?$allocator@UEdgeConnectivity@PolyMesh@easy3d@@@std@@@std@@@std@@QEAA@XZ
	??1?$_Tidy_guard@V?$vector@UElement@io@easy3d@@V?$allocator@UElement@io@easy3d@@@std@@@std@@@std@@QEAA@XZ
	??1?$_Tidy_guard@V?$vector@UHalfFaceConnectivity@PolyMesh@easy3d@@V?$allocator@UHalfFaceConnectivity@PolyMesh@easy3d@@@std@@@std@@@std@@QEAA@XZ
	??1?$_Tidy_guard@V?$vector@UVertexConnectivity@PolyMesh@easy3d@@V?$allocator@UVertexConnectivity@PolyMesh@easy3d@@@std@@@std@@@std@@QEAA@XZ
	??1?$_Tidy_guard@V?$vector@Utag_t@tinyobj@@V?$allocator@Utag_t@tinyobj@@@std@@@std@@@std@@QEAA@XZ
	??1?$_Tidy_guard@V?$vector@V?$GenericProperty@H@io@easy3d@@V?$allocator@V?$GenericProperty@H@io@easy3d@@@std@@@std@@@std@@QEAA@XZ
	??1?$_Tidy_guard@V?$vector@V?$GenericProperty@M@io@easy3d@@V?$allocator@V?$GenericProperty@M@io@easy3d@@@std@@@std@@@std@@QEAA@XZ
	??1?$_Tidy_guard@V?$vector@V?$GenericProperty@V?$Vec@$01M@easy3d@@@io@easy3d@@V?$allocator@V?$GenericProperty@V?$Vec@$01M@easy3d@@@io@easy3d@@@std@@@std@@@std@@QEAA@XZ
	??1?$_Tidy_guard@V?$vector@V?$GenericProperty@V?$Vec@$02M@easy3d@@@io@easy3d@@V?$allocator@V?$GenericProperty@V?$Vec@$02M@easy3d@@@io@easy3d@@@std@@@std@@@std@@QEAA@XZ
	??1?$_Tidy_guard@V?$vector@V?$GenericProperty@V?$vector@HV?$allocator@H@std@@@std@@@io@easy3d@@V?$allocator@V?$GenericProperty@V?$vector@HV?$allocator@H@std@@@std@@@io@easy3d@@@std@@@std@@@std@@QEAA@XZ
	??1?$_Tidy_guard@V?$vector@V?$GenericProperty@V?$vector@MV?$allocator@M@std@@@std@@@io@easy3d@@V?$allocator@V?$GenericProperty@V?$vector@MV?$allocator@M@std@@@std@@@io@easy3d@@@std@@@std@@@std@@QEAA@XZ
	??1?$_Tidy_guard@V?$vector@V?$basic_json@Vmap@std@@Vvector@2@V?$basic_string@DU?$char_traits@D@std@@V?$allocator@D@2@@2@_N_J_KNVallocator@2@Uadl_serializer@nlohmann@@V?$vector@EV?$allocator@E@std@@@2@@nlohmann@@V?$allocator@V?$basic_json@Vmap@std@@Vvector@2@V?$basic_string@DU?$char_traits@D@std@@V?$allocator@D@2@@2@_N_J_KNVallocator@2@Uadl_serializer@nlohmann@@V?$vector@EV?$allocator@E@std@@@2@@nlohmann@@@std@@@std@@@std@@QEAA@XZ
	??1?$_Tidy_guard@V?$vector@V?$basic_string@DU?$char_traits@D@std@@V?$allocator@D@2@@std@@V?$allocator@V?$basic_string@DU?$char_traits@D@std@@V?$allocator@D@2@@std@@@2@@std@@@std@@QEAA@XZ
	??1?$_Tidy_guard@V?$vector@V?$vector@HV?$allocator@H@std@@@std@@V?$allocator@V?$vector@HV?$allocator@H@std@@@std@@@2@@std@@@std@@QEAA@XZ
	??1?$_Tidy_guard@V?$vector@V?$vector@MV?$allocator@M@std@@@std@@V?$allocator@V?$vector@MV?$allocator@M@std@@@std@@@2@@std@@@std@@QEAA@XZ
	??1?$_Tidy_guard@V?$vector@VVertexGroup@PointCloudIO_vg@io@easy3d@@V?$allocator@VVertexGroup@PointCloudIO_vg@io@easy3d@@@std@@@std@@@std@@QEAA@XZ
	??1?$_Tree_head_scoped_ptr@V?$allocator@U?$_Tree_node@U?$pair@$$CBV?$basic_string@DU?$char_traits@D@std@@V?$allocator@D@2@@std@@V12@@std@@PEAX@std@@@std@@V?$_Tree_val@U?$_Tree_simple_types@U?$pair@$$CBV?$basic_string@DU?$char_traits@D@std@@V?$allocator@D@2@@std@@V12@@std@@@std@@@2@@std@@QEAA@XZ
	??1?$_Tree_head_scoped_ptr@V?$allocator@U?$_Tree_node@U?$pair@$$CBV?$basic_string@DU?$char_traits@D@std@@V?$allocator@D@2@@std@@V?$basic_json@Vmap@std@@Vvector@2@V?$basic_string@DU?$char_traits@D@std@@V?$allocator@D@2@@2@_N_J_KNVallocator@2@Uadl_serializer@nlohmann@@V?$vector@EV?$allocator@E@std@@@2@@nlohmann@@@std@@PEAX@std@@@std@@V?$_Tree_val@U?$_Tree_simple_types@U?$pair@$$CBV?$basic_string@DU?$char_traits@D@std@@V?$allocator@D@2@@std@@V?$basic_json@Vmap@std@@Vvector@2@V?$basic_string@DU?$char_traits@D@std@@V?$allocator@D@2@@2@_N_J_KNVallocator@2@Uadl_serializer@nlohmann@@V?$vector@EV?$allocator@E@std@@@2@@nlohmann@@@std@@@std@@@2@@std@@QEAA@XZ
	??1?$_Tree_head_scoped_ptr@V?$allocator@U?$_Tree_node@UCell@PolyMesh@easy3d@@PEAX@std@@@std@@V?$_Tree_val@U?$_Tree_simple_types@UCell@PolyMesh@easy3d@@@std@@@2@@std@@QEAA@XZ
	??1?$_Tree_head_scoped_ptr@V?$allocator@U?$_Tree_node@UEdge@PolyMesh@easy3d@@PEAX@std@@@std@@V?$_Tree_val@U?$_Tree_simple_types@UEdge@PolyMesh@easy3d@@@std@@@2@@std@@QEAA@XZ
	??1?$_Tree_head_scoped_ptr@V?$allocator@U?$_Tree_node@UHalfFace@PolyMesh@easy3d@@PEAX@std@@@std@@V?$_Tree_val@U?$_Tree_simple_types@UHalfFace@PolyMesh@easy3d@@@std@@@2@@std@@QEAA@XZ
	??1?$_Tree_head_scoped_ptr@V?$allocator@U?$_Tree_node@UVertex@PolyMesh@easy3d@@PEAX@std@@@std@@V?$_Tree_val@U?$_Tree_simple_types@UVertex@PolyMesh@easy3d@@@std@@@2@@std@@QEAA@XZ
	??1?$_Tree_temp_node_alloc@V?$allocator@U?$_Tree_node@U?$pair@$$CBV?$basic_string@DU?$char_traits@D@std@@V?$allocator@D@2@@std@@V?$basic_json@Vmap@std@@Vvector@2@V?$basic_string@DU?$char_traits@D@std@@V?$allocator@D@2@@2@_N_J_KNVallocator@2@Uadl_serializer@nlohmann@@V?$vector@EV?$allocator@E@std@@@2@@nlohmann@@@std@@PEAX@std@@@std@@@std@@QEAA@XZ
	??1?$_Tree_temp_node_alloc@V?$allocator@U?$_Tree_node@V?$basic_string@DU?$char_traits@D@std@@V?$allocator@D@2@@std@@PEAX@std@@@std@@@std@@QEAA@XZ
	??1?$_Uninitialized_backout_al@V?$allocator@UCellConnectivity@PolyMesh@easy3d@@@std@@@std@@QEAA@XZ
	??1?$_Uninitialized_backout_al@V?$allocator@UEdgeConnectivity@PolyMesh@easy3d@@@std@@@std@@QEAA@XZ
	??1?$_Uninitialized_backout_al@V?$allocator@UElement@io@easy3d@@@std@@@std@@QEAA@XZ
	??1?$_Uninitialized_backout_al@V?$allocator@UHalfFaceConnectivity@PolyMesh@easy3d@@@std@@@std@@QEAA@XZ
	??1?$_Uninitialized_backout_al@V?$allocator@UVertexConnectivity@PolyMesh@easy3d@@@std@@@std@@QEAA@XZ
	??1?$_Uninitialized_backout_al@V?$allocator@Umaterial_t@tinyobj@@@std@@@std@@QEAA@XZ
	??1?$_Uninitialized_backout_al@V?$allocator@Utag_t@tinyobj@@@std@@@std@@QEAA@XZ
	??1?$_Uninitialized_backout_al@V?$allocator@V?$GenericProperty@H@io@easy3d@@@std@@@std@@QEAA@XZ
	??1?$_Uninitialized_backout_al@V?$allocator@V?$GenericProperty@M@io@easy3d@@@std@@@std@@QEAA@XZ
	??1?$_Uninitialized_backout_al@V?$allocator@V?$GenericProperty@V?$Vec@$01M@easy3d@@@io@easy3d@@@std@@@std@@QEAA@XZ
	??1?$_Uninitialized_backout_al@V?$allocator@V?$GenericProperty@V?$Vec@$02M@easy3d@@@io@easy3d@@@std@@@std@@QEAA@XZ
	??1?$_Uninitialized_backout_al@V?$allocator@V?$GenericProperty@V?$vector@HV?$allocator@H@std@@@std@@@io@easy3d@@@std@@@std@@QEAA@XZ
	??1?$_Uninitialized_backout_al@V?$allocator@V?$GenericProperty@V?$vector@MV?$allocator@M@std@@@std@@@io@easy3d@@@std@@@std@@QEAA@XZ
	??1?$_Uninitialized_backout_al@V?$allocator@V?$basic_json@Vmap@std@@Vvector@2@V?$basic_string@DU?$char_traits@D@std@@V?$allocator@D@2@@2@_N_J_KNVallocator@2@Uadl_serializer@nlohmann@@V?$vector@EV?$allocator@E@std@@@2@@nlohmann@@@std@@@std@@QEAA@XZ
	??1?$_Uninitialized_backout_al@V?$allocator@V?$basic_string@DU?$char_traits@D@std@@V?$allocator@D@2@@std@@@std@@@std@@QEAA@XZ
	??1?$_Uninitialized_backout_al@V?$allocator@V?$vector@HV?$allocator@H@std@@@std@@@std@@@std@@QEAA@XZ
	??1?$_Uninitialized_backout_al@V?$allocator@V?$vector@MV?$allocator@M@std@@@std@@@std@@@std@@QEAA@XZ
	??1?$_Uninitialized_backout_al@V?$allocator@VVertexGroup@PointCloudIO_vg@io@easy3d@@@std@@@std@@QEAA@XZ
	??1?$basic_filebuf@DU?$char_traits@D@std@@@std@@UEAA@XZ
	??1?$basic_ifstream@DU?$char_traits@D@std@@@std@@UEAA@XZ
	??1?$basic_istringstream@DU?$char_traits@D@std@@V?$allocator@D@2@@std@@UEAA@XZ
	??1?$basic_json@Vmap@std@@Vvector@2@V?$basic_string@DU?$char_traits@D@std@@V?$allocator@D@2@@2@_N_J_KNVallocator@2@Uadl_serializer@nlohmann@@V?$vector@EV?$allocator@E@std@@@2@@nlohmann@@QEAA@XZ
	??1?$basic_ofstream@DU?$char_traits@D@std@@@std@@UEAA@XZ
	??1?$basic_string@DU?$char_traits@D@std@@V?$allocator@D@2@@std@@QEAA@XZ
	??1?$basic_stringbuf@DU?$char_traits@D@std@@V?$allocator@D@2@@std@@UEAA@XZ
	??1?$basic_stringstream@DU?$char_traits@D@std@@V?$allocator@D@2@@std@@UEAA@XZ
	??1?$function@$$A6A_NHW4parse_event_t@detail@nlohmann@@AEAV?$basic_json@Vmap@std@@Vvector@2@V?$basic_string@DU?$char_traits@D@std@@V?$allocator@D@2@@2@_N_J_KNVallocator@2@Uadl_serializer@nlohmann@@V?$vector@EV?$allocator@E@std@@@2@@3@@Z@std@@QEAA@XZ
	??1?$json_sax_dom_callback_parser@V?$basic_json@Vmap@std@@Vvector@2@V?$basic_string@DU?$char_traits@D@std@@V?$allocator@D@2@@2@_N_J_KNVallocator@2@Uadl_serializer@nlohmann@@V?$vector@EV?$allocator@E@std@@@2@@nlohmann@@@detail@nlohmann@@QEAA@XZ
	??1?$json_sax_dom_parser@V?$basic_json@Vmap@std@@Vvector@2@V?$basic_string@DU?$char_traits@D@std@@V?$allocator@D@2@@2@_N_J_KNVallocator@2@Uadl_serializer@nlohmann@@V?$vector@EV?$allocator@E@std@@@2@@nlohmann@@@detail@nlohmann@@QEAA@XZ
	??1?$lexer@V?$basic_json@Vmap@std@@Vvector@2@V?$basic_string@DU?$char_traits@D@std@@V?$allocator@D@2@@2@_N_J_KNVallocator@2@Uadl_serializer@nlohmann@@V?$vector@EV?$allocator@E@std@@@2@@nlohmann@@Vinput_stream_adapter@detail@2@@detail@nlohmann@@QEAA@XZ
	??1?$list@U?$pair@$$CBHV?$unordered_map@HVVertexGroup@PointCloudIO_vg@io@easy3d@@U?$hash@H@std@@U?$equal_to@H@6@V?$allocator@U?$pair@$$CBHVVertexGroup@PointCloudIO_vg@io@easy3d@@@std@@@6@@std@@@std@@V?$allocator@U?$pair@$$CBHV?$unordered_map@HVVertexGroup@PointCloudIO_vg@io@easy3d@@U?$hash@H@std@@U?$equal_to@H@6@V?$allocator@U?$pair@$$CBHVVertexGroup@PointCloudIO_vg@io@easy3d@@@std@@@6@@std@@@std@@@2@@std@@QEAA@XZ
	??1?$list@U?$pair@$$CBHVVertexGroup@PointCloudIO_vg@io@easy3d@@@std@@V?$allocator@U?$pair@$$CBHVVertexGroup@PointCloudIO_vg@io@easy3d@@@std@@@2@@std@@QEAA@XZ
	??1?$list@U?$pair@$$CBV?$basic_string@DU?$char_traits@D@std@@V?$allocator@D@2@@std@@PEAUElement@io@easy3d@@@std@@V?$allocator@U?$pair@$$CBV?$basic_string@DU?$char_traits@D@std@@V?$allocator@D@2@@std@@PEAUElement@io@easy3d@@@std@@@2@@std@@QEAA@XZ
	??1?$list@U?$pair@$$CBV?$basic_string@DU?$char_traits@D@std@@V?$allocator@D@2@@std@@_K@std@@V?$allocator@U?$pair@$$CBV?$basic_string@DU?$char_traits@D@std@@V?$allocator@D@2@@std@@_K@std@@@2@@std@@QEAA@XZ
	??1?$lock_guard@Vrecursive_mutex@std@@@std@@QEAA@XZ
	??1?$map@V?$Vec@$02M@easy3d@@UVertex@SurfaceMesh@2@VCompareVec@io@2@V?$allocator@U?$pair@$$CBV?$Vec@$02M@easy3d@@UVertex@SurfaceMesh@2@@std@@@std@@@std@@QEAA@XZ
	??1?$map@V?$basic_string@DU?$char_traits@D@std@@V?$allocator@D@2@@std@@HU?$less@V?$basic_string@DU?$char_traits@D@std@@V?$allocator@D@2@@std@@@2@V?$allocator@U?$pair@$$CBV?$basic_string@DU?$char_traits@D@std@@V?$allocator@D@2@@std@@H@std@@@2@@std@@QEAA@XZ
	??1?$pair@$$CBV?$basic_string@DU?$char_traits@D@std@@V?$allocator@D@2@@std@@V12@@std@@QEAA@XZ
	??1?$pair@$$CBV?$basic_string@DU?$char_traits@D@std@@V?$allocator@D@2@@std@@V?$basic_json@Vmap@std@@Vvector@2@V?$basic_string@DU?$char_traits@D@std@@V?$allocator@D@2@@2@_N_J_KNVallocator@2@Uadl_serializer@nlohmann@@V?$vector@EV?$allocator@E@std@@@2@@nlohmann@@@std@@QEAA@XZ
	??1?$pair@V?$basic_string@DU?$char_traits@D@std@@V?$allocator@D@2@@std@@H@std@@QEAA@XZ
	??1?$pair@V?$basic_string@DU?$char_traits@D@std@@V?$allocator@D@2@@std@@V12@@std@@QEAA@XZ
	??1?$parser@V?$basic_json@Vmap@std@@Vvector@2@V?$basic_string@DU?$char_traits@D@std@@V?$allocator@D@2@@2@_N_J_KNVallocator@2@Uadl_serializer@nlohmann@@V?$vector@EV?$allocator@E@std@@@2@@nlohmann@@Vinput_stream_adapter@detail@2@@detail@nlohmann@@QEAA@XZ
	??1?$set@UEdge@PolyMesh@easy3d@@U?$less@UEdge@PolyMesh@easy3d@@@std@@V?$allocator@UEdge@PolyMesh@easy3d@@@5@@std@@QEAA@XZ
	??1?$set@UHalfFace@PolyMesh@easy3d@@U?$less@UHalfFace@PolyMesh@easy3d@@@std@@V?$allocator@UHalfFace@PolyMesh@easy3d@@@5@@std@@QEAA@XZ
	??1?$set@UVertex@PolyMesh@easy3d@@U?$less@UVertex@PolyMesh@easy3d@@@std@@V?$allocator@UVertex@PolyMesh@easy3d@@@5@@std@@QEAA@XZ
	??1?$set@V?$basic_string@DU?$char_traits@D@std@@V?$allocator@D@2@@std@@U?$less@V?$basic_string@DU?$char_traits@D@std@@V?$allocator@D@2@@std@@@2@V?$allocator@V?$basic_string@DU?$char_traits@D@std@@V?$allocator@D@2@@std@@@2@@std@@QEAA@XZ
	??1?$unique_ptr@V?$basic_string@DU?$char_traits@D@std@@V?$allocator@D@2@@std@@V<lambda_7c467b3c4a6f5fcb1715b49f0d08d80e>@@@std@@QEAA@XZ
	??1?$unique_ptr@V?$basic_string@DU?$char_traits@D@std@@V?$allocator@D@2@@std@@V<lambda_80df3a053fc232b11489646eb64a3240>@@@std@@QEAA@XZ
	??1?$unique_ptr@V?$basic_string@DU?$char_traits@D@std@@V?$allocator@D@2@@std@@V<lambda_eb658c3fdca3c21fa0dbf04468b16b96>@@@std@@QEAA@XZ
	??1?$unique_ptr@V?$byte_container_with_subtype@V?$vector@EV?$allocator@E@std@@@std@@@nlohmann@@V<lambda_7fb9808db0c3239c6dc52edcd45763e3>@@@std@@QEAA@XZ
	??1?$unique_ptr@V?$map@V?$basic_string@DU?$char_traits@D@std@@V?$allocator@D@2@@std@@V?$basic_json@Vmap@std@@Vvector@2@V?$basic_string@DU?$char_traits@D@std@@V?$allocator@D@2@@2@_N_J_KNVallocator@2@Uadl_serializer@nlohmann@@V?$vector@EV?$allocator@E@std@@@2@@nlohmann@@U?$less@V?$basic_string@DU?$char_traits@D@std@@V?$allocator@D@2@@std@@@2@V?$allocator@U?$pair@$$CBV?$basic_string@DU?$char_traits@D@std@@V?$allocator@D@2@@std@@V?$basic_json@Vmap@std@@Vvector@2@V?$basic_string@DU?$char_traits@D@std@@V?$allocator@D@2@@2@_N_J_KNVallocator@2@Uadl_serializer@nlohmann@@V?$vector@EV?$allocator@E@std@@@2@@nlohmann@@@std@@@2@@std@@V<lambda_465eb1a6d4b3798bb5f5c7ad27b08730>@@@std@@QEAA@XZ
	??1?$unique_ptr@V?$map@V?$basic_string@DU?$char_traits@D@std@@V?$allocator@D@2@@std@@V?$basic_json@Vmap@std@@Vvector@2@V?$basic_string@DU?$char_traits@D@std@@V?$allocator@D@2@@2@_N_J_KNVallocator@2@Uadl_serializer@nlohmann@@V?$vector@EV?$allocator@E@std@@@2@@nlohmann@@U?$less@V?$basic_string@DU?$char_traits@D@std@@V?$allocator@D@2@@std@@@2@V?$allocator@U?$pair@$$CBV?$basic_string@DU?$char_traits@D@std@@V?$allocator@D@2@@std@@V?$basic_json@Vmap@std@@Vvector@2@V?$basic_string@DU?$char_traits@D@std@@V?$allocator@D@2@@2@_N_J_KNVallocator@2@Uadl_serializer@nlohmann@@V?$vector@EV?$allocator@E@std@@@2@@nlohmann@@@std@@@2@@std@@V<lambda_62e293e9fe23b93b3a53cd92954fbbfc>@@@std@@QEAA@XZ
	??1?$unique_ptr@V?$vector@V?$basic_json@Vmap@std@@Vvector@2@V?$basic_string@DU?$char_traits@D@std@@V?$allocator@D@2@@2@_N_J_KNVallocator@2@Uadl_serializer@nlohmann@@V?$vector@EV?$allocator@E@std@@@2@@nlohmann@@V?$allocator@V?$basic_json@Vmap@std@@Vvector@2@V?$basic_string@DU?$char_traits@D@std@@V?$allocator@D@2@@2@_N_J_KNVallocator@2@Uadl_serializer@nlohmann@@V?$vector@EV?$allocator@E@std@@@2@@nlohmann@@@std@@@std@@V<lambda_c42e79694fbe51699b579453f51a5e60>@@@std@@QEAA@XZ
	??1?$unique_ptr@V_Facet_base@std@@U?$default_delete@V_Facet_base@std@@@2@@std@@QEAA@XZ
	??1?$unordered_map@HV?$unordered_map@HVVertexGroup@PointCloudIO_vg@io@easy3d@@U?$hash@H@std@@U?$equal_to@H@6@V?$allocator@U?$pair@$$CBHVVertexGroup@PointCloudIO_vg@io@easy3d@@@std@@@6@@std@@U?$hash@H@2@U?$equal_to@H@2@V?$allocator@U?$pair@$$CBHV?$unordered_map@HVVertexGroup@PointCloudIO_vg@io@easy3d@@U?$hash@H@std@@U?$equal_to@H@6@V?$allocator@U?$pair@$$CBHVVertexGroup@PointCloudIO_vg@io@easy3d@@@std@@@6@@std@@@std@@@2@@std@@QEAA@XZ
	??1?$unordered_map@V?$basic_string@DU?$char_traits@D@std@@V?$allocator@D@2@@std@@PEAUElement@io@easy3d@@U?$hash@V?$basic_string@DU?$char_traits@D@std@@V?$allocator@D@2@@std@@@2@U?$equal_to@V?$basic_string@DU?$char_traits@D@std@@V?$allocator@D@2@@std@@@2@V?$allocator@U?$pair@$$CBV?$basic_string@DU?$char_traits@D@std@@V?$allocator@D@2@@std@@PEAUElement@io@easy3d@@@std@@@2@@std@@QEAA@XZ
	??1?$unordered_map@V?$basic_string@DU?$char_traits@D@std@@V?$allocator@D@2@@std@@_KU?$hash@V?$basic_string@DU?$char_traits@D@std@@V?$allocator@D@2@@std@@@2@U?$equal_to@V?$basic_string@DU?$char_traits@D@std@@V?$allocator@D@2@@std@@@2@V?$allocator@U?$pair@$$CBV?$basic_string@DU?$char_traits@D@std@@V?$allocator@D@2@@std@@_K@std@@@2@@std@@QEAA@XZ
	??1?$vector@DV?$allocator@D@std@@@std@@QEAA@XZ
	??1?$vector@HV?$allocator@H@std@@@std@@QEAA@XZ
	??1?$vector@IV?$allocator@I@std@@@std@@QEAA@XZ
	??1?$vector@MV?$allocator@M@std@@@std@@QEAA@XZ
	??1?$vector@NV?$allocator@N@std@@@std@@QEAA@XZ
	??1?$vector@PEAV?$basic_json@Vmap@std@@Vvector@2@V?$basic_string@DU?$char_traits@D@std@@V?$allocator@D@2@@2@_N_J_KNVallocator@2@Uadl_serializer@nlohmann@@V?$vector@EV?$allocator@E@std@@@2@@nlohmann@@V?$allocator@PEAV?$basic_json@Vmap@std@@Vvector@2@V?$basic_string@DU?$char_traits@D@std@@V?$allocator@D@2@@2@_N_J_KNVallocator@2@Uadl_serializer@nlohmann@@V?$vector@EV?$allocator@E@std@@@2@@nlohmann@@@std@@@std@@QEAA@XZ
	??1?$vector@PEBDV?$allocator@PEBD@std@@@std@@QEAA@XZ
	??1?$vector@UCellConnectivity@PolyMesh@easy3d@@V?$allocator@UCellConnectivity@PolyMesh@easy3d@@@std@@@std@@QEAA@XZ
	??1?$vector@UEdgeConnectivity@PolyMesh@easy3d@@V?$allocator@UEdgeConnectivity@PolyMesh@easy3d@@@std@@@std@@QEAA@XZ
	??1?$vector@UElement@io@easy3d@@V?$allocator@UElement@io@easy3d@@@std@@@std@@QEAA@XZ
	??1?$vector@UFace@SurfaceMesh@easy3d@@V?$allocator@UFace@SurfaceMesh@easy3d@@@std@@@std@@QEAA@XZ
	??1?$vector@UHalfFace@PolyMesh@easy3d@@V?$allocator@UHalfFace@PolyMesh@easy3d@@@std@@@std@@QEAA@XZ
	??1?$vector@UHalfFaceConnectivity@PolyMesh@easy3d@@V?$allocator@UHalfFaceConnectivity@PolyMesh@easy3d@@@std@@@std@@QEAA@XZ
	??1?$vector@UVertex@PolyMesh@easy3d@@V?$allocator@UVertex@PolyMesh@easy3d@@@std@@@std@@QEAA@XZ
	??1?$vector@UVertex@SurfaceMesh@easy3d@@V?$allocator@UVertex@SurfaceMesh@easy3d@@@std@@@std@@QEAA@XZ
	??1?$vector@UVertexConnectivity@PolyMesh@easy3d@@V?$allocator@UVertexConnectivity@PolyMesh@easy3d@@@std@@@std@@QEAA@XZ
	??1?$vector@U__line_t@tinyobj@@V?$allocator@U__line_t@tinyobj@@@std@@@std@@QEAA@XZ
	??1?$vector@U__points_t@tinyobj@@V?$allocator@U__points_t@tinyobj@@@std@@@std@@QEAA@XZ
	??1?$vector@Uface_t@tinyobj@@V?$allocator@Uface_t@tinyobj@@@std@@@std@@QEAA@XZ
	??1?$vector@Uindex_t@tinyobj@@V?$allocator@Uindex_t@tinyobj@@@std@@@std@@QEAA@XZ
	??1?$vector@Umaterial_t@tinyobj@@V?$allocator@Umaterial_t@tinyobj@@@std@@@std@@QEAA@XZ
	??1?$vector@Ushape_t@tinyobj@@V?$allocator@Ushape_t@tinyobj@@@std@@@std@@QEAA@XZ
	??1?$vector@Uskin_weight_t@tinyobj@@V?$allocator@Uskin_weight_t@tinyobj@@@std@@@std@@QEAA@XZ
	??1?$vector@Utag_t@tinyobj@@V?$allocator@Utag_t@tinyobj@@@std@@@std@@QEAA@XZ
	??1?$vector@V?$GenericProperty@H@io@easy3d@@V?$allocator@V?$GenericProperty@H@io@easy3d@@@std@@@std@@QEAA@XZ
	??1?$vector@V?$GenericProperty@M@io@easy3d@@V?$allocator@V?$GenericProperty@M@io@easy3d@@@std@@@std@@QEAA@XZ
	??1?$vector@V?$GenericProperty@V?$Vec@$01M@easy3d@@@io@easy3d@@V?$allocator@V?$GenericProperty@V?$Vec@$01M@easy3d@@@io@easy3d@@@std@@@std@@QEAA@XZ
	??1?$vector@V?$GenericProperty@V?$Vec@$02M@easy3d@@@io@easy3d@@V?$allocator@V?$GenericProperty@V?$Vec@$02M@easy3d@@@io@easy3d@@@std@@@std@@QEAA@XZ
	??1?$vector@V?$GenericProperty@V?$vector@HV?$allocator@H@std@@@std@@@io@easy3d@@V?$allocator@V?$GenericProperty@V?$vector@HV?$allocator@H@std@@@std@@@io@easy3d@@@std@@@std@@QEAA@XZ
	??1?$vector@V?$GenericProperty@V?$vector@MV?$allocator@M@std@@@std@@@io@easy3d@@V?$allocator@V?$GenericProperty@V?$vector@MV?$allocator@M@std@@@std@@@io@easy3d@@@std@@@std@@QEAA@XZ
	??1?$vector@V?$Vec@$01M@easy3d@@V?$allocator@V?$Vec@$01M@easy3d@@@std@@@std@@QEAA@XZ
	??1?$vector@V?$Vec@$02M@easy3d@@V?$allocator@V?$Vec@$02M@easy3d@@@std@@@std@@QEAA@XZ
	??1?$vector@V?$Vec@$02N@easy3d@@V?$allocator@V?$Vec@$02N@easy3d@@@std@@@std@@QEAA@XZ
	??1?$vector@V?$basic_json@Vmap@std@@Vvector@2@V?$basic_string@DU?$char_traits@D@std@@V?$allocator@D@2@@2@_N_J_KNVallocator@2@Uadl_serializer@nlohmann@@V?$vector@EV?$allocator@E@std@@@2@@nlohmann@@V?$allocator@V?$basic_json@Vmap@std@@Vvector@2@V?$basic_string@DU?$char_traits@D@std@@V?$allocator@D@2@@2@_N_J_KNVallocator@2@Uadl_serializer@nlohmann@@V?$vector@EV?$allocator@E@std@@@2@@nlohmann@@@std@@@std@@QEAA@XZ
	??1?$vector@V?$basic_string@DU?$char_traits@D@std@@V?$allocator@D@2@@std@@V?$allocator@V?$basic_string@DU?$char_traits@D@std@@V?$allocator@D@2@@std@@@2@@std@@QEAA@XZ
	??1?$vector@V?$vector@HV?$allocator@H@std@@@std@@V?$allocator@V?$vector@HV?$allocator@H@std@@@std@@@2@@std@@QEAA@XZ
	??1?$vector@V?$vector@MV?$allocator@M@std@@@std@@V?$allocator@V?$vector@MV?$allocator@M@std@@@std@@@2@@std@@QEAA@XZ
	??1?$vector@V?$vector@NV?$allocator@N@std@@@std@@V?$allocator@V?$vector@NV?$allocator@N@std@@@std@@@2@@std@@QEAA@XZ
	??1?$vector@V?$vector@V?$Vec@$02N@easy3d@@V?$allocator@V?$Vec@$02N@easy3d@@@std@@@std@@V?$allocator@V?$vector@V?$Vec@$02N@easy3d@@V?$allocator@V?$Vec@$02N@easy3d@@@std@@@std@@@2@@std@@QEAA@XZ
	??1?$vector@VVertexGroup@PointCloudIO_vg@io@easy3d@@V?$allocator@VVertexGroup@PointCloudIO_vg@io@easy3d@@@std@@@std@@QEAA@XZ
	??1?$vector@_NV?$allocator@_N@std@@@std@@QEAA@XZ
	??1BasePropertyArray@easy3d@@UEAA@XZ
	??1CellConnectivity@PolyMesh@easy3d@@QEAA@XZ
	??1EdgeConnectivity@PolyMesh@easy3d@@QEAA@XZ
	??1Element@io@easy3d@@QEAA@XZ
	??1HalfFaceConnectivity@PolyMesh@easy3d@@QEAA@XZ
	??1LASheader@@QEAA@XZ
	??1LASpoint@@QEAA@XZ
	??1LineInputStream@io@easy3d@@QEAA@XZ
	??1MaterialFileReader@tinyobj@@UEAA@XZ
	??1MaterialReader@tinyobj@@UEAA@XZ
	??1MaterialStreamReader@tinyobj@@UEAA@XZ
	??1ObjReader@tinyobj@@QEAA@XZ
	??1ObjReaderConfig@tinyobj@@QEAA@XZ
	??1PlyReader@io@easy3d@@QEAA@XZ
	??1PointCloudIO_ptx@io@easy3d@@QEAA@XZ
	??1PrimGroup@tinyobj@@QEAA@XZ
	??1VertexConnectivity@PolyMesh@easy3d@@QEAA@XZ
	??1VertexGroup@PointCloudIO_vg@io@easy3d@@QEAA@XZ
	??1Writer@base@el@@UEAA@XZ
	??1_Sentry_base@?$basic_istream@DU?$char_traits@D@std@@@std@@QEAA@XZ
	??1_Sentry_base@?$basic_ostream@DU?$char_traits@D@std@@@std@@QEAA@XZ
	??1__line_t@tinyobj@@QEAA@XZ
	??1__points_t@tinyobj@@QEAA@XZ
	??1attrib_t@tinyobj@@QEAA@XZ
	??1bad_array_new_length@std@@UEAA@XZ
	??1bad_cast@std@@UEAA@XZ
	??1exception@std@@UEAA@XZ
	??1face_t@tinyobj@@QEAA@XZ
	??1input_stream_adapter@detail@nlohmann@@QEAA@XZ
	??1invalid_iterator@detail@nlohmann@@UEAA@XZ
	??1lines_t@tinyobj@@QEAA@XZ
	??1locale@std@@QEAA@XZ
	??1material_t@tinyobj@@QEAA@XZ
	??1mesh_t@tinyobj@@QEAA@XZ
	??1other_error@detail@nlohmann@@UEAA@XZ
	??1out_of_range@detail@nlohmann@@UEAA@XZ
	??1parse_error@detail@nlohmann@@UEAA@XZ
	??1sentry@?$basic_istream@DU?$char_traits@D@std@@@std@@QEAA@XZ
	??1sentry@?$basic_ostream@DU?$char_traits@D@std@@@std@@QEAA@XZ
	??1shape_t@tinyobj@@QEAA@XZ
	??1skin_weight_t@tinyobj@@QEAA@XZ
	??1tag_t@tinyobj@@QEAA@XZ
	??1texture_option_t@tinyobj@@QEAA@XZ
	??1type_error@detail@nlohmann@@UEAA@XZ
	??4?$GenericProperty@V?$Vec@$02M@easy3d@@@io@easy3d@@QEAAAEAV012@AEBV012@@Z
	??4?$GenericProperty@V?$vector@HV?$allocator@H@std@@@std@@@io@easy3d@@QEAAAEAV012@AEBV012@@Z
	??4?$GenericProperty@V?$vector@MV?$allocator@M@std@@@std@@@io@easy3d@@QEAAAEAV012@AEBV012@@Z
	??4?$basic_string@DU?$char_traits@D@std@@V?$allocator@D@2@@std@@QEAAAEAV01@$$QEAV01@@Z
	??4?$basic_string@DU?$char_traits@D@std@@V?$allocator@D@2@@std@@QEAAAEAV01@QEBD@Z
	??4?$set@UCell@PolyMesh@easy3d@@U?$less@UCell@PolyMesh@easy3d@@@std@@V?$allocator@UCell@PolyMesh@easy3d@@@5@@std@@QEAAAEAV01@AEBV01@@Z
	??4?$set@UEdge@PolyMesh@easy3d@@U?$less@UEdge@PolyMesh@easy3d@@@std@@V?$allocator@UEdge@PolyMesh@easy3d@@@5@@std@@QEAAAEAV01@AEBV01@@Z
	??4?$set@UHalfFace@PolyMesh@easy3d@@U?$less@UHalfFace@PolyMesh@easy3d@@@std@@V?$allocator@UHalfFace@PolyMesh@easy3d@@@5@@std@@QEAAAEAV01@AEBV01@@Z
	??4?$set@UVertex@PolyMesh@easy3d@@U?$less@UVertex@PolyMesh@easy3d@@@std@@V?$allocator@UVertex@PolyMesh@easy3d@@@5@@std@@QEAAAEAV01@AEBV01@@Z
	??4?$vector@HV?$allocator@H@std@@@std@@QEAAAEAV01@$$QEAV01@@Z
	??4?$vector@HV?$allocator@H@std@@@std@@QEAAAEAV01@AEBV01@@Z
	??4?$vector@IV?$allocator@I@std@@@std@@QEAAAEAV01@$$QEAV01@@Z
	??4?$vector@UVertex@PolyMesh@easy3d@@V?$allocator@UVertex@PolyMesh@easy3d@@@std@@@std@@QEAAAEAV01@AEBV01@@Z
	??4?$vector@Uindex_t@tinyobj@@V?$allocator@Uindex_t@tinyobj@@@std@@@std@@QEAAAEAV01@$$QEAV01@@Z
	??4Element@io@easy3d@@QEAAAEAU012@AEBU012@@Z
	??4VertexGroup@PointCloudIO_vg@io@easy3d@@QEAAAEAV0123@AEBV0123@@Z
	??4shape_t@tinyobj@@QEAAAEAU01@$$QEAU01@@Z
	??4tag_t@tinyobj@@QEAAAEAU01@AEBU01@@Z
	??6MessageBuilder@base@el@@QEAAAEAV012@PEBD@Z
	??8nlohmann@@YA_NAEBV?$basic_json@Vmap@std@@Vvector@2@V?$basic_string@DU?$char_traits@D@std@@V?$allocator@D@2@@2@_N_J_KNVallocator@2@Uadl_serializer@nlohmann@@V?$vector@EV?$allocator@E@std@@@2@@0@0@Z
	??A?$ModelProperty@UElement@io@easy3d@@@Graph@easy3d@@UEAAAEAUElement@io@2@_K@Z
	??A?$ModelProperty@UElement@io@easy3d@@@Graph@easy3d@@UEBAAEBUElement@io@2@_K@Z
	??A?$ModelProperty@UElement@io@easy3d@@@PointCloud@easy3d@@UEAAAEAUElement@io@2@_K@Z
	??A?$ModelProperty@UElement@io@easy3d@@@PointCloud@easy3d@@UEBAAEBUElement@io@2@_K@Z
	??A?$ModelProperty@UElement@io@easy3d@@@SurfaceMesh@easy3d@@UEAAAEAUElement@io@2@_K@Z
	??A?$ModelProperty@UElement@io@easy3d@@@SurfaceMesh@easy3d@@UEBAAEBUElement@io@2@_K@Z
	??A?$ModelProperty@V?$Vec@$02N@easy3d@@@Graph@easy3d@@UEAAAEAV?$Vec@$02N@2@_K@Z
	??A?$ModelProperty@V?$Vec@$02N@easy3d@@@Graph@easy3d@@UEBAAEBV?$Vec@$02N@2@_K@Z
	??A?$ModelProperty@V?$Vec@$02N@easy3d@@@PointCloud@easy3d@@UEAAAEAV?$Vec@$02N@2@_K@Z
	??A?$ModelProperty@V?$Vec@$02N@easy3d@@@PointCloud@easy3d@@UEBAAEBV?$Vec@$02N@2@_K@Z
	??A?$ModelProperty@V?$Vec@$02N@easy3d@@@PolyMesh@easy3d@@UEAAAEAV?$Vec@$02N@2@_K@Z
	??A?$ModelProperty@V?$Vec@$02N@easy3d@@@PolyMesh@easy3d@@UEBAAEBV?$Vec@$02N@2@_K@Z
	??A?$ModelProperty@V?$Vec@$02N@easy3d@@@SurfaceMesh@easy3d@@UEAAAEAV?$Vec@$02N@2@_K@Z
	??A?$ModelProperty@V?$Vec@$02N@easy3d@@@SurfaceMesh@easy3d@@UEBAAEBV?$Vec@$02N@2@_K@Z
	??A?$Property@H@easy3d@@UEAAAEAH_K@Z
	??A?$Property@H@easy3d@@UEBAAEBH_K@Z
	??A?$Property@M@easy3d@@UEAAAEAM_K@Z
	??A?$Property@M@easy3d@@UEBAAEBM_K@Z
	??A?$Property@UCellConnectivity@PolyMesh@easy3d@@@easy3d@@UEAAAEAUCellConnectivity@PolyMesh@1@_K@Z
	??A?$Property@UCellConnectivity@PolyMesh@easy3d@@@easy3d@@UEBAAEBUCellConnectivity@PolyMesh@1@_K@Z
	??A?$Property@UEdgeConnectivity@Graph@easy3d@@@easy3d@@UEBAAEBUEdgeConnectivity@Graph@1@_K@Z
	??A?$Property@UEdgeConnectivity@PolyMesh@easy3d@@@easy3d@@UEAAAEAUEdgeConnectivity@PolyMesh@1@_K@Z
	??A?$Property@UEdgeConnectivity@PolyMesh@easy3d@@@easy3d@@UEBAAEBUEdgeConnectivity@PolyMesh@1@_K@Z
	??A?$Property@UElement@io@easy3d@@@easy3d@@UEAAAEAUElement@io@1@_K@Z
	??A?$Property@UElement@io@easy3d@@@easy3d@@UEBAAEBUElement@io@1@_K@Z
	??A?$Property@UFaceConnectivity@SurfaceMesh@easy3d@@@easy3d@@UEAAAEAUFaceConnectivity@SurfaceMesh@1@_K@Z
	??A?$Property@UFaceConnectivity@SurfaceMesh@easy3d@@@easy3d@@UEBAAEBUFaceConnectivity@SurfaceMesh@1@_K@Z
	??A?$Property@UHalfFaceConnectivity@PolyMesh@easy3d@@@easy3d@@UEAAAEAUHalfFaceConnectivity@PolyMesh@1@_K@Z
	??A?$Property@UHalfFaceConnectivity@PolyMesh@easy3d@@@easy3d@@UEBAAEBUHalfFaceConnectivity@PolyMesh@1@_K@Z
	??A?$Property@UHalfedgeConnectivity@SurfaceMesh@easy3d@@@easy3d@@UEAAAEAUHalfedgeConnectivity@SurfaceMesh@1@_K@Z
	??A?$Property@UHalfedgeConnectivity@SurfaceMesh@easy3d@@@easy3d@@UEBAAEBUHalfedgeConnectivity@SurfaceMesh@1@_K@Z
	??A?$Property@UVertexConnectivity@PolyMesh@easy3d@@@easy3d@@UEAAAEAUVertexConnectivity@PolyMesh@1@_K@Z
	??A?$Property@UVertexConnectivity@PolyMesh@easy3d@@@easy3d@@UEBAAEBUVertexConnectivity@PolyMesh@1@_K@Z
	??A?$Property@UVertexConnectivity@SurfaceMesh@easy3d@@@easy3d@@UEAAAEAUVertexConnectivity@SurfaceMesh@1@_K@Z
	??A?$Property@UVertexConnectivity@SurfaceMesh@easy3d@@@easy3d@@UEBAAEBUVertexConnectivity@SurfaceMesh@1@_K@Z
	??A?$Property@V?$Vec@$01M@easy3d@@@easy3d@@UEAAAEAV?$Vec@$01M@1@_K@Z
	??A?$Property@V?$Vec@$01M@easy3d@@@easy3d@@UEBAAEBV?$Vec@$01M@1@_K@Z
	??A?$Property@V?$Vec@$02M@easy3d@@@easy3d@@UEAAAEAV?$Vec@$02M@1@_K@Z
	??A?$Property@V?$Vec@$02M@easy3d@@@easy3d@@UEBAAEBV?$Vec@$02M@1@_K@Z
	??A?$Property@V?$Vec@$02N@easy3d@@@easy3d@@UEAAAEAV?$Vec@$02N@1@_K@Z
	??A?$Property@V?$Vec@$02N@easy3d@@@easy3d@@UEBAAEBV?$Vec@$02N@1@_K@Z
	??A?$Property@V?$vector@HV?$allocator@H@std@@@std@@@easy3d@@UEAAAEAV?$vector@HV?$allocator@H@std@@@std@@_K@Z
	??A?$Property@V?$vector@HV?$allocator@H@std@@@std@@@easy3d@@UEBAAEBV?$vector@HV?$allocator@H@std@@@std@@_K@Z
	??A?$Property@V?$vector@MV?$allocator@M@std@@@std@@@easy3d@@UEAAAEAV?$vector@MV?$allocator@M@std@@@std@@_K@Z
	??A?$Property@V?$vector@MV?$allocator@M@std@@@std@@@easy3d@@UEBAAEBV?$vector@MV?$allocator@M@std@@@std@@_K@Z
	??A?$Property@_N@easy3d@@UEBA_N_K@Z
	??A?$map@V?$basic_string@DU?$char_traits@D@std@@V?$allocator@D@2@@std@@V?$basic_json@Vmap@std@@Vvector@2@V?$basic_string@DU?$char_traits@D@std@@V?$allocator@D@2@@2@_N_J_KNVallocator@2@Uadl_serializer@nlohmann@@V?$vector@EV?$allocator@E@std@@@2@@nlohmann@@U?$less@V?$basic_string@DU?$char_traits@D@std@@V?$allocator@D@2@@std@@@2@V?$allocator@U?$pair@$$CBV?$basic_string@DU?$char_traits@D@std@@V?$allocator@D@2@@std@@V?$basic_json@Vmap@std@@Vvector@2@V?$basic_string@DU?$char_traits@D@std@@V?$allocator@D@2@@2@_N_J_KNVallocator@2@Uadl_serializer@nlohmann@@V?$vector@EV?$allocator@E@std@@@2@@nlohmann@@@std@@@2@@std@@QEAAAEAV?$basic_json@Vmap@std@@Vvector@2@V?$basic_string@DU?$char_traits@D@std@@V?$allocator@D@2@@2@_N_J_KNVallocator@2@Uadl_serializer@nlohmann@@V?$vector@EV?$allocator@E@std@@@2@@nlohmann@@AEBV?$basic_string@DU?$char_traits@D@std@@V?$allocator@D@2@@1@@Z
	??A?$unordered_map@V?$basic_string@DU?$char_traits@D@std@@V?$allocator@D@2@@std@@PEAUElement@io@easy3d@@U?$hash@V?$basic_string@DU?$char_traits@D@std@@V?$allocator@D@2@@std@@@2@U?$equal_to@V?$basic_string@DU?$char_traits@D@std@@V?$allocator@D@2@@std@@@2@V?$allocator@U?$pair@$$CBV?$basic_string@DU?$char_traits@D@std@@V?$allocator@D@2@@std@@PEAUElement@io@easy3d@@@std@@@2@@std@@QEAAAEAPEAUElement@io@easy3d@@AEBV?$basic_string@DU?$char_traits@D@std@@V?$allocator@D@2@@1@@Z
	??A?$unordered_map@V?$basic_string@DU?$char_traits@D@std@@V?$allocator@D@2@@std@@_KU?$hash@V?$basic_string@DU?$char_traits@D@std@@V?$allocator@D@2@@std@@@2@U?$equal_to@V?$basic_string@DU?$char_traits@D@std@@V?$allocator@D@2@@std@@@2@V?$allocator@U?$pair@$$CBV?$basic_string@DU?$char_traits@D@std@@V?$allocator@D@2@@std@@_K@std@@@2@@std@@QEAAAEA_KAEBV?$basic_string@DU?$char_traits@D@std@@V?$allocator@D@2@@1@@Z
	??A?$vector@V?$Vec@$02M@easy3d@@V?$allocator@V?$Vec@$02M@easy3d@@@std@@@std@@QEAAAEAV?$Vec@$02M@easy3d@@_K@Z
	??C?$iter_impl@$$CBV?$basic_json@Vmap@std@@Vvector@2@V?$basic_string@DU?$char_traits@D@std@@V?$allocator@D@2@@2@_N_J_KNVallocator@2@Uadl_serializer@nlohmann@@V?$vector@EV?$allocator@E@std@@@2@@nlohmann@@@detail@nlohmann@@QEBAPEBV?$basic_json@Vmap@std@@Vvector@2@V?$basic_string@DU?$char_traits@D@std@@V?$allocator@D@2@@2@_N_J_KNVallocator@2@Uadl_serializer@nlohmann@@V?$vector@EV?$allocator@E@std@@@2@@2@XZ
	??C?$iter_impl@V?$basic_json@Vmap@std@@Vvector@2@V?$basic_string@DU?$char_traits@D@std@@V?$allocator@D@2@@2@_N_J_KNVallocator@2@Uadl_serializer@nlohmann@@V?$vector@EV?$allocator@E@std@@@2@@nlohmann@@@detail@nlohmann@@QEBAPEAV?$basic_json@Vmap@std@@Vvector@2@V?$basic_string@DU?$char_traits@D@std@@V?$allocator@D@2@@2@_N_J_KNVallocator@2@Uadl_serializer@nlohmann@@V?$vector@EV?$allocator@E@std@@@2@@2@XZ
	??D?$iter_impl@$$CBV?$basic_json@Vmap@std@@Vvector@2@V?$basic_string@DU?$char_traits@D@std@@V?$allocator@D@2@@2@_N_J_KNVallocator@2@Uadl_serializer@nlohmann@@V?$vector@EV?$allocator@E@std@@@2@@nlohmann@@@detail@nlohmann@@QEBAAEBV?$basic_json@Vmap@std@@Vvector@2@V?$basic_string@DU?$char_traits@D@std@@V?$allocator@D@2@@2@_N_J_KNVallocator@2@Uadl_serializer@nlohmann@@V?$vector@EV?$allocator@E@std@@@2@@2@XZ
	??H?$_Vb_iterator@U?$_Wrap_alloc@V?$allocator@I@std@@@std@@@std@@QEBA?AV01@_J@Z
	??R?$less@V?$basic_string@DU?$char_traits@D@std@@V?$allocator@D@2@@std@@@std@@QEBA_NAEBV?$basic_string@DU?$char_traits@D@std@@V?$allocator@D@2@@1@0@Z
	??RMaterialFileReader@tinyobj@@UEAA_NAEBV?$basic_string@DU?$char_traits@D@std@@V?$allocator@D@2@@std@@PEAV?$vector@Umaterial_t@tinyobj@@V?$allocator@Umaterial_t@tinyobj@@@std@@@3@PEAV?$map@V?$basic_string@DU?$char_traits@D@std@@V?$allocator@D@2@@std@@HU?$less@V?$basic_string@DU?$char_traits@D@std@@V?$allocator@D@2@@std@@@2@V?$allocator@U?$pair@$$CBV?$basic_string@DU?$char_traits@D@std@@V?$allocator@D@2@@std@@H@std@@@2@@3@PEAV23@3@Z
	??RMaterialStreamReader@tinyobj@@UEAA_NAEBV?$basic_string@DU?$char_traits@D@std@@V?$allocator@D@2@@std@@PEAV?$vector@Umaterial_t@tinyobj@@V?$allocator@Umaterial_t@tinyobj@@@std@@@3@PEAV?$map@V?$basic_string@DU?$char_traits@D@std@@V?$allocator@D@2@@std@@HU?$less@V?$basic_string@DU?$char_traits@D@std@@V?$allocator@D@2@@std@@@2@V?$allocator@U?$pair@$$CBV?$basic_string@DU?$char_traits@D@std@@V?$allocator@D@2@@std@@H@std@@@2@@3@PEAV23@3@Z
	??Y?$basic_string@DU?$char_traits@D@std@@V?$allocator@D@2@@std@@QEAAAEAV01@AEBV01@@Z
	??Y?$basic_string@DU?$char_traits@D@std@@V?$allocator@D@2@@std@@QEAAAEAV01@QEBD@Z
	??_7?$CellProperty@UCellConnectivity@PolyMesh@easy3d@@@PolyMesh@easy3d@@6B@
	??_7?$EdgeProperty@H@Graph@easy3d@@6B@
	??_7?$EdgeProperty@H@SurfaceMesh@easy3d@@6B@
	??_7?$EdgeProperty@M@Graph@easy3d@@6B@
	??_7?$EdgeProperty@M@SurfaceMesh@easy3d@@6B@
	??_7?$EdgeProperty@UEdgeConnectivity@PolyMesh@easy3d@@@PolyMesh@easy3d@@6B@
	??_7?$EdgeProperty@V?$Vec@$01M@easy3d@@@Graph@easy3d@@6B@
	??_7?$EdgeProperty@V?$Vec@$01M@easy3d@@@SurfaceMesh@easy3d@@6B@
	??_7?$EdgeProperty@V?$Vec@$02M@easy3d@@@Graph@easy3d@@6B@
	??_7?$EdgeProperty@V?$Vec@$02M@easy3d@@@SurfaceMesh@easy3d@@6B@
	??_7?$EdgeProperty@V?$vector@HV?$allocator@H@std@@@std@@@Graph@easy3d@@6B@
	??_7?$EdgeProperty@V?$vector@HV?$allocator@H@std@@@std@@@SurfaceMesh@easy3d@@6B@
	??_7?$EdgeProperty@V?$vector@MV?$allocator@M@std@@@std@@@Graph@easy3d@@6B@
	??_7?$EdgeProperty@V?$vector@MV?$allocator@M@std@@@std@@@SurfaceMesh@easy3d@@6B@
	??_7?$FaceProperty@H@SurfaceMesh@easy3d@@6B@
	??_7?$FaceProperty@M@SurfaceMesh@easy3d@@6B@
	??_7?$FaceProperty@UFaceConnectivity@SurfaceMesh@easy3d@@@SurfaceMesh@easy3d@@6B@
	??_7?$FaceProperty@V?$Vec@$01M@easy3d@@@SurfaceMesh@easy3d@@6B@
	??_7?$FaceProperty@V?$Vec@$02M@easy3d@@@SurfaceMesh@easy3d@@6B@
	??_7?$FaceProperty@V?$vector@HV?$allocator@H@std@@@std@@@SurfaceMesh@easy3d@@6B@
	??_7?$FaceProperty@V?$vector@MV?$allocator@M@std@@@std@@@SurfaceMesh@easy3d@@6B@
	??_7?$HalfFaceProperty@UHalfFaceConnectivity@PolyMesh@easy3d@@@PolyMesh@easy3d@@6B@
	??_7?$HalfedgeProperty@UHalfedgeConnectivity@SurfaceMesh@easy3d@@@SurfaceMesh@easy3d@@6B@
	??_7?$HalfedgeProperty@V?$Vec@$01M@easy3d@@@SurfaceMesh@easy3d@@6B@
	??_7?$ModelProperty@UElement@io@easy3d@@@Graph@easy3d@@6B@
	??_7?$ModelProperty@UElement@io@easy3d@@@PointCloud@easy3d@@6B@
	??_7?$ModelProperty@UElement@io@easy3d@@@SurfaceMesh@easy3d@@6B@
	??_7?$ModelProperty@V?$Vec@$02N@easy3d@@@Graph@easy3d@@6B@
	??_7?$ModelProperty@V?$Vec@$02N@easy3d@@@PointCloud@easy3d@@6B@
	??_7?$ModelProperty@V?$Vec@$02N@easy3d@@@PolyMesh@easy3d@@6B@
	??_7?$ModelProperty@V?$Vec@$02N@easy3d@@@SurfaceMesh@easy3d@@6B@
	??_7?$Property@H@easy3d@@6B@
	??_7?$Property@M@easy3d@@6B@
	??_7?$Property@UCellConnectivity@PolyMesh@easy3d@@@easy3d@@6B@
	??_7?$Property@UEdgeConnectivity@PolyMesh@easy3d@@@easy3d@@6B@
	??_7?$Property@UElement@io@easy3d@@@easy3d@@6B@
	??_7?$Property@UFaceConnectivity@SurfaceMesh@easy3d@@@easy3d@@6B@
	??_7?$Property@UHalfFaceConnectivity@PolyMesh@easy3d@@@easy3d@@6B@
	??_7?$Property@UHalfedgeConnectivity@SurfaceMesh@easy3d@@@easy3d@@6B@
	??_7?$Property@UVertexConnectivity@PolyMesh@easy3d@@@easy3d@@6B@
	??_7?$Property@UVertexConnectivity@SurfaceMesh@easy3d@@@easy3d@@6B@
	??_7?$Property@V?$Vec@$01M@easy3d@@@easy3d@@6B@
	??_7?$Property@V?$Vec@$02M@easy3d@@@easy3d@@6B@
	??_7?$Property@V?$Vec@$02N@easy3d@@@easy3d@@6B@
	??_7?$Property@V?$vector@HV?$allocator@H@std@@@std@@@easy3d@@6B@
	??_7?$Property@V?$vector@MV?$allocator@M@std@@@std@@@easy3d@@6B@
	??_7?$PropertyArray@H@easy3d@@6B@
	??_7?$PropertyArray@M@easy3d@@6B@
	??_7?$PropertyArray@UCellConnectivity@PolyMesh@easy3d@@@easy3d@@6B@
	??_7?$PropertyArray@UEdgeConnectivity@PolyMesh@easy3d@@@easy3d@@6B@
	??_7?$PropertyArray@UElement@io@easy3d@@@easy3d@@6B@
	??_7?$PropertyArray@UFaceConnectivity@SurfaceMesh@easy3d@@@easy3d@@6B@
	??_7?$PropertyArray@UHalfFaceConnectivity@PolyMesh@easy3d@@@easy3d@@6B@
	??_7?$PropertyArray@UHalfedgeConnectivity@SurfaceMesh@easy3d@@@easy3d@@6B@
	??_7?$PropertyArray@UVertexConnectivity@PolyMesh@easy3d@@@easy3d@@6B@
	??_7?$PropertyArray@UVertexConnectivity@SurfaceMesh@easy3d@@@easy3d@@6B@
	??_7?$PropertyArray@V?$Vec@$01M@easy3d@@@easy3d@@6B@
	??_7?$PropertyArray@V?$Vec@$02M@easy3d@@@easy3d@@6B@
	??_7?$PropertyArray@V?$Vec@$02N@easy3d@@@easy3d@@6B@
	??_7?$PropertyArray@V?$vector@HV?$allocator@H@std@@@std@@@easy3d@@6B@
	??_7?$PropertyArray@V?$vector@MV?$allocator@M@std@@@std@@@easy3d@@6B@
	??_7?$VertexProperty@H@Graph@easy3d@@6B@
	??_7?$VertexProperty@H@PointCloud@easy3d@@6B@
	??_7?$VertexProperty@H@SurfaceMesh@easy3d@@6B@
	??_7?$VertexProperty@M@Graph@easy3d@@6B@
	??_7?$VertexProperty@M@PointCloud@easy3d@@6B@
	??_7?$VertexProperty@M@SurfaceMesh@easy3d@@6B@
	??_7?$VertexProperty@UVertexConnectivity@PolyMesh@easy3d@@@PolyMesh@easy3d@@6B@
	??_7?$VertexProperty@UVertexConnectivity@SurfaceMesh@easy3d@@@SurfaceMesh@easy3d@@6B@
	??_7?$VertexProperty@V?$Vec@$01M@easy3d@@@Graph@easy3d@@6B@
	??_7?$VertexProperty@V?$Vec@$01M@easy3d@@@PointCloud@easy3d@@6B@
	??_7?$VertexProperty@V?$Vec@$01M@easy3d@@@SurfaceMesh@easy3d@@6B@
	??_7?$VertexProperty@V?$Vec@$02M@easy3d@@@Graph@easy3d@@6B@
	??_7?$VertexProperty@V?$Vec@$02M@easy3d@@@PointCloud@easy3d@@6B@
	??_7?$VertexProperty@V?$Vec@$02M@easy3d@@@PolyMesh@easy3d@@6B@
	??_7?$VertexProperty@V?$Vec@$02M@easy3d@@@SurfaceMesh@easy3d@@6B@
	??_7?$VertexProperty@V?$vector@HV?$allocator@H@std@@@std@@@Graph@easy3d@@6B@
	??_7?$VertexProperty@V?$vector@HV?$allocator@H@std@@@std@@@PointCloud@easy3d@@6B@
	??_7?$VertexProperty@V?$vector@HV?$allocator@H@std@@@std@@@SurfaceMesh@easy3d@@6B@
	??_7?$VertexProperty@V?$vector@MV?$allocator@M@std@@@std@@@Graph@easy3d@@6B@
	??_7?$VertexProperty@V?$vector@MV?$allocator@M@std@@@std@@@PointCloud@easy3d@@6B@
	??_7?$VertexProperty@V?$vector@MV?$allocator@M@std@@@std@@@SurfaceMesh@easy3d@@6B@
	??_7?$basic_filebuf@DU?$char_traits@D@std@@@std@@6B@
	??_7?$basic_ifstream@DU?$char_traits@D@std@@@std@@6B@
	??_7?$basic_istringstream@DU?$char_traits@D@std@@V?$allocator@D@2@@std@@6B@
	??_7?$basic_ofstream@DU?$char_traits@D@std@@@std@@6B@
	??_7?$basic_stringbuf@DU?$char_traits@D@std@@V?$allocator@D@2@@std@@6B@
	??_7?$basic_stringstream@DU?$char_traits@D@std@@V?$allocator@D@2@@std@@6B@
	??_7BasePropertyArray@easy3d@@6B@
	??_7MaterialFileReader@tinyobj@@6B@
	??_7MaterialReader@tinyobj@@6B@
	??_7MaterialStreamReader@tinyobj@@6B@
	??_7Writer@base@el@@6B@
	??_7bad_alloc@std@@6B@
	??_7bad_array_new_length@std@@6B@
	??_7bad_cast@std@@6B@
	??_7exception@detail@nlohmann@@6B@
	??_7exception@std@@6B@
	??_7invalid_iterator@detail@nlohmann@@6B@
	??_7other_error@detail@nlohmann@@6B@
	??_7out_of_range@detail@nlohmann@@6B@
	??_7parse_error@detail@nlohmann@@6B@
	??_7runtime_error@std@@6B@
	??_7type_error@detail@nlohmann@@6B@
	??_D?$basic_ifstream@DU?$char_traits@D@std@@@std@@QEAAXXZ
	??_D?$basic_istringstream@DU?$char_traits@D@std@@V?$allocator@D@2@@std@@QEAAXXZ
	??_D?$basic_ofstream@DU?$char_traits@D@std@@@std@@QEAAXXZ
	??_D?$basic_stringstream@DU?$char_traits@D@std@@V?$allocator@D@2@@std@@QEAAXXZ
	??_H@YAXPEAX_K1P6APEAX0@Z@Z
	?LoadMtl@tinyobj@@YAXPEAV?$map@V?$basic_string@DU?$char_traits@D@std@@V?$allocator@D@2@@std@@HU?$less@V?$basic_string@DU?$char_traits@D@std@@V?$allocator@D@2@@std@@@2@V?$allocator@U?$pair@$$CBV?$basic_string@DU?$char_traits@D@std@@V?$allocator@D@2@@std@@H@std@@@2@@std@@PEAV?$vector@Umaterial_t@tinyobj@@V?$allocator@Umaterial_t@tinyobj@@@std@@@3@PEAV?$basic_istream@DU?$char_traits@D@std@@@3@PEAV?$basic_string@DU?$char_traits@D@std@@V?$allocator@D@2@@3@3@Z
	?LoadObj@tinyobj@@YA_NPEAUattrib_t@1@PEAV?$vector@Ushape_t@tinyobj@@V?$allocator@Ushape_t@tinyobj@@@std@@@std@@PEAV?$vector@Umaterial_t@tinyobj@@V?$allocator@Umaterial_t@tinyobj@@@std@@@4@PEAV?$basic_string@DU?$char_traits@D@std@@V?$allocator@D@2@@4@3PEAV?$basic_istream@DU?$char_traits@D@std@@@4@PEAVMaterialReader@1@_N6@Z
	?LoadObj@tinyobj@@YA_NPEAUattrib_t@1@PEAV?$vector@Ushape_t@tinyobj@@V?$allocator@Ushape_t@tinyobj@@@std@@@std@@PEAV?$vector@Umaterial_t@tinyobj@@V?$allocator@Umaterial_t@tinyobj@@@std@@@4@PEAV?$basic_string@DU?$char_traits@D@std@@V?$allocator@D@2@@4@3PEBD4_N5@Z
	?LoadObjWithCallback@tinyobj@@YA_NAEAV?$basic_istream@DU?$char_traits@D@std@@@std@@AEBUcallback_t@1@PEAXPEAVMaterialReader@1@PEAV?$basic_string@DU?$char_traits@D@std@@V?$allocator@D@2@@3@4@Z
	?ParseFromFile@ObjReader@tinyobj@@QEAA_NAEBV?$basic_string@DU?$char_traits@D@std@@V?$allocator@D@2@@std@@AEBUObjReaderConfig@2@@Z
	?ParseFromString@ObjReader@tinyobj@@QEAA_NAEBV?$basic_string@DU?$char_traits@D@std@@V?$allocator@D@2@@std@@0AEBUObjReaderConfig@2@@Z
	?ParseTextureNameAndOption@tinyobj@@YA_NPEAV?$basic_string@DU?$char_traits@D@std@@V?$allocator@D@2@@std@@PEAUtexture_option_t@1@PEBD@Z
	?_Assign_grow@?$_Hash_vec@V?$allocator@V?$_List_unchecked_iterator@V?$_List_val@U?$_List_simple_types@U?$pair@$$CBHV?$unordered_map@HVVertexGroup@PointCloudIO_vg@io@easy3d@@U?$hash@H@std@@U?$equal_to@H@6@V?$allocator@U?$pair@$$CBHVVertexGroup@PointCloudIO_vg@io@easy3d@@@std@@@6@@std@@@std@@@std@@@std@@@std@@@std@@@std@@QEAAX_KV?$_List_unchecked_iterator@V?$_List_val@U?$_List_simple_types@U?$pair@$$CBHV?$unordered_map@HVVertexGroup@PointCloudIO_vg@io@easy3d@@U?$hash@H@std@@U?$equal_to@H@6@V?$allocator@U?$pair@$$CBHVVertexGroup@PointCloudIO_vg@io@easy3d@@@std@@@6@@std@@@std@@@std@@@std@@@2@@Z
	?_Assign_grow@?$_Hash_vec@V?$allocator@V?$_List_unchecked_iterator@V?$_List_val@U?$_List_simple_types@U?$pair@$$CBHVVertexGroup@PointCloudIO_vg@io@easy3d@@@std@@@std@@@std@@@std@@@std@@@std@@QEAAX_KV?$_List_unchecked_iterator@V?$_List_val@U?$_List_simple_types@U?$pair@$$CBHVVertexGroup@PointCloudIO_vg@io@easy3d@@@std@@@std@@@std@@@2@@Z
	?_Assign_grow@?$_Hash_vec@V?$allocator@V?$_List_unchecked_iterator@V?$_List_val@U?$_List_simple_types@U?$pair@$$CBV?$basic_string@DU?$char_traits@D@std@@V?$allocator@D@2@@std@@PEAUElement@io@easy3d@@@std@@@std@@@std@@@std@@@std@@@std@@QEAAX_KV?$_List_unchecked_iterator@V?$_List_val@U?$_List_simple_types@U?$pair@$$CBV?$basic_string@DU?$char_traits@D@std@@V?$allocator@D@2@@std@@PEAUElement@io@easy3d@@@std@@@std@@@std@@@2@@Z
	?_Assign_grow@?$_Hash_vec@V?$allocator@V?$_List_unchecked_iterator@V?$_List_val@U?$_List_simple_types@U?$pair@$$CBV?$basic_string@DU?$char_traits@D@std@@V?$allocator@D@2@@std@@_K@std@@@std@@@std@@@std@@@std@@@std@@QEAAX_KV?$_List_unchecked_iterator@V?$_List_val@U?$_List_simple_types@U?$pair@$$CBV?$basic_string@DU?$char_traits@D@std@@V?$allocator@D@2@@std@@_K@std@@@std@@@std@@@2@@Z
	?_Buy_raw@?$vector@UHalfFace@PolyMesh@easy3d@@V?$allocator@UHalfFace@PolyMesh@easy3d@@@std@@@std@@AEAAX_K@Z
	?_Buy_raw@?$vector@UVertex@PolyMesh@easy3d@@V?$allocator@UVertex@PolyMesh@easy3d@@@std@@@std@@AEAAX_K@Z
	?_Change_array@?$vector@HV?$allocator@H@std@@@std@@AEAAXQEAH_K1@Z
	?_Change_array@?$vector@IV?$allocator@I@std@@@std@@AEAAXQEAI_K1@Z
	?_Change_array@?$vector@MV?$allocator@M@std@@@std@@AEAAXQEAM_K1@Z
	?_Change_array@?$vector@NV?$allocator@N@std@@@std@@AEAAXQEAN_K1@Z
	?_Change_array@?$vector@PEAV?$basic_json@Vmap@std@@Vvector@2@V?$basic_string@DU?$char_traits@D@std@@V?$allocator@D@2@@2@_N_J_KNVallocator@2@Uadl_serializer@nlohmann@@V?$vector@EV?$allocator@E@std@@@2@@nlohmann@@V?$allocator@PEAV?$basic_json@Vmap@std@@Vvector@2@V?$basic_string@DU?$char_traits@D@std@@V?$allocator@D@2@@2@_N_J_KNVallocator@2@Uadl_serializer@nlohmann@@V?$vector@EV?$allocator@E@std@@@2@@nlohmann@@@std@@@std@@AEAAXQEAPEAV?$basic_json@Vmap@std@@Vvector@2@V?$basic_string@DU?$char_traits@D@std@@V?$allocator@D@2@@2@_N_J_KNVallocator@2@Uadl_serializer@nlohmann@@V?$vector@EV?$allocator@E@std@@@2@@nlohmann@@_K1@Z
	?_Change_array@?$vector@PEAVBasePropertyArray@easy3d@@V?$allocator@PEAVBasePropertyArray@easy3d@@@std@@@std@@AEAAXQEAPEAVBasePropertyArray@easy3d@@_K1@Z
	?_Change_array@?$vector@UCellConnectivity@PolyMesh@easy3d@@V?$allocator@UCellConnectivity@PolyMesh@easy3d@@@std@@@std@@AEAAXQEAUCellConnectivity@PolyMesh@easy3d@@_K1@Z
	?_Change_array@?$vector@UEdgeConnectivity@PolyMesh@easy3d@@V?$allocator@UEdgeConnectivity@PolyMesh@easy3d@@@std@@@std@@AEAAXQEAUEdgeConnectivity@PolyMesh@easy3d@@_K1@Z
	?_Change_array@?$vector@UElement@io@easy3d@@V?$allocator@UElement@io@easy3d@@@std@@@std@@AEAAXQEAUElement@io@easy3d@@_K1@Z
	?_Change_array@?$vector@UFaceConnectivity@SurfaceMesh@easy3d@@V?$allocator@UFaceConnectivity@SurfaceMesh@easy3d@@@std@@@std@@AEAAXQEAUFaceConnectivity@SurfaceMesh@easy3d@@_K1@Z
	?_Change_array@?$vector@UHalfFaceConnectivity@PolyMesh@easy3d@@V?$allocator@UHalfFaceConnectivity@PolyMesh@easy3d@@@std@@@std@@AEAAXQEAUHalfFaceConnectivity@PolyMesh@easy3d@@_K1@Z
	?_Change_array@?$vector@UHalfedgeConnectivity@SurfaceMesh@easy3d@@V?$allocator@UHalfedgeConnectivity@SurfaceMesh@easy3d@@@std@@@std@@AEAAXQEAUHalfedgeConnectivity@SurfaceMesh@easy3d@@_K1@Z
	?_Change_array@?$vector@UVertex@PolyMesh@easy3d@@V?$allocator@UVertex@PolyMesh@easy3d@@@std@@@std@@AEAAXQEAUVertex@PolyMesh@easy3d@@_K1@Z
	?_Change_array@?$vector@UVertex@SurfaceMesh@easy3d@@V?$allocator@UVertex@SurfaceMesh@easy3d@@@std@@@std@@AEAAXQEAUVertex@SurfaceMesh@easy3d@@_K1@Z
	?_Change_array@?$vector@UVertexConnectivity@PolyMesh@easy3d@@V?$allocator@UVertexConnectivity@PolyMesh@easy3d@@@std@@@std@@AEAAXQEAUVertexConnectivity@PolyMesh@easy3d@@_K1@Z
	?_Change_array@?$vector@UVertexConnectivity@SurfaceMesh@easy3d@@V?$allocator@UVertexConnectivity@SurfaceMesh@easy3d@@@std@@@std@@AEAAXQEAUVertexConnectivity@SurfaceMesh@easy3d@@_K1@Z
	?_Change_array@?$vector@Uvertex_index_t@tinyobj@@V?$allocator@Uvertex_index_t@tinyobj@@@std@@@std@@AEAAXQEAUvertex_index_t@tinyobj@@_K1@Z
	?_Change_array@?$vector@V?$GenericProperty@V?$vector@HV?$allocator@H@std@@@std@@@io@easy3d@@V?$allocator@V?$GenericProperty@V?$vector@HV?$allocator@H@std@@@std@@@io@easy3d@@@std@@@std@@AEAAXQEAV?$GenericProperty@V?$vector@HV?$allocator@H@std@@@std@@@io@easy3d@@_K1@Z
	?_Change_array@?$vector@V?$GenericProperty@V?$vector@MV?$allocator@M@std@@@std@@@io@easy3d@@V?$allocator@V?$GenericProperty@V?$vector@MV?$allocator@M@std@@@std@@@io@easy3d@@@std@@@std@@AEAAXQEAV?$GenericProperty@V?$vector@MV?$allocator@M@std@@@std@@@io@easy3d@@_K1@Z
	?_Change_array@?$vector@V?$Vec@$01M@easy3d@@V?$allocator@V?$Vec@$01M@easy3d@@@std@@@std@@AEAAXQEAV?$Vec@$01M@easy3d@@_K1@Z
	?_Change_array@?$vector@V?$Vec@$02M@easy3d@@V?$allocator@V?$Vec@$02M@easy3d@@@std@@@std@@AEAAXQEAV?$Vec@$02M@easy3d@@_K1@Z
	?_Change_array@?$vector@V?$Vec@$02N@easy3d@@V?$allocator@V?$Vec@$02N@easy3d@@@std@@@std@@AEAAXQEAV?$Vec@$02N@easy3d@@_K1@Z
	?_Change_array@?$vector@V?$basic_json@Vmap@std@@Vvector@2@V?$basic_string@DU?$char_traits@D@std@@V?$allocator@D@2@@2@_N_J_KNVallocator@2@Uadl_serializer@nlohmann@@V?$vector@EV?$allocator@E@std@@@2@@nlohmann@@V?$allocator@V?$basic_json@Vmap@std@@Vvector@2@V?$basic_string@DU?$char_traits@D@std@@V?$allocator@D@2@@2@_N_J_KNVallocator@2@Uadl_serializer@nlohmann@@V?$vector@EV?$allocator@E@std@@@2@@nlohmann@@@std@@@std@@AEAAXQEAV?$basic_json@Vmap@std@@Vvector@2@V?$basic_string@DU?$char_traits@D@std@@V?$allocator@D@2@@2@_N_J_KNVallocator@2@Uadl_serializer@nlohmann@@V?$vector@EV?$allocator@E@std@@@2@@nlohmann@@_K1@Z
	?_Change_array@?$vector@V?$basic_string@DU?$char_traits@D@std@@V?$allocator@D@2@@std@@V?$allocator@V?$basic_string@DU?$char_traits@D@std@@V?$allocator@D@2@@std@@@2@@std@@AEAAXQEAV?$basic_string@DU?$char_traits@D@std@@V?$allocator@D@2@@2@_K1@Z
	?_Change_array@?$vector@V?$vector@HV?$allocator@H@std@@@std@@V?$allocator@V?$vector@HV?$allocator@H@std@@@std@@@2@@std@@AEAAXQEAV?$vector@HV?$allocator@H@std@@@2@_K1@Z
	?_Change_array@?$vector@V?$vector@MV?$allocator@M@std@@@std@@V?$allocator@V?$vector@MV?$allocator@M@std@@@std@@@2@@std@@AEAAXQEAV?$vector@MV?$allocator@M@std@@@2@_K1@Z
	?_Clear_and_reserve_geometric@?$vector@HV?$allocator@H@std@@@std@@AEAAX_K@Z
	?_Clear_and_reserve_geometric@?$vector@UVertex@PolyMesh@easy3d@@V?$allocator@UVertex@PolyMesh@easy3d@@@std@@@std@@AEAAX_K@Z
	?_Endwrite@?$basic_filebuf@DU?$char_traits@D@std@@@std@@IEAA_NXZ
	?_Extract@?$_Tree_val@U?$_Tree_simple_types@U?$pair@$$CBV?$basic_string@DU?$char_traits@D@std@@V?$allocator@D@2@@std@@V?$basic_json@Vmap@std@@Vvector@2@V?$basic_string@DU?$char_traits@D@std@@V?$allocator@D@2@@2@_N_J_KNVallocator@2@Uadl_serializer@nlohmann@@V?$vector@EV?$allocator@E@std@@@2@@nlohmann@@@std@@@std@@@std@@QEAAPEAU?$_Tree_node@U?$pair@$$CBV?$basic_string@DU?$char_traits@D@std@@V?$allocator@D@2@@std@@V?$basic_json@Vmap@std@@Vvector@2@V?$basic_string@DU?$char_traits@D@std@@V?$allocator@D@2@@2@_N_J_KNVallocator@2@Uadl_serializer@nlohmann@@V?$vector@EV?$allocator@E@std@@@2@@nlohmann@@@std@@PEAX@2@V?$_Tree_unchecked_const_iterator@V?$_Tree_val@U?$_Tree_simple_types@U?$pair@$$CBV?$basic_string@DU?$char_traits@D@std@@V?$allocator@D@2@@std@@V?$basic_json@Vmap@std@@Vvector@2@V?$basic_string@DU?$char_traits@D@std@@V?$allocator@D@2@@2@_N_J_KNVallocator@2@Uadl_serializer@nlohmann@@V?$vector@EV?$allocator@E@std@@@2@@nlohmann@@@std@@@std@@@std@@U_Iterator_base0@2@@2@@Z
	?_Forced_rehash@?$_Hash@V?$_Umap_traits@HV?$unordered_map@HVVertexGroup@PointCloudIO_vg@io@easy3d@@U?$hash@H@std@@U?$equal_to@H@6@V?$allocator@U?$pair@$$CBHVVertexGroup@PointCloudIO_vg@io@easy3d@@@std@@@6@@std@@V?$_Uhash_compare@HU?$hash@H@std@@U?$equal_to@H@2@@2@V?$allocator@U?$pair@$$CBHV?$unordered_map@HVVertexGroup@PointCloudIO_vg@io@easy3d@@U?$hash@H@std@@U?$equal_to@H@6@V?$allocator@U?$pair@$$CBHVVertexGroup@PointCloudIO_vg@io@easy3d@@@std@@@6@@std@@@std@@@2@$0A@@std@@@std@@IEAAX_K@Z
	?_Forced_rehash@?$_Hash@V?$_Umap_traits@HVVertexGroup@PointCloudIO_vg@io@easy3d@@V?$_Uhash_compare@HU?$hash@H@std@@U?$equal_to@H@2@@std@@V?$allocator@U?$pair@$$CBHVVertexGroup@PointCloudIO_vg@io@easy3d@@@std@@@6@$0A@@std@@@std@@IEAAX_K@Z
	?_Forced_rehash@?$_Hash@V?$_Umap_traits@V?$basic_string@DU?$char_traits@D@std@@V?$allocator@D@2@@std@@PEAUElement@io@easy3d@@V?$_Uhash_compare@V?$basic_string@DU?$char_traits@D@std@@V?$allocator@D@2@@std@@U?$hash@V?$basic_string@DU?$char_traits@D@std@@V?$allocator@D@2@@std@@@2@U?$equal_to@V?$basic_string@DU?$char_traits@D@std@@V?$allocator@D@2@@std@@@2@@2@V?$allocator@U?$pair@$$CBV?$basic_string@DU?$char_traits@D@std@@V?$allocator@D@2@@std@@PEAUElement@io@easy3d@@@std@@@2@$0A@@std@@@std@@IEAAX_K@Z
	?_Forced_rehash@?$_Hash@V?$_Umap_traits@V?$basic_string@DU?$char_traits@D@std@@V?$allocator@D@2@@std@@_KV?$_Uhash_compare@V?$basic_string@DU?$char_traits@D@std@@V?$allocator@D@2@@std@@U?$hash@V?$basic_string@DU?$char_traits@D@std@@V?$allocator@D@2@@std@@@2@U?$equal_to@V?$basic_string@DU?$char_traits@D@std@@V?$allocator@D@2@@std@@@2@@2@V?$allocator@U?$pair@$$CBV?$basic_string@DU?$char_traits@D@std@@V?$allocator@D@2@@std@@_K@std@@@2@$0A@@std@@@std@@IEAAX_K@Z
	?_Getal@?$_Tree@V?$_Tmap_traits@V?$basic_string@DU?$char_traits@D@std@@V?$allocator@D@2@@std@@V12@U?$less@V?$basic_string@DU?$char_traits@D@std@@V?$allocator@D@2@@std@@@2@V?$allocator@U?$pair@$$CBV?$basic_string@DU?$char_traits@D@std@@V?$allocator@D@2@@std@@V12@@std@@@2@$0A@@std@@@std@@IEAAAEAV?$allocator@U?$_Tree_node@U?$pair@$$CBV?$basic_string@DU?$char_traits@D@std@@V?$allocator@D@2@@std@@V12@@std@@PEAX@std@@@2@XZ
	?_Getal@?$_Tree@V?$_Tmap_traits@V?$basic_string@DU?$char_traits@D@std@@V?$allocator@D@2@@std@@V?$basic_json@Vmap@std@@Vvector@2@V?$basic_string@DU?$char_traits@D@std@@V?$allocator@D@2@@2@_N_J_KNVallocator@2@Uadl_serializer@nlohmann@@V?$vector@EV?$allocator@E@std@@@2@@nlohmann@@U?$less@V?$basic_string@DU?$char_traits@D@std@@V?$allocator@D@2@@std@@@2@V?$allocator@U?$pair@$$CBV?$basic_string@DU?$char_traits@D@std@@V?$allocator@D@2@@std@@V?$basic_json@Vmap@std@@Vvector@2@V?$basic_string@DU?$char_traits@D@std@@V?$allocator@D@2@@2@_N_J_KNVallocator@2@Uadl_serializer@nlohmann@@V?$vector@EV?$allocator@E@std@@@2@@nlohmann@@@std@@@2@$0A@@std@@@std@@IEAAAEAV?$allocator@U?$_Tree_node@U?$pair@$$CBV?$basic_string@DU?$char_traits@D@std@@V?$allocator@D@2@@std@@V?$basic_json@Vmap@std@@Vvector@2@V?$basic_string@DU?$char_traits@D@std@@V?$allocator@D@2@@2@_N_J_KNVallocator@2@Uadl_serializer@nlohmann@@V?$vector@EV?$allocator@E@std@@@2@@nlohmann@@@std@@PEAX@std@@@2@XZ
	?_Getal@?$_Tree@V?$_Tset_traits@UCell@PolyMesh@easy3d@@U?$less@UCell@PolyMesh@easy3d@@@std@@V?$allocator@UCell@PolyMesh@easy3d@@@5@$0A@@std@@@std@@IEAAAEAV?$allocator@U?$_Tree_node@UCell@PolyMesh@easy3d@@PEAX@std@@@2@XZ
	?_Getal@?$_Tree@V?$_Tset_traits@UEdge@PolyMesh@easy3d@@U?$less@UEdge@PolyMesh@easy3d@@@std@@V?$allocator@UEdge@PolyMesh@easy3d@@@5@$0A@@std@@@std@@IEAAAEAV?$allocator@U?$_Tree_node@UEdge@PolyMesh@easy3d@@PEAX@std@@@2@XZ
	?_Getal@?$_Tree@V?$_Tset_traits@UHalfFace@PolyMesh@easy3d@@U?$less@UHalfFace@PolyMesh@easy3d@@@std@@V?$allocator@UHalfFace@PolyMesh@easy3d@@@5@$0A@@std@@@std@@IEAAAEAV?$allocator@U?$_Tree_node@UHalfFace@PolyMesh@easy3d@@PEAX@std@@@2@XZ
	?_Getal@?$_Tree@V?$_Tset_traits@UVertex@PolyMesh@easy3d@@U?$less@UVertex@PolyMesh@easy3d@@@std@@V?$allocator@UVertex@PolyMesh@easy3d@@@5@$0A@@std@@@std@@IEAAAEAV?$allocator@U?$_Tree_node@UVertex@PolyMesh@easy3d@@PEAX@std@@@2@XZ
	?_Insert_node@?$_Tree_val@U?$_Tree_simple_types@U?$pair@$$CBV?$Vec@$02M@easy3d@@UVertex@SurfaceMesh@2@@std@@@std@@@std@@QEAAPEAU?$_Tree_node@U?$pair@$$CBV?$Vec@$02M@easy3d@@UVertex@SurfaceMesh@2@@std@@PEAX@2@U?$_Tree_id@PEAU?$_Tree_node@U?$pair@$$CBV?$Vec@$02M@easy3d@@UVertex@SurfaceMesh@2@@std@@PEAX@std@@@2@QEAU32@@Z
	?_Insert_node@?$_Tree_val@U?$_Tree_simple_types@U?$pair@$$CBV?$basic_string@DU?$char_traits@D@std@@V?$allocator@D@2@@std@@H@std@@@std@@@std@@QEAAPEAU?$_Tree_node@U?$pair@$$CBV?$basic_string@DU?$char_traits@D@std@@V?$allocator@D@2@@std@@H@std@@PEAX@2@U?$_Tree_id@PEAU?$_Tree_node@U?$pair@$$CBV?$basic_string@DU?$char_traits@D@std@@V?$allocator@D@2@@std@@H@std@@PEAX@std@@@2@QEAU32@@Z
	?_Insert_node@?$_Tree_val@U?$_Tree_simple_types@U?$pair@$$CBV?$basic_string@DU?$char_traits@D@std@@V?$allocator@D@2@@std@@V12@@std@@@std@@@std@@QEAAPEAU?$_Tree_node@U?$pair@$$CBV?$basic_string@DU?$char_traits@D@std@@V?$allocator@D@2@@std@@V12@@std@@PEAX@2@U?$_Tree_id@PEAU?$_Tree_node@U?$pair@$$CBV?$basic_string@DU?$char_traits@D@std@@V?$allocator@D@2@@std@@V12@@std@@PEAX@std@@@2@QEAU32@@Z
	?_Insert_node@?$_Tree_val@U?$_Tree_simple_types@U?$pair@$$CBV?$basic_string@DU?$char_traits@D@std@@V?$allocator@D@2@@std@@V?$basic_json@Vmap@std@@Vvector@2@V?$basic_string@DU?$char_traits@D@std@@V?$allocator@D@2@@2@_N_J_KNVallocator@2@Uadl_serializer@nlohmann@@V?$vector@EV?$allocator@E@std@@@2@@nlohmann@@@std@@@std@@@std@@QEAAPEAU?$_Tree_node@U?$pair@$$CBV?$basic_string@DU?$char_traits@D@std@@V?$allocator@D@2@@std@@V?$basic_json@Vmap@std@@Vvector@2@V?$basic_string@DU?$char_traits@D@std@@V?$allocator@D@2@@2@_N_J_KNVallocator@2@Uadl_serializer@nlohmann@@V?$vector@EV?$allocator@E@std@@@2@@nlohmann@@@std@@PEAX@2@U?$_Tree_id@PEAU?$_Tree_node@U?$pair@$$CBV?$basic_string@DU?$char_traits@D@std@@V?$allocator@D@2@@std@@V?$basic_json@Vmap@std@@Vvector@2@V?$basic_string@DU?$char_traits@D@std@@V?$allocator@D@2@@2@_N_J_KNVallocator@2@Uadl_serializer@nlohmann@@V?$vector@EV?$allocator@E@std@@@2@@nlohmann@@@std@@PEAX@std@@@2@QEAU32@@Z
	?_Insert_node@?$_Tree_val@U?$_Tree_simple_types@V?$basic_string@DU?$char_traits@D@std@@V?$allocator@D@2@@std@@@std@@@std@@QEAAPEAU?$_Tree_node@V?$basic_string@DU?$char_traits@D@std@@V?$allocator@D@2@@std@@PEAX@2@U?$_Tree_id@PEAU?$_Tree_node@V?$basic_string@DU?$char_traits@D@std@@V?$allocator@D@2@@std@@PEAX@std@@@2@QEAU32@@Z
	?_Insert_x@?$vector@_NV?$allocator@_N@std@@@std@@QEAA_KV?$_Vb_const_iterator@U?$_Wrap_alloc@V?$allocator@I@std@@@std@@@2@_K@Z
	?_Lock@?$basic_filebuf@DU?$char_traits@D@std@@@std@@UEAAXXZ
	?_Lrotate@?$_Tree_val@U?$_Tree_simple_types@U?$pair@$$CBV?$basic_string@DU?$char_traits@D@std@@V?$allocator@D@2@@std@@V?$basic_json@Vmap@std@@Vvector@2@V?$basic_string@DU?$char_traits@D@std@@V?$allocator@D@2@@2@_N_J_KNVallocator@2@Uadl_serializer@nlohmann@@V?$vector@EV?$allocator@E@std@@@2@@nlohmann@@@std@@@std@@@std@@QEAAXPEAU?$_Tree_node@U?$pair@$$CBV?$basic_string@DU?$char_traits@D@std@@V?$allocator@D@2@@std@@V?$basic_json@Vmap@std@@Vvector@2@V?$basic_string@DU?$char_traits@D@std@@V?$allocator@D@2@@2@_N_J_KNVallocator@2@Uadl_serializer@nlohmann@@V?$vector@EV?$allocator@E@std@@@2@@nlohmann@@@std@@PEAX@2@@Z
	?_Maklocwcs@std@@YAPEA_WPEB_W@Z
	?_Reallocate_exactly@?$vector@HV?$allocator@H@std@@@std@@AEAAX_K@Z
	?_Reallocate_exactly@?$vector@MV?$allocator@M@std@@@std@@AEAAX_K@Z
	?_Reallocate_exactly@?$vector@UCellConnectivity@PolyMesh@easy3d@@V?$allocator@UCellConnectivity@PolyMesh@easy3d@@@std@@@std@@AEAAX_K@Z
	?_Reallocate_exactly@?$vector@UEdgeConnectivity@PolyMesh@easy3d@@V?$allocator@UEdgeConnectivity@PolyMesh@easy3d@@@std@@@std@@AEAAX_K@Z
	?_Reallocate_exactly@?$vector@UElement@io@easy3d@@V?$allocator@UElement@io@easy3d@@@std@@@std@@AEAAX_K@Z
	?_Reallocate_exactly@?$vector@UFaceConnectivity@SurfaceMesh@easy3d@@V?$allocator@UFaceConnectivity@SurfaceMesh@easy3d@@@std@@@std@@AEAAX_K@Z
	?_Reallocate_exactly@?$vector@UHalfFaceConnectivity@PolyMesh@easy3d@@V?$allocator@UHalfFaceConnectivity@PolyMesh@easy3d@@@std@@@std@@AEAAX_K@Z
	?_Reallocate_exactly@?$vector@UHalfedgeConnectivity@SurfaceMesh@easy3d@@V?$allocator@UHalfedgeConnectivity@SurfaceMesh@easy3d@@@std@@@std@@AEAAX_K@Z
	?_Reallocate_exactly@?$vector@UVertexConnectivity@PolyMesh@easy3d@@V?$allocator@UVertexConnectivity@PolyMesh@easy3d@@@std@@@std@@AEAAX_K@Z
	?_Reallocate_exactly@?$vector@UVertexConnectivity@SurfaceMesh@easy3d@@V?$allocator@UVertexConnectivity@SurfaceMesh@easy3d@@@std@@@std@@AEAAX_K@Z
	?_Reallocate_exactly@?$vector@Uvertex_index_t@tinyobj@@V?$allocator@Uvertex_index_t@tinyobj@@@std@@@std@@AEAAX_K@Z
	?_Reallocate_exactly@?$vector@V?$Vec@$01M@easy3d@@V?$allocator@V?$Vec@$01M@easy3d@@@std@@@std@@AEAAX_K@Z
	?_Reallocate_exactly@?$vector@V?$Vec@$02M@easy3d@@V?$allocator@V?$Vec@$02M@easy3d@@@std@@@std@@AEAAX_K@Z
	?_Reallocate_exactly@?$vector@V?$Vec@$02N@easy3d@@V?$allocator@V?$Vec@$02N@easy3d@@@std@@@std@@AEAAX_K@Z
	?_Reallocate_exactly@?$vector@V?$basic_json@Vmap@std@@Vvector@2@V?$basic_string@DU?$char_traits@D@std@@V?$allocator@D@2@@2@_N_J_KNVallocator@2@Uadl_serializer@nlohmann@@V?$vector@EV?$allocator@E@std@@@2@@nlohmann@@V?$allocator@V?$basic_json@Vmap@std@@Vvector@2@V?$basic_string@DU?$char_traits@D@std@@V?$allocator@D@2@@2@_N_J_KNVallocator@2@Uadl_serializer@nlohmann@@V?$vector@EV?$allocator@E@std@@@2@@nlohmann@@@std@@@std@@AEAAX_K@Z
	?_Reallocate_exactly@?$vector@V?$basic_string@DU?$char_traits@D@std@@V?$allocator@D@2@@std@@V?$allocator@V?$basic_string@DU?$char_traits@D@std@@V?$allocator@D@2@@std@@@2@@std@@AEAAX_K@Z
	?_Reallocate_exactly@?$vector@V?$vector@HV?$allocator@H@std@@@std@@V?$allocator@V?$vector@HV?$allocator@H@std@@@std@@@2@@std@@AEAAX_K@Z
	?_Reallocate_exactly@?$vector@V?$vector@MV?$allocator@M@std@@@std@@V?$allocator@V?$vector@MV?$allocator@M@std@@@std@@@2@@std@@AEAAX_K@Z
	?_Reset_back@?$basic_filebuf@DU?$char_traits@D@std@@@std@@AEAAXXZ
	?_Rrotate@?$_Tree_val@U?$_Tree_simple_types@U?$pair@$$CBV?$basic_string@DU?$char_traits@D@std@@V?$allocator@D@2@@std@@V?$basic_json@Vmap@std@@Vvector@2@V?$basic_string@DU?$char_traits@D@std@@V?$allocator@D@2@@2@_N_J_KNVallocator@2@Uadl_serializer@nlohmann@@V?$vector@EV?$allocator@E@std@@@2@@nlohmann@@@std@@@std@@@std@@QEAAXPEAU?$_Tree_node@U?$pair@$$CBV?$basic_string@DU?$char_traits@D@std@@V?$allocator@D@2@@std@@V?$basic_json@Vmap@std@@Vvector@2@V?$basic_string@DU?$char_traits@D@std@@V?$allocator@D@2@@2@_N_J_KNVallocator@2@Uadl_serializer@nlohmann@@V?$vector@EV?$allocator@E@std@@@2@@nlohmann@@@std@@PEAX@2@@Z
	?_Throw_bad_array_new_length@std@@YAXXZ
	?_Throw_bad_cast@std@@YAXXZ
	?_Throw_tree_length_error@std@@YAXXZ
	?_Tidy@?$vector@HV?$allocator@H@std@@@std@@AEAAXXZ
	?_Tidy@?$vector@UCellConnectivity@PolyMesh@easy3d@@V?$allocator@UCellConnectivity@PolyMesh@easy3d@@@std@@@std@@AEAAXXZ
	?_Tidy@?$vector@UEdgeConnectivity@PolyMesh@easy3d@@V?$allocator@UEdgeConnectivity@PolyMesh@easy3d@@@std@@@std@@AEAAXXZ
	?_Tidy@?$vector@UElement@io@easy3d@@V?$allocator@UElement@io@easy3d@@@std@@@std@@AEAAXXZ
	?_Tidy@?$vector@UHalfFaceConnectivity@PolyMesh@easy3d@@V?$allocator@UHalfFaceConnectivity@PolyMesh@easy3d@@@std@@@std@@AEAAXXZ
	?_Tidy@?$vector@UVertexConnectivity@PolyMesh@easy3d@@V?$allocator@UVertexConnectivity@PolyMesh@easy3d@@@std@@@std@@AEAAXXZ
	?_Tidy@?$vector@Uindex_t@tinyobj@@V?$allocator@Uindex_t@tinyobj@@@std@@@std@@AEAAXXZ
	?_Tidy@?$vector@Utag_t@tinyobj@@V?$allocator@Utag_t@tinyobj@@@std@@@std@@AEAAXXZ
	?_Tidy@?$vector@Uvertex_index_t@tinyobj@@V?$allocator@Uvertex_index_t@tinyobj@@@std@@@std@@AEAAXXZ
	?_Tidy@?$vector@V?$GenericProperty@H@io@easy3d@@V?$allocator@V?$GenericProperty@H@io@easy3d@@@std@@@std@@AEAAXXZ
	?_Tidy@?$vector@V?$GenericProperty@M@io@easy3d@@V?$allocator@V?$GenericProperty@M@io@easy3d@@@std@@@std@@AEAAXXZ
	?_Tidy@?$vector@V?$GenericProperty@V?$Vec@$01M@easy3d@@@io@easy3d@@V?$allocator@V?$GenericProperty@V?$Vec@$01M@easy3d@@@io@easy3d@@@std@@@std@@AEAAXXZ
	?_Tidy@?$vector@V?$GenericProperty@V?$Vec@$02M@easy3d@@@io@easy3d@@V?$allocator@V?$GenericProperty@V?$Vec@$02M@easy3d@@@io@easy3d@@@std@@@std@@AEAAXXZ
	?_Tidy@?$vector@V?$GenericProperty@V?$vector@HV?$allocator@H@std@@@std@@@io@easy3d@@V?$allocator@V?$GenericProperty@V?$vector@HV?$allocator@H@std@@@std@@@io@easy3d@@@std@@@std@@AEAAXXZ
	?_Tidy@?$vector@V?$GenericProperty@V?$vector@MV?$allocator@M@std@@@std@@@io@easy3d@@V?$allocator@V?$GenericProperty@V?$vector@MV?$allocator@M@std@@@std@@@io@easy3d@@@std@@@std@@AEAAXXZ
	?_Tidy@?$vector@V?$Vec@$02M@easy3d@@V?$allocator@V?$Vec@$02M@easy3d@@@std@@@std@@AEAAXXZ
	?_Tidy@?$vector@V?$Vec@$02N@easy3d@@V?$allocator@V?$Vec@$02N@easy3d@@@std@@@std@@AEAAXXZ
	?_Tidy@?$vector@V?$basic_json@Vmap@std@@Vvector@2@V?$basic_string@DU?$char_traits@D@std@@V?$allocator@D@2@@2@_N_J_KNVallocator@2@Uadl_serializer@nlohmann@@V?$vector@EV?$allocator@E@std@@@2@@nlohmann@@V?$allocator@V?$basic_json@Vmap@std@@Vvector@2@V?$basic_string@DU?$char_traits@D@std@@V?$allocator@D@2@@2@_N_J_KNVallocator@2@Uadl_serializer@nlohmann@@V?$vector@EV?$allocator@E@std@@@2@@nlohmann@@@std@@@std@@AEAAXXZ
	?_Tidy@?$vector@V?$basic_string@DU?$char_traits@D@std@@V?$allocator@D@2@@std@@V?$allocator@V?$basic_string@DU?$char_traits@D@std@@V?$allocator@D@2@@std@@@2@@std@@AEAAXXZ
	?_Tidy@?$vector@V?$vector@HV?$allocator@H@std@@@std@@V?$allocator@V?$vector@HV?$allocator@H@std@@@std@@@2@@std@@AEAAXXZ
	?_Tidy@?$vector@V?$vector@MV?$allocator@M@std@@@std@@V?$allocator@V?$vector@MV?$allocator@M@std@@@std@@@2@@std@@AEAAXXZ
	?_Tidy@?$vector@V?$vector@NV?$allocator@N@std@@@std@@V?$allocator@V?$vector@NV?$allocator@N@std@@@std@@@2@@std@@AEAAXXZ
	?_Tidy@?$vector@VVertexGroup@PointCloudIO_vg@io@easy3d@@V?$allocator@VVertexGroup@PointCloudIO_vg@io@easy3d@@@std@@@std@@AEAAXXZ
	?_Tidy_deallocate@?$basic_string@DU?$char_traits@D@std@@V?$allocator@D@2@@std@@AEAAXXZ
	?_Trim@?$vector@_NV?$allocator@_N@std@@@std@@QEAAX_K@Z
	?_Unlock@?$basic_filebuf@DU?$char_traits@D@std@@@std@@UEAAXXZ
	?_Xlen@?$vector@_NV?$allocator@_N@std@@@std@@QEBAXXZ
	?_Xlen_string@std@@YAXXZ
	?_Xlength@?$vector@DV?$allocator@D@std@@@std@@CAXXZ
	?_Xlength@?$vector@EV?$allocator@E@std@@@std@@CAXXZ
	?_Xlength@?$vector@HV?$allocator@H@std@@@std@@CAXXZ
	?_Xlength@?$vector@IV?$allocator@I@std@@@std@@CAXXZ
	?_Xlength@?$vector@MV?$allocator@M@std@@@std@@CAXXZ
	?_Xlength@?$vector@NV?$allocator@N@std@@@std@@CAXXZ
	?_Xlength@?$vector@PEAUListProperty@PlyReader@io@easy3d@@V?$allocator@PEAUListProperty@PlyReader@io@easy3d@@@std@@@std@@CAXXZ
	?_Xlength@?$vector@PEAUValueProperty@PlyReader@io@easy3d@@V?$allocator@PEAUValueProperty@PlyReader@io@easy3d@@@std@@@std@@CAXXZ
	?_Xlength@?$vector@PEAV?$basic_json@Vmap@std@@Vvector@2@V?$basic_string@DU?$char_traits@D@std@@V?$allocator@D@2@@2@_N_J_KNVallocator@2@Uadl_serializer@nlohmann@@V?$vector@EV?$allocator@E@std@@@2@@nlohmann@@V?$allocator@PEAV?$basic_json@Vmap@std@@Vvector@2@V?$basic_string@DU?$char_traits@D@std@@V?$allocator@D@2@@2@_N_J_KNVallocator@2@Uadl_serializer@nlohmann@@V?$vector@EV?$allocator@E@std@@@2@@nlohmann@@@std@@@std@@CAXXZ
	?_Xlength@?$vector@PEAVBasePropertyArray@easy3d@@V?$allocator@PEAVBasePropertyArray@easy3d@@@std@@@std@@CAXXZ
	?_Xlength@?$vector@PEBDV?$allocator@PEBD@std@@@std@@CAXXZ
	?_Xlength@?$vector@UCellConnectivity@PolyMesh@easy3d@@V?$allocator@UCellConnectivity@PolyMesh@easy3d@@@std@@@std@@CAXXZ
	?_Xlength@?$vector@UEdgeConnectivity@PolyMesh@easy3d@@V?$allocator@UEdgeConnectivity@PolyMesh@easy3d@@@std@@@std@@CAXXZ
	?_Xlength@?$vector@UElement@io@easy3d@@V?$allocator@UElement@io@easy3d@@@std@@@std@@CAXXZ
	?_Xlength@?$vector@UFace@SurfaceMesh@easy3d@@V?$allocator@UFace@SurfaceMesh@easy3d@@@std@@@std@@CAXXZ
	?_Xlength@?$vector@UFaceConnectivity@SurfaceMesh@easy3d@@V?$allocator@UFaceConnectivity@SurfaceMesh@easy3d@@@std@@@std@@CAXXZ
	?_Xlength@?$vector@UHalfFace@PolyMesh@easy3d@@V?$allocator@UHalfFace@PolyMesh@easy3d@@@std@@@std@@CAXXZ
	?_Xlength@?$vector@UHalfFaceConnectivity@PolyMesh@easy3d@@V?$allocator@UHalfFaceConnectivity@PolyMesh@easy3d@@@std@@@std@@CAXXZ
	?_Xlength@?$vector@UHalfedgeConnectivity@SurfaceMesh@easy3d@@V?$allocator@UHalfedgeConnectivity@SurfaceMesh@easy3d@@@std@@@std@@CAXXZ
	?_Xlength@?$vector@UVertex@PolyMesh@easy3d@@V?$allocator@UVertex@PolyMesh@easy3d@@@std@@@std@@CAXXZ
	?_Xlength@?$vector@UVertex@SurfaceMesh@easy3d@@V?$allocator@UVertex@SurfaceMesh@easy3d@@@std@@@std@@CAXXZ
	?_Xlength@?$vector@UVertexConnectivity@PolyMesh@easy3d@@V?$allocator@UVertexConnectivity@PolyMesh@easy3d@@@std@@@std@@CAXXZ
	?_Xlength@?$vector@UVertexConnectivity@SurfaceMesh@easy3d@@V?$allocator@UVertexConnectivity@SurfaceMesh@easy3d@@@std@@@std@@CAXXZ
	?_Xlength@?$vector@U__line_t@tinyobj@@V?$allocator@U__line_t@tinyobj@@@std@@@std@@CAXXZ
	?_Xlength@?$vector@U__points_t@tinyobj@@V?$allocator@U__points_t@tinyobj@@@std@@@std@@CAXXZ
	?_Xlength@?$vector@Uface_t@tinyobj@@V?$allocator@Uface_t@tinyobj@@@std@@@std@@CAXXZ
	?_Xlength@?$vector@Uindex_t@tinyobj@@V?$allocator@Uindex_t@tinyobj@@@std@@@std@@CAXXZ
	?_Xlength@?$vector@Ujoint_and_weight_t@tinyobj@@V?$allocator@Ujoint_and_weight_t@tinyobj@@@std@@@std@@CAXXZ
	?_Xlength@?$vector@Umaterial_t@tinyobj@@V?$allocator@Umaterial_t@tinyobj@@@std@@@std@@CAXXZ
	?_Xlength@?$vector@Ushape_t@tinyobj@@V?$allocator@Ushape_t@tinyobj@@@std@@@std@@CAXXZ
	?_Xlength@?$vector@Uskin_weight_t@tinyobj@@V?$allocator@Uskin_weight_t@tinyobj@@@std@@@std@@CAXXZ
	?_Xlength@?$vector@Utag_t@tinyobj@@V?$allocator@Utag_t@tinyobj@@@std@@@std@@CAXXZ
	?_Xlength@?$vector@Uvertex_index_t@tinyobj@@V?$allocator@Uvertex_index_t@tinyobj@@@std@@@std@@CAXXZ
	?_Xlength@?$vector@V?$GenericProperty@H@io@easy3d@@V?$allocator@V?$GenericProperty@H@io@easy3d@@@std@@@std@@CAXXZ
	?_Xlength@?$vector@V?$GenericProperty@M@io@easy3d@@V?$allocator@V?$GenericProperty@M@io@easy3d@@@std@@@std@@CAXXZ
	?_Xlength@?$vector@V?$GenericProperty@V?$Vec@$01M@easy3d@@@io@easy3d@@V?$allocator@V?$GenericProperty@V?$Vec@$01M@easy3d@@@io@easy3d@@@std@@@std@@CAXXZ
	?_Xlength@?$vector@V?$GenericProperty@V?$Vec@$02M@easy3d@@@io@easy3d@@V?$allocator@V?$GenericProperty@V?$Vec@$02M@easy3d@@@io@easy3d@@@std@@@std@@CAXXZ
	?_Xlength@?$vector@V?$GenericProperty@V?$vector@HV?$allocator@H@std@@@std@@@io@easy3d@@V?$allocator@V?$GenericProperty@V?$vector@HV?$allocator@H@std@@@std@@@io@easy3d@@@std@@@std@@CAXXZ
	?_Xlength@?$vector@V?$GenericProperty@V?$vector@MV?$allocator@M@std@@@std@@@io@easy3d@@V?$allocator@V?$GenericProperty@V?$vector@MV?$allocator@M@std@@@std@@@io@easy3d@@@std@@@std@@CAXXZ
	?_Xlength@?$vector@V?$Vec@$01M@easy3d@@V?$allocator@V?$Vec@$01M@easy3d@@@std@@@std@@CAXXZ
	?_Xlength@?$vector@V?$Vec@$02M@easy3d@@V?$allocator@V?$Vec@$02M@easy3d@@@std@@@std@@CAXXZ
	?_Xlength@?$vector@V?$Vec@$02N@easy3d@@V?$allocator@V?$Vec@$02N@easy3d@@@std@@@std@@CAXXZ
	?_Xlength@?$vector@V?$basic_json@Vmap@std@@Vvector@2@V?$basic_string@DU?$char_traits@D@std@@V?$allocator@D@2@@2@_N_J_KNVallocator@2@Uadl_serializer@nlohmann@@V?$vector@EV?$allocator@E@std@@@2@@nlohmann@@V?$allocator@V?$basic_json@Vmap@std@@Vvector@2@V?$basic_string@DU?$char_traits@D@std@@V?$allocator@D@2@@2@_N_J_KNVallocator@2@Uadl_serializer@nlohmann@@V?$vector@EV?$allocator@E@std@@@2@@nlohmann@@@std@@@std@@CAXXZ
	?_Xlength@?$vector@V?$basic_string@DU?$char_traits@D@std@@V?$allocator@D@2@@std@@V?$allocator@V?$basic_string@DU?$char_traits@D@std@@V?$allocator@D@2@@std@@@2@@std@@CAXXZ
	?_Xlength@?$vector@V?$vector@HV?$allocator@H@std@@@std@@V?$allocator@V?$vector@HV?$allocator@H@std@@@std@@@2@@std@@CAXXZ
	?_Xlength@?$vector@V?$vector@MV?$allocator@M@std@@@std@@V?$allocator@V?$vector@MV?$allocator@M@std@@@std@@@2@@std@@CAXXZ
	?_Xlength@?$vector@V?$vector@NV?$allocator@N@std@@@std@@V?$allocator@V?$vector@NV?$allocator@N@std@@@std@@@2@@std@@CAXXZ
	?_Xlength@?$vector@V?$vector@V?$Vec@$02N@easy3d@@V?$allocator@V?$Vec@$02N@easy3d@@@std@@@std@@V?$allocator@V?$vector@V?$Vec@$02N@easy3d@@V?$allocator@V?$Vec@$02N@easy3d@@@std@@@std@@@2@@std@@CAXXZ
	?_Xlength@?$vector@VVertexGroup@PointCloudIO_vg@io@easy3d@@V?$allocator@VVertexGroup@PointCloudIO_vg@io@easy3d@@@std@@@std@@CAXXZ
	?_Xran@?$_String_val@U?$_Simple_types@D@std@@@std@@SAXXZ
	?_Xrange@?$vector@PEBDV?$allocator@PEBD@std@@@std@@CAXXZ
	?_Xrange@?$vector@Umaterial_t@tinyobj@@V?$allocator@Umaterial_t@tinyobj@@@std@@@std@@CAXXZ
	?_Xrange@?$vector@V?$basic_json@Vmap@std@@Vvector@2@V?$basic_string@DU?$char_traits@D@std@@V?$allocator@D@2@@2@_N_J_KNVallocator@2@Uadl_serializer@nlohmann@@V?$vector@EV?$allocator@E@std@@@2@@nlohmann@@V?$allocator@V?$basic_json@Vmap@std@@Vvector@2@V?$basic_string@DU?$char_traits@D@std@@V?$allocator@D@2@@2@_N_J_KNVallocator@2@Uadl_serializer@nlohmann@@V?$vector@EV?$allocator@E@std@@@2@@nlohmann@@@std@@@std@@CAXXZ
	?add@?$lexer@V?$basic_json@Vmap@std@@Vvector@2@V?$basic_string@DU?$char_traits@D@std@@V?$allocator@D@2@@2@_N_J_KNVallocator@2@Uadl_serializer@nlohmann@@V?$vector@EV?$allocator@E@std@@@2@@nlohmann@@Vinput_stream_adapter@detail@2@@detail@nlohmann@@AEAAXH@Z
	?add_vertex@PolyMesh@easy3d@@QEAA?AUVertex@12@AEBV?$Vec@$02M@2@@Z
	?allocate@?$allocator@D@std@@QEAAPEAD_K@Z
	?allocate@?$allocator@H@std@@QEAAPEAH_K@Z
	?allocate@?$allocator@I@std@@QEAAPEAI_K@Z
	?allocate@?$allocator@M@std@@QEAAPEAM_K@Z
	?allocate@?$allocator@N@std@@QEAAPEAN_K@Z
	?allocate@?$allocator@PEAV?$basic_json@Vmap@std@@Vvector@2@V?$basic_string@DU?$char_traits@D@std@@V?$allocator@D@2@@2@_N_J_KNVallocator@2@Uadl_serializer@nlohmann@@V?$vector@EV?$allocator@E@std@@@2@@nlohmann@@@std@@QEAAPEAPEAV?$basic_json@Vmap@std@@Vvector@2@V?$basic_string@DU?$char_traits@D@std@@V?$allocator@D@2@@2@_N_J_KNVallocator@2@Uadl_serializer@nlohmann@@V?$vector@EV?$allocator@E@std@@@2@@nlohmann@@_K@Z
	?allocate@?$allocator@PEAVBasePropertyArray@easy3d@@@std@@QEAAPEAPEAVBasePropertyArray@easy3d@@_K@Z
	?allocate@?$allocator@UCellConnectivity@PolyMesh@easy3d@@@std@@QEAAPEAUCellConnectivity@PolyMesh@easy3d@@_K@Z
	?allocate@?$allocator@UEdgeConnectivity@PolyMesh@easy3d@@@std@@QEAAPEAUEdgeConnectivity@PolyMesh@easy3d@@_K@Z
	?allocate@?$allocator@UElement@io@easy3d@@@std@@QEAAPEAUElement@io@easy3d@@_K@Z
	?allocate@?$allocator@UFaceConnectivity@SurfaceMesh@easy3d@@@std@@QEAAPEAUFaceConnectivity@SurfaceMesh@easy3d@@_K@Z
	?allocate@?$allocator@UHalfFaceConnectivity@PolyMesh@easy3d@@@std@@QEAAPEAUHalfFaceConnectivity@PolyMesh@easy3d@@_K@Z
	?allocate@?$allocator@UHalfedgeConnectivity@SurfaceMesh@easy3d@@@std@@QEAAPEAUHalfedgeConnectivity@SurfaceMesh@easy3d@@_K@Z
	?allocate@?$allocator@UVertex@PolyMesh@easy3d@@@std@@QEAAPEAUVertex@PolyMesh@easy3d@@_K@Z
	?allocate@?$allocator@UVertex@SurfaceMesh@easy3d@@@std@@QEAAPEAUVertex@SurfaceMesh@easy3d@@_K@Z
	?allocate@?$allocator@UVertexConnectivity@PolyMesh@easy3d@@@std@@QEAAPEAUVertexConnectivity@PolyMesh@easy3d@@_K@Z
	?allocate@?$allocator@UVertexConnectivity@SurfaceMesh@easy3d@@@std@@QEAAPEAUVertexConnectivity@SurfaceMesh@easy3d@@_K@Z
	?allocate@?$allocator@Uindex_t@tinyobj@@@std@@QEAAPEAUindex_t@tinyobj@@_K@Z
	?allocate@?$allocator@Ujoint_and_weight_t@tinyobj@@@std@@QEAAPEAUjoint_and_weight_t@tinyobj@@_K@Z
	?allocate@?$allocator@Utag_t@tinyobj@@@std@@QEAAPEAUtag_t@tinyobj@@_K@Z
	?allocate@?$allocator@Uvertex_index_t@tinyobj@@@std@@QEAAPEAUvertex_index_t@tinyobj@@_K@Z
	?allocate@?$allocator@V?$GenericProperty@H@io@easy3d@@@std@@QEAAPEAV?$GenericProperty@H@io@easy3d@@_K@Z
	?allocate@?$allocator@V?$GenericProperty@M@io@easy3d@@@std@@QEAAPEAV?$GenericProperty@M@io@easy3d@@_K@Z
	?allocate@?$allocator@V?$GenericProperty@V?$Vec@$01M@easy3d@@@io@easy3d@@@std@@QEAAPEAV?$GenericProperty@V?$Vec@$01M@easy3d@@@io@easy3d@@_K@Z
	?allocate@?$allocator@V?$GenericProperty@V?$Vec@$02M@easy3d@@@io@easy3d@@@std@@QEAAPEAV?$GenericProperty@V?$Vec@$02M@easy3d@@@io@easy3d@@_K@Z
	?allocate@?$allocator@V?$GenericProperty@V?$vector@HV?$allocator@H@std@@@std@@@io@easy3d@@@std@@QEAAPEAV?$GenericProperty@V?$vector@HV?$allocator@H@std@@@std@@@io@easy3d@@_K@Z
	?allocate@?$allocator@V?$GenericProperty@V?$vector@MV?$allocator@M@std@@@std@@@io@easy3d@@@std@@QEAAPEAV?$GenericProperty@V?$vector@MV?$allocator@M@std@@@std@@@io@easy3d@@_K@Z
	?allocate@?$allocator@V?$Vec@$01M@easy3d@@@std@@QEAAPEAV?$Vec@$01M@easy3d@@_K@Z
	?allocate@?$allocator@V?$Vec@$02M@easy3d@@@std@@QEAAPEAV?$Vec@$02M@easy3d@@_K@Z
	?allocate@?$allocator@V?$Vec@$02N@easy3d@@@std@@QEAAPEAV?$Vec@$02N@easy3d@@_K@Z
	?allocate@?$allocator@V?$basic_json@Vmap@std@@Vvector@2@V?$basic_string@DU?$char_traits@D@std@@V?$allocator@D@2@@2@_N_J_KNVallocator@2@Uadl_serializer@nlohmann@@V?$vector@EV?$allocator@E@std@@@2@@nlohmann@@@std@@QEAAPEAV?$basic_json@Vmap@std@@Vvector@2@V?$basic_string@DU?$char_traits@D@std@@V?$allocator@D@2@@2@_N_J_KNVallocator@2@Uadl_serializer@nlohmann@@V?$vector@EV?$allocator@E@std@@@2@@nlohmann@@_K@Z
	?allocate@?$allocator@V?$basic_string@DU?$char_traits@D@std@@V?$allocator@D@2@@std@@@std@@QEAAPEAV?$basic_string@DU?$char_traits@D@std@@V?$allocator@D@2@@2@_K@Z
	?allocate@?$allocator@V?$vector@HV?$allocator@H@std@@@std@@@std@@QEAAPEAV?$vector@HV?$allocator@H@std@@@2@_K@Z
	?allocate@?$allocator@V?$vector@MV?$allocator@M@std@@@std@@@std@@QEAAPEAV?$vector@MV?$allocator@M@std@@@2@_K@Z
	?allocate@?$allocator@V?$vector@NV?$allocator@N@std@@@std@@@std@@QEAAPEAV?$vector@NV?$allocator@N@std@@@2@_K@Z
	?allocate@?$allocator@VVertexGroup@PointCloudIO_vg@io@easy3d@@@std@@QEAAPEAVVertexGroup@PointCloudIO_vg@io@easy3d@@_K@Z
	?append@?$basic_string@DU?$char_traits@D@std@@V?$allocator@D@2@@std@@QEAAAEAV12@QEBD_K@Z
	?assign@?$basic_string@DU?$char_traits@D@std@@V?$allocator@D@2@@std@@QEAAAEAV12@QEBD_K@Z
	?assign_group_parameters@PointCloudIO_vg@io@easy3d@@CAXAEAVVertexGroup@123@AEAV?$vector@MV?$allocator@M@std@@@std@@@Z
	?at@?$basic_json@Vmap@std@@Vvector@2@V?$basic_string@DU?$char_traits@D@std@@V?$allocator@D@2@@2@_N_J_KNVallocator@2@Uadl_serializer@nlohmann@@V?$vector@EV?$allocator@E@std@@@2@@nlohmann@@QEAAAEAV12@_K@Z
	?back@?$vector@PEAV?$basic_json@Vmap@std@@Vvector@2@V?$basic_string@DU?$char_traits@D@std@@V?$allocator@D@2@@2@_N_J_KNVallocator@2@Uadl_serializer@nlohmann@@V?$vector@EV?$allocator@E@std@@@2@@nlohmann@@V?$allocator@PEAV?$basic_json@Vmap@std@@Vvector@2@V?$basic_string@DU?$char_traits@D@std@@V?$allocator@D@2@@2@_N_J_KNVallocator@2@Uadl_serializer@nlohmann@@V?$vector@EV?$allocator@E@std@@@2@@nlohmann@@@std@@@std@@QEAAAEAPEAV?$basic_json@Vmap@std@@Vvector@2@V?$basic_string@DU?$char_traits@D@std@@V?$allocator@D@2@@2@_N_J_KNVallocator@2@Uadl_serializer@nlohmann@@V?$vector@EV?$allocator@E@std@@@2@@nlohmann@@XZ
	?back@?$vector@_NV?$allocator@_N@std@@@std@@QEAA?AV?$_Vb_reference@U?$_Wrap_alloc@V?$allocator@I@std@@@std@@@2@XZ
	?c_str@?$basic_string@DU?$char_traits@D@std@@V?$allocator@D@2@@std@@QEBAPEBDXZ
	?cend@?$basic_json@Vmap@std@@Vvector@2@V?$basic_string@DU?$char_traits@D@std@@V?$allocator@D@2@@2@_N_J_KNVallocator@2@Uadl_serializer@nlohmann@@V?$vector@EV?$allocator@E@std@@@2@@nlohmann@@QEBA?AV?$iter_impl@$$CBV?$basic_json@Vmap@std@@Vvector@2@V?$basic_string@DU?$char_traits@D@std@@V?$allocator@D@2@@2@_N_J_KNVallocator@2@Uadl_serializer@nlohmann@@V?$vector@EV?$allocator@E@std@@@2@@nlohmann@@@detail@2@XZ
	?clean@LASheader@@QEAAXXZ
	?clean@LASpoint@@QEAAXXZ
	?clear@?$vector@UElement@io@easy3d@@V?$allocator@UElement@io@easy3d@@@std@@@std@@QEAAXXZ
	?clear@PrimGroup@tinyobj@@QEAAXXZ
	?clone@?$PropertyArray@H@easy3d@@UEBAPEAVBasePropertyArray@2@XZ
	?clone@?$PropertyArray@M@easy3d@@UEBAPEAVBasePropertyArray@2@XZ
	?clone@?$PropertyArray@UCellConnectivity@PolyMesh@easy3d@@@easy3d@@UEBAPEAVBasePropertyArray@2@XZ
	?clone@?$PropertyArray@UEdgeConnectivity@PolyMesh@easy3d@@@easy3d@@UEBAPEAVBasePropertyArray@2@XZ
	?clone@?$PropertyArray@UElement@io@easy3d@@@easy3d@@UEBAPEAVBasePropertyArray@2@XZ
	?clone@?$PropertyArray@UFaceConnectivity@SurfaceMesh@easy3d@@@easy3d@@UEBAPEAVBasePropertyArray@2@XZ
	?clone@?$PropertyArray@UHalfFaceConnectivity@PolyMesh@easy3d@@@easy3d@@UEBAPEAVBasePropertyArray@2@XZ
	?clone@?$PropertyArray@UHalfedgeConnectivity@SurfaceMesh@easy3d@@@easy3d@@UEBAPEAVBasePropertyArray@2@XZ
	?clone@?$PropertyArray@UVertexConnectivity@PolyMesh@easy3d@@@easy3d@@UEBAPEAVBasePropertyArray@2@XZ
	?clone@?$PropertyArray@UVertexConnectivity@SurfaceMesh@easy3d@@@easy3d@@UEBAPEAVBasePropertyArray@2@XZ
	?clone@?$PropertyArray@V?$Vec@$01M@easy3d@@@easy3d@@UEBAPEAVBasePropertyArray@2@XZ
	?clone@?$PropertyArray@V?$Vec@$02M@easy3d@@@easy3d@@UEBAPEAVBasePropertyArray@2@XZ
	?clone@?$PropertyArray@V?$Vec@$02N@easy3d@@@easy3d@@UEBAPEAVBasePropertyArray@2@XZ
	?clone@?$PropertyArray@V?$vector@HV?$allocator@H@std@@@std@@@easy3d@@UEBAPEAVBasePropertyArray@2@XZ
	?clone@?$PropertyArray@V?$vector@MV?$allocator@M@std@@@std@@@easy3d@@UEBAPEAVBasePropertyArray@2@XZ
	?close@?$basic_filebuf@DU?$char_traits@D@std@@@std@@QEAAPEAV12@XZ
	?collect_elements@PlyReader@io@easy3d@@AEBAXAEAV?$vector@UElement@io@easy3d@@V?$allocator@UElement@io@easy3d@@@std@@@std@@@Z
	?collect_groups@PointCloudIO_vg@io@easy3d@@CAXPEBVPointCloud@3@AEAV?$vector@VVertexGroup@PointCloudIO_vg@io@easy3d@@V?$allocator@VVertexGroup@PointCloudIO_vg@io@easy3d@@@std@@@std@@@Z
	?compute_XYZ@LASpoint@@QEAAHXZ
	?copy@?$PropertyArray@H@easy3d@@UEAAX_K0@Z
	?copy@?$PropertyArray@M@easy3d@@UEAAX_K0@Z
	?copy@?$PropertyArray@UCellConnectivity@PolyMesh@easy3d@@@easy3d@@UEAAX_K0@Z
	?copy@?$PropertyArray@UEdgeConnectivity@PolyMesh@easy3d@@@easy3d@@UEAAX_K0@Z
	?copy@?$PropertyArray@UElement@io@easy3d@@@easy3d@@UEAAX_K0@Z
	?copy@?$PropertyArray@UFaceConnectivity@SurfaceMesh@easy3d@@@easy3d@@UEAAX_K0@Z
	?copy@?$PropertyArray@UHalfFaceConnectivity@PolyMesh@easy3d@@@easy3d@@UEAAX_K0@Z
	?copy@?$PropertyArray@UHalfedgeConnectivity@SurfaceMesh@easy3d@@@easy3d@@UEAAX_K0@Z
	?copy@?$PropertyArray@UVertexConnectivity@PolyMesh@easy3d@@@easy3d@@UEAAX_K0@Z
	?copy@?$PropertyArray@UVertexConnectivity@SurfaceMesh@easy3d@@@easy3d@@UEAAX_K0@Z
	?copy@?$PropertyArray@V?$Vec@$01M@easy3d@@@easy3d@@UEAAX_K0@Z
	?copy@?$PropertyArray@V?$Vec@$02M@easy3d@@@easy3d@@UEAAX_K0@Z
	?copy@?$PropertyArray@V?$Vec@$02N@easy3d@@@easy3d@@UEAAX_K0@Z
	?copy@?$PropertyArray@V?$vector@HV?$allocator@H@std@@@std@@@easy3d@@UEAAX_K0@Z
	?copy@?$PropertyArray@V?$vector@MV?$allocator@M@std@@@std@@@easy3d@@UEAAX_K0@Z
	?deallocate@?$allocator@D@std@@QEAAXQEAD_K@Z
	?deallocate@?$allocator@H@std@@QEAAXQEAH_K@Z
	?deallocate@?$allocator@I@std@@QEAAXQEAI_K@Z
	?deallocate@?$allocator@M@std@@QEAAXQEAM_K@Z
	?deallocate@?$allocator@N@std@@QEAAXQEAN_K@Z
	?deallocate@?$allocator@PEAUListProperty@PlyReader@io@easy3d@@@std@@QEAAXQEAPEAUListProperty@PlyReader@io@easy3d@@_K@Z
	?deallocate@?$allocator@PEAUValueProperty@PlyReader@io@easy3d@@@std@@QEAAXQEAPEAUValueProperty@PlyReader@io@easy3d@@_K@Z
	?deallocate@?$allocator@PEAV?$basic_json@Vmap@std@@Vvector@2@V?$basic_string@DU?$char_traits@D@std@@V?$allocator@D@2@@2@_N_J_KNVallocator@2@Uadl_serializer@nlohmann@@V?$vector@EV?$allocator@E@std@@@2@@nlohmann@@@std@@QEAAXQEAPEAV?$basic_json@Vmap@std@@Vvector@2@V?$basic_string@DU?$char_traits@D@std@@V?$allocator@D@2@@2@_N_J_KNVallocator@2@Uadl_serializer@nlohmann@@V?$vector@EV?$allocator@E@std@@@2@@nlohmann@@_K@Z
	?deallocate@?$allocator@PEAVBasePropertyArray@easy3d@@@std@@QEAAXQEAPEAVBasePropertyArray@easy3d@@_K@Z
	?deallocate@?$allocator@PEBD@std@@QEAAXQEAPEBD_K@Z
	?deallocate@?$allocator@UCellConnectivity@PolyMesh@easy3d@@@std@@QEAAXQEAUCellConnectivity@PolyMesh@easy3d@@_K@Z
	?deallocate@?$allocator@UEdgeConnectivity@PolyMesh@easy3d@@@std@@QEAAXQEAUEdgeConnectivity@PolyMesh@easy3d@@_K@Z
	?deallocate@?$allocator@UElement@io@easy3d@@@std@@QEAAXQEAUElement@io@easy3d@@_K@Z
	?deallocate@?$allocator@UFace@SurfaceMesh@easy3d@@@std@@QEAAXQEAUFace@SurfaceMesh@easy3d@@_K@Z
	?deallocate@?$allocator@UFaceConnectivity@SurfaceMesh@easy3d@@@std@@QEAAXQEAUFaceConnectivity@SurfaceMesh@easy3d@@_K@Z
	?deallocate@?$allocator@UHalfFaceConnectivity@PolyMesh@easy3d@@@std@@QEAAXQEAUHalfFaceConnectivity@PolyMesh@easy3d@@_K@Z
	?deallocate@?$allocator@UHalfedgeConnectivity@SurfaceMesh@easy3d@@@std@@QEAAXQEAUHalfedgeConnectivity@SurfaceMesh@easy3d@@_K@Z
	?deallocate@?$allocator@UVertex@PolyMesh@easy3d@@@std@@QEAAXQEAUVertex@PolyMesh@easy3d@@_K@Z
	?deallocate@?$allocator@UVertex@SurfaceMesh@easy3d@@@std@@QEAAXQEAUVertex@SurfaceMesh@easy3d@@_K@Z
	?deallocate@?$allocator@UVertexConnectivity@PolyMesh@easy3d@@@std@@QEAAXQEAUVertexConnectivity@PolyMesh@easy3d@@_K@Z
	?deallocate@?$allocator@UVertexConnectivity@SurfaceMesh@easy3d@@@std@@QEAAXQEAUVertexConnectivity@SurfaceMesh@easy3d@@_K@Z
	?deallocate@?$allocator@U__line_t@tinyobj@@@std@@QEAAXQEAU__line_t@tinyobj@@_K@Z
	?deallocate@?$allocator@U__points_t@tinyobj@@@std@@QEAAXQEAU__points_t@tinyobj@@_K@Z
	?deallocate@?$allocator@Uface_t@tinyobj@@@std@@QEAAXQEAUface_t@tinyobj@@_K@Z
	?deallocate@?$allocator@Uindex_t@tinyobj@@@std@@QEAAXQEAUindex_t@tinyobj@@_K@Z
	?deallocate@?$allocator@Ujoint_and_weight_t@tinyobj@@@std@@QEAAXQEAUjoint_and_weight_t@tinyobj@@_K@Z
	?deallocate@?$allocator@Umaterial_t@tinyobj@@@std@@QEAAXQEAUmaterial_t@tinyobj@@_K@Z
	?deallocate@?$allocator@Ushape_t@tinyobj@@@std@@QEAAXQEAUshape_t@tinyobj@@_K@Z
	?deallocate@?$allocator@Uskin_weight_t@tinyobj@@@std@@QEAAXQEAUskin_weight_t@tinyobj@@_K@Z
	?deallocate@?$allocator@Utag_t@tinyobj@@@std@@QEAAXQEAUtag_t@tinyobj@@_K@Z
	?deallocate@?$allocator@Uvertex_index_t@tinyobj@@@std@@QEAAXQEAUvertex_index_t@tinyobj@@_K@Z
	?deallocate@?$allocator@V?$GenericProperty@H@io@easy3d@@@std@@QEAAXQEAV?$GenericProperty@H@io@easy3d@@_K@Z
	?deallocate@?$allocator@V?$GenericProperty@M@io@easy3d@@@std@@QEAAXQEAV?$GenericProperty@M@io@easy3d@@_K@Z
	?deallocate@?$allocator@V?$GenericProperty@V?$Vec@$01M@easy3d@@@io@easy3d@@@std@@QEAAXQEAV?$GenericProperty@V?$Vec@$01M@easy3d@@@io@easy3d@@_K@Z
	?deallocate@?$allocator@V?$GenericProperty@V?$Vec@$02M@easy3d@@@io@easy3d@@@std@@QEAAXQEAV?$GenericProperty@V?$Vec@$02M@easy3d@@@io@easy3d@@_K@Z
	?deallocate@?$allocator@V?$GenericProperty@V?$vector@HV?$allocator@H@std@@@std@@@io@easy3d@@@std@@QEAAXQEAV?$GenericProperty@V?$vector@HV?$allocator@H@std@@@std@@@io@easy3d@@_K@Z
	?deallocate@?$allocator@V?$GenericProperty@V?$vector@MV?$allocator@M@std@@@std@@@io@easy3d@@@std@@QEAAXQEAV?$GenericProperty@V?$vector@MV?$allocator@M@std@@@std@@@io@easy3d@@_K@Z
	?deallocate@?$allocator@V?$Vec@$01M@easy3d@@@std@@QEAAXQEAV?$Vec@$01M@easy3d@@_K@Z
	?deallocate@?$allocator@V?$Vec@$02M@easy3d@@@std@@QEAAXQEAV?$Vec@$02M@easy3d@@_K@Z
	?deallocate@?$allocator@V?$Vec@$02N@easy3d@@@std@@QEAAXQEAV?$Vec@$02N@easy3d@@_K@Z
	?deallocate@?$allocator@V?$basic_json@Vmap@std@@Vvector@2@V?$basic_string@DU?$char_traits@D@std@@V?$allocator@D@2@@2@_N_J_KNVallocator@2@Uadl_serializer@nlohmann@@V?$vector@EV?$allocator@E@std@@@2@@nlohmann@@@std@@QEAAXQEAV?$basic_json@Vmap@std@@Vvector@2@V?$basic_string@DU?$char_traits@D@std@@V?$allocator@D@2@@2@_N_J_KNVallocator@2@Uadl_serializer@nlohmann@@V?$vector@EV?$allocator@E@std@@@2@@nlohmann@@_K@Z
	?deallocate@?$allocator@V?$basic_string@DU?$char_traits@D@std@@V?$allocator@D@2@@std@@@std@@QEAAXQEAV?$basic_string@DU?$char_traits@D@std@@V?$allocator@D@2@@2@_K@Z
	?deallocate@?$allocator@V?$vector@HV?$allocator@H@std@@@std@@@std@@QEAAXQEAV?$vector@HV?$allocator@H@std@@@2@_K@Z
	?deallocate@?$allocator@V?$vector@MV?$allocator@M@std@@@std@@@std@@QEAAXQEAV?$vector@MV?$allocator@M@std@@@2@_K@Z
	?deallocate@?$allocator@V?$vector@NV?$allocator@N@std@@@std@@@std@@QEAAXQEAV?$vector@NV?$allocator@N@std@@@2@_K@Z
	?deallocate@?$allocator@V?$vector@V?$Vec@$02N@easy3d@@V?$allocator@V?$Vec@$02N@easy3d@@@std@@@std@@@std@@QEAAXQEAV?$vector@V?$Vec@$02N@easy3d@@V?$allocator@V?$Vec@$02N@easy3d@@@std@@@2@_K@Z
	?deallocate@?$allocator@VVertexGroup@PointCloudIO_vg@io@easy3d@@@std@@QEAAXQEAVVertexGroup@PointCloudIO_vg@io@easy3d@@_K@Z
	?destroy@json_value@?$basic_json@Vmap@std@@Vvector@2@V?$basic_string@DU?$char_traits@D@std@@V?$allocator@D@2@@2@_N_J_KNVallocator@2@Uadl_serializer@nlohmann@@V?$vector@EV?$allocator@E@std@@@2@@nlohmann@@QEAAXW4value_t@detail@3@@Z
	?empty_clone@?$PropertyArray@H@easy3d@@UEBAPEAVBasePropertyArray@2@XZ
	?empty_clone@?$PropertyArray@M@easy3d@@UEBAPEAVBasePropertyArray@2@XZ
	?empty_clone@?$PropertyArray@UCellConnectivity@PolyMesh@easy3d@@@easy3d@@UEBAPEAVBasePropertyArray@2@XZ
	?empty_clone@?$PropertyArray@UEdgeConnectivity@PolyMesh@easy3d@@@easy3d@@UEBAPEAVBasePropertyArray@2@XZ
	?empty_clone@?$PropertyArray@UElement@io@easy3d@@@easy3d@@UEBAPEAVBasePropertyArray@2@XZ
	?empty_clone@?$PropertyArray@UFaceConnectivity@SurfaceMesh@easy3d@@@easy3d@@UEBAPEAVBasePropertyArray@2@XZ
	?empty_clone@?$PropertyArray@UHalfFaceConnectivity@PolyMesh@easy3d@@@easy3d@@UEBAPEAVBasePropertyArray@2@XZ
	?empty_clone@?$PropertyArray@UHalfedgeConnectivity@SurfaceMesh@easy3d@@@easy3d@@UEBAPEAVBasePropertyArray@2@XZ
	?empty_clone@?$PropertyArray@UVertexConnectivity@PolyMesh@easy3d@@@easy3d@@UEBAPEAVBasePropertyArray@2@XZ
	?empty_clone@?$PropertyArray@UVertexConnectivity@SurfaceMesh@easy3d@@@easy3d@@UEBAPEAVBasePropertyArray@2@XZ
	?empty_clone@?$PropertyArray@V?$Vec@$01M@easy3d@@@easy3d@@UEBAPEAVBasePropertyArray@2@XZ
	?empty_clone@?$PropertyArray@V?$Vec@$02M@easy3d@@@easy3d@@UEBAPEAVBasePropertyArray@2@XZ
	?empty_clone@?$PropertyArray@V?$Vec@$02N@easy3d@@@easy3d@@UEBAPEAVBasePropertyArray@2@XZ
	?empty_clone@?$PropertyArray@V?$vector@HV?$allocator@H@std@@@std@@@easy3d@@UEBAPEAVBasePropertyArray@2@XZ
	?empty_clone@?$PropertyArray@V?$vector@MV?$allocator@M@std@@@std@@@easy3d@@UEBAPEAVBasePropertyArray@2@XZ
	?end@?$basic_json@Vmap@std@@Vvector@2@V?$basic_string@DU?$char_traits@D@std@@V?$allocator@D@2@@2@_N_J_KNVallocator@2@Uadl_serializer@nlohmann@@V?$vector@EV?$allocator@E@std@@@2@@nlohmann@@QEAA?AV?$iter_impl@V?$basic_json@Vmap@std@@Vvector@2@V?$basic_string@DU?$char_traits@D@std@@V?$allocator@D@2@@2@_N_J_KNVallocator@2@Uadl_serializer@nlohmann@@V?$vector@EV?$allocator@E@std@@@2@@nlohmann@@@detail@2@XZ
	?end_array@?$json_sax_dom_callback_parser@V?$basic_json@Vmap@std@@Vvector@2@V?$basic_string@DU?$char_traits@D@std@@V?$allocator@D@2@@2@_N_J_KNVallocator@2@Uadl_serializer@nlohmann@@V?$vector@EV?$allocator@E@std@@@2@@nlohmann@@@detail@nlohmann@@QEAA_NXZ
	?end_object@?$json_sax_dom_callback_parser@V?$basic_json@Vmap@std@@Vvector@2@V?$basic_string@DU?$char_traits@D@std@@V?$allocator@D@2@@2@_N_J_KNVallocator@2@Uadl_serializer@nlohmann@@V?$vector@EV?$allocator@E@std@@@2@@nlohmann@@@detail@nlohmann@@QEAA_NXZ
	?erase@?$vector@_NV?$allocator@_N@std@@@std@@QEAA?AV?$_Vb_iterator@U?$_Wrap_alloc@V?$allocator@I@std@@@std@@@2@V?$_Vb_const_iterator@U?$_Wrap_alloc@V?$allocator@I@std@@@std@@@2@@Z
	?exception_message@?$parser@V?$basic_json@Vmap@std@@Vvector@2@V?$basic_string@DU?$char_traits@D@std@@V?$allocator@D@2@@2@_N_J_KNVallocator@2@Uadl_serializer@nlohmann@@V?$vector@EV?$allocator@E@std@@@2@@nlohmann@@Vinput_stream_adapter@detail@2@@detail@nlohmann@@AEAA?AV?$basic_string@DU?$char_traits@D@std@@V?$allocator@D@2@@std@@W4token_type@?$lexer_base@V?$basic_json@Vmap@std@@Vvector@2@V?$basic_string@DU?$char_traits@D@std@@V?$allocator@D@2@@2@_N_J_KNVallocator@2@Uadl_serializer@nlohmann@@V?$vector@EV?$allocator@E@std@@@2@@nlohmann@@@23@AEBV45@@Z
	?extract_polygon@internal@io@easy3d@@YAXAEBV?$iter_impl@$$CBV?$basic_json@Vmap@std@@Vvector@2@V?$basic_string@DU?$char_traits@D@std@@V?$allocator@D@2@@2@_N_J_KNVallocator@2@Uadl_serializer@nlohmann@@V?$vector@EV?$allocator@E@std@@@2@@nlohmann@@@detail@nlohmann@@AEAV?$vector@NV?$allocator@N@std@@@std@@@Z
	?faces@SurfaceMesh@easy3d@@QEBA?AVFaceContainer@12@XZ
	?fail@LineInputStream@io@easy3d@@QEBA_NXZ
	?find@?$basic_string@DU?$char_traits@D@std@@V?$allocator@D@2@@std@@QEBA_KQEBD_K@Z
	?get@?$lexer@V?$basic_json@Vmap@std@@Vvector@2@V?$basic_string@DU?$char_traits@D@std@@V?$allocator@D@2@@2@_N_J_KNVallocator@2@Uadl_serializer@nlohmann@@V?$vector@EV?$allocator@E@std@@@2@@nlohmann@@Vinput_stream_adapter@detail@2@@detail@nlohmann@@AEAAHXZ
	?getCounter@RegisteredHitCounters@base@el@@QEAAPEBVHitCounter@23@PEBDK@Z
	?get_codepoint@?$lexer@V?$basic_json@Vmap@std@@Vvector@2@V?$basic_string@DU?$char_traits@D@std@@V?$allocator@D@2@@2@_N_J_KNVallocator@2@Uadl_serializer@nlohmann@@V?$vector@EV?$allocator@E@std@@@2@@nlohmann@@Vinput_stream_adapter@detail@2@@detail@nlohmann@@AEAAHXZ
	?get_group_parameters@PointCloudIO_vg@io@easy3d@@CA?AV?$vector@MV?$allocator@M@std@@@std@@AEBVVertexGroup@123@@Z
	?get_line@LineInputStream@io@easy3d@@QEAAXXZ
	?get_token_string@?$lexer@V?$basic_json@Vmap@std@@Vvector@2@V?$basic_string@DU?$char_traits@D@std@@V?$allocator@D@2@@2@_N_J_KNVallocator@2@Uadl_serializer@nlohmann@@V?$vector@EV?$allocator@E@std@@@2@@nlohmann@@Vinput_stream_adapter@detail@2@@detail@nlohmann@@QEBA?AV?$basic_string@DU?$char_traits@D@std@@V?$allocator@D@2@@std@@XZ
	?imbue@?$basic_filebuf@DU?$char_traits@D@std@@@std@@MEAAXAEBVlocale@2@@Z
	?init@LASpoint@@QEAAHPEBVLASquantizer@@EGPEBVLASattributer@@@Z
	?insert@?$basic_string@DU?$char_traits@D@std@@V?$allocator@D@2@@std@@QEAAAEAV12@_KQEBD0@Z
	?instance@Translator@easy3d@@SAPEAV12@XZ
	?is_big_endian@io@easy3d@@YA_NXZ
	?key@?$json_sax_dom_callback_parser@V?$basic_json@Vmap@std@@Vvector@2@V?$basic_string@DU?$char_traits@D@std@@V?$allocator@D@2@@2@_N_J_KNVallocator@2@Uadl_serializer@nlohmann@@V?$vector@EV?$allocator@E@std@@@2@@nlohmann@@@detail@nlohmann@@QEAA_NAEAV?$basic_string@DU?$char_traits@D@std@@V?$allocator@D@2@@std@@@Z
	?key@?$json_sax_dom_parser@V?$basic_json@Vmap@std@@Vvector@2@V?$basic_string@DU?$char_traits@D@std@@V?$allocator@D@2@@2@_N_J_KNVallocator@2@Uadl_serializer@nlohmann@@V?$vector@EV?$allocator@E@std@@@2@@nlohmann@@@detail@nlohmann@@QEAA_NAEAV?$basic_string@DU?$char_traits@D@std@@V?$allocator@D@2@@std@@@Z
	?load@GraphIO@easy3d@@SAPEAVGraph@2@AEBV?$basic_string@DU?$char_traits@D@std@@V?$allocator@D@2@@std@@@Z
	?load@ImageIO@easy3d@@SA_NAEBV?$basic_string@DU?$char_traits@D@std@@V?$allocator@D@2@@std@@AEAV?$vector@EV?$allocator@E@std@@@4@AEAH22H_N@Z
	?load@PointCloudIO@easy3d@@SAPEAVPointCloud@2@AEBV?$basic_string@DU?$char_traits@D@std@@V?$allocator@D@2@@std@@@Z
	?load@PolyMeshIO@easy3d@@SAPEAVPolyMesh@2@AEBV?$basic_string@DU?$char_traits@D@std@@V?$allocator@D@2@@std@@@Z
	?load@SurfaceMeshIO@easy3d@@SAPEAVSurfaceMesh@2@AEBV?$basic_string@DU?$char_traits@D@std@@V?$allocator@D@2@@std@@@Z
	?load_bin@io@easy3d@@YA_NAEBV?$basic_string@DU?$char_traits@D@std@@V?$allocator@D@2@@std@@PEAVPointCloud@2@@Z
	?load_bvg@PointCloudIO_vg@io@easy3d@@SA_NAEBV?$basic_string@DU?$char_traits@D@std@@V?$allocator@D@2@@std@@PEAVPointCloud@3@@Z
	?load_bxyz@io@easy3d@@YA_NAEBV?$basic_string@DU?$char_traits@D@std@@V?$allocator@D@2@@std@@PEAVPointCloud@2@@Z
	?load_geojson@io@easy3d@@YA_NAEBV?$basic_string@DU?$char_traits@D@std@@V?$allocator@D@2@@std@@PEAVSurfaceMesh@2@@Z
	?load_las@io@easy3d@@YA_NAEBV?$basic_string@DU?$char_traits@D@std@@V?$allocator@D@2@@std@@PEAVPointCloud@2@@Z
	?load_mesh@io@easy3d@@YA_NAEBV?$basic_string@DU?$char_traits@D@std@@V?$allocator@D@2@@std@@PEAVPolyMesh@2@@Z
	?load_next@PointCloudIO_ptx@io@easy3d@@QEAAPEAVPointCloud@3@XZ
	?load_obj@io@easy3d@@YA_NAEBV?$basic_string@DU?$char_traits@D@std@@V?$allocator@D@2@@std@@PEAVSurfaceMesh@2@@Z
	?load_off@io@easy3d@@YA_NAEBV?$basic_string@DU?$char_traits@D@std@@V?$allocator@D@2@@std@@PEAVSurfaceMesh@2@@Z
	?load_plm@io@easy3d@@YA_NAEBV?$basic_string@DU?$char_traits@D@std@@V?$allocator@D@2@@std@@PEAVPolyMesh@2@@Z
	?load_ply@io@easy3d@@YA_NAEBV?$basic_string@DU?$char_traits@D@std@@V?$allocator@D@2@@std@@PEAVGraph@2@@Z
	?load_ply@io@easy3d@@YA_NAEBV?$basic_string@DU?$char_traits@D@std@@V?$allocator@D@2@@std@@PEAVPointCloud@2@@Z
	?load_ply@io@easy3d@@YA_NAEBV?$basic_string@DU?$char_traits@D@std@@V?$allocator@D@2@@std@@PEAVSurfaceMesh@2@@Z
	?load_pm@io@easy3d@@YA_NAEBV?$basic_string@DU?$char_traits@D@std@@V?$allocator@D@2@@std@@PEAVPolyMesh@2@@Z
	?load_sm@io@easy3d@@YA_NAEBV?$basic_string@DU?$char_traits@D@std@@V?$allocator@D@2@@std@@PEAVSurfaceMesh@2@@Z
	?load_stl@io@easy3d@@YA_NAEBV?$basic_string@DU?$char_traits@D@std@@V?$allocator@D@2@@std@@PEAVSurfaceMesh@2@@Z
	?load_trilist@io@easy3d@@YA_NAEBV?$basic_string@DU?$char_traits@D@std@@V?$allocator@D@2@@std@@PEAVSurfaceMesh@2@@Z
	?load_vg@PointCloudIO_vg@io@easy3d@@SA_NAEBV?$basic_string@DU?$char_traits@D@std@@V?$allocator@D@2@@std@@PEAVPointCloud@3@@Z
	?load_xyz@io@easy3d@@YA_NAEBV?$basic_string@DU?$char_traits@D@std@@V?$allocator@D@2@@std@@PEAVPointCloud@2@@Z
	?max_size@?$basic_json@Vmap@std@@Vvector@2@V?$basic_string@DU?$char_traits@D@std@@V?$allocator@D@2@@2@_N_J_KNVallocator@2@Uadl_serializer@nlohmann@@V?$vector@EV?$allocator@E@std@@@2@@nlohmann@@QEBA_KXZ
	?name@exception@detail@nlohmann@@KA?AV?$basic_string@DU?$char_traits@D@std@@V?$allocator@D@2@@std@@AEBV45@H@Z
	?next_byte_in_range@?$lexer@V?$basic_json@Vmap@std@@Vvector@2@V?$basic_string@DU?$char_traits@D@std@@V?$allocator@D@2@@2@_N_J_KNVallocator@2@Uadl_serializer@nlohmann@@V?$vector@EV?$allocator@E@std@@@2@@nlohmann@@Vinput_stream_adapter@detail@2@@detail@nlohmann@@AEAA_NV?$initializer_list@H@std@@@Z
	?null@?$json_sax_dom_callback_parser@V?$basic_json@Vmap@std@@Vvector@2@V?$basic_string@DU?$char_traits@D@std@@V?$allocator@D@2@@2@_N_J_KNVallocator@2@Uadl_serializer@nlohmann@@V?$vector@EV?$allocator@E@std@@@2@@nlohmann@@@detail@nlohmann@@QEAA_NXZ
	?null@?$json_sax_dom_parser@V?$basic_json@Vmap@std@@Vvector@2@V?$basic_string@DU?$char_traits@D@std@@V?$allocator@D@2@@2@_N_J_KNVallocator@2@Uadl_serializer@nlohmann@@V?$vector@EV?$allocator@E@std@@@2@@nlohmann@@@detail@nlohmann@@QEAA_NXZ
	?num_group_parameters@PointCloudIO_vg@io@easy3d@@CAHH@Z
	?num_instances@PlyReader@io@easy3d@@SA_KAEBV?$basic_string@DU?$char_traits@D@std@@V?$allocator@D@2@@std@@0@Z
	?open@?$basic_filebuf@DU?$char_traits@D@std@@@std@@QEAAPEAV12@PEBDHH@Z
	?overflow@?$basic_filebuf@DU?$char_traits@D@std@@@std@@MEAAHH@Z
	?overflow@?$basic_stringbuf@DU?$char_traits@D@std@@V?$allocator@D@2@@std@@MEAAHH@Z
	?parse@?$parser@V?$basic_json@Vmap@std@@Vvector@2@V?$basic_string@DU?$char_traits@D@std@@V?$allocator@D@2@@2@_N_J_KNVallocator@2@Uadl_serializer@nlohmann@@V?$vector@EV?$allocator@E@std@@@2@@nlohmann@@Vinput_stream_adapter@detail@2@@detail@nlohmann@@QEAAX_NAEAV?$basic_json@Vmap@std@@Vvector@2@V?$basic_string@DU?$char_traits@D@std@@V?$allocator@D@2@@2@_N_J_KNVallocator@2@Uadl_serializer@nlohmann@@V?$vector@EV?$allocator@E@std@@@2@@3@@Z
	?pbackfail@?$basic_filebuf@DU?$char_traits@D@std@@@std@@MEAAHH@Z
	?pbackfail@?$basic_stringbuf@DU?$char_traits@D@std@@V?$allocator@D@2@@std@@MEAAHH@Z
	?pop_back@?$vector@_NV?$allocator@_N@std@@@std@@QEAAXXZ
	?position_string@parse_error@detail@nlohmann@@CA?AV?$basic_string@DU?$char_traits@D@std@@V?$allocator@D@2@@std@@AEBUposition_t@23@@Z
	?property_statistics@Element@io@easy3d@@QEBA?AV?$basic_string@DU?$char_traits@D@std@@V?$allocator@D@2@@std@@XZ
	?push_back@?$PropertyArray@H@easy3d@@UEAAXXZ
	?push_back@?$PropertyArray@M@easy3d@@UEAAXXZ
	?push_back@?$PropertyArray@UCellConnectivity@PolyMesh@easy3d@@@easy3d@@UEAAXXZ
	?push_back@?$PropertyArray@UEdgeConnectivity@PolyMesh@easy3d@@@easy3d@@UEAAXXZ
	?push_back@?$PropertyArray@UElement@io@easy3d@@@easy3d@@UEAAXXZ
	?push_back@?$PropertyArray@UFaceConnectivity@SurfaceMesh@easy3d@@@easy3d@@UEAAXXZ
	?push_back@?$PropertyArray@UHalfFaceConnectivity@PolyMesh@easy3d@@@easy3d@@UEAAXXZ
	?push_back@?$PropertyArray@UHalfedgeConnectivity@SurfaceMesh@easy3d@@@easy3d@@UEAAXXZ
	?push_back@?$PropertyArray@UVertexConnectivity@PolyMesh@easy3d@@@easy3d@@UEAAXXZ
	?push_back@?$PropertyArray@UVertexConnectivity@SurfaceMesh@easy3d@@@easy3d@@UEAAXXZ
	?push_back@?$PropertyArray@V?$Vec@$01M@easy3d@@@easy3d@@UEAAXXZ
	?push_back@?$PropertyArray@V?$Vec@$02M@easy3d@@@easy3d@@UEAAXXZ
	?push_back@?$PropertyArray@V?$Vec@$02N@easy3d@@@easy3d@@UEAAXXZ
	?push_back@?$PropertyArray@V?$vector@HV?$allocator@H@std@@@std@@@easy3d@@UEAAXXZ
	?push_back@?$PropertyArray@V?$vector@MV?$allocator@M@std@@@std@@@easy3d@@UEAAXXZ
	?push_back@?$vector@Ushape_t@tinyobj@@V?$allocator@Ushape_t@tinyobj@@@std@@@std@@QEAAXAEBUshape_t@tinyobj@@@Z
	?push_back@?$vector@V?$GenericProperty@H@io@easy3d@@V?$allocator@V?$GenericProperty@H@io@easy3d@@@std@@@std@@QEAAXAEBV?$GenericProperty@H@io@easy3d@@@Z
	?push_back@?$vector@V?$GenericProperty@M@io@easy3d@@V?$allocator@V?$GenericProperty@M@io@easy3d@@@std@@@std@@QEAAXAEBV?$GenericProperty@M@io@easy3d@@@Z
	?push_back@?$vector@V?$GenericProperty@V?$Vec@$01M@easy3d@@@io@easy3d@@V?$allocator@V?$GenericProperty@V?$Vec@$01M@easy3d@@@io@easy3d@@@std@@@std@@QEAAXAEBV?$GenericProperty@V?$Vec@$01M@easy3d@@@io@easy3d@@@Z
	?push_back@?$vector@V?$GenericProperty@V?$Vec@$02M@easy3d@@@io@easy3d@@V?$allocator@V?$GenericProperty@V?$Vec@$02M@easy3d@@@io@easy3d@@@std@@@std@@QEAAXAEBV?$GenericProperty@V?$Vec@$02M@easy3d@@@io@easy3d@@@Z
	?push_back@?$vector@V?$GenericProperty@V?$vector@HV?$allocator@H@std@@@std@@@io@easy3d@@V?$allocator@V?$GenericProperty@V?$vector@HV?$allocator@H@std@@@std@@@io@easy3d@@@std@@@std@@QEAAXAEBV?$GenericProperty@V?$vector@HV?$allocator@H@std@@@std@@@io@easy3d@@@Z
	?push_back@?$vector@V?$GenericProperty@V?$vector@MV?$allocator@M@std@@@std@@@io@easy3d@@V?$allocator@V?$GenericProperty@V?$vector@MV?$allocator@M@std@@@std@@@io@easy3d@@@std@@@std@@QEAAXAEBV?$GenericProperty@V?$vector@MV?$allocator@M@std@@@std@@@io@easy3d@@@Z
	?push_back@?$vector@_NV?$allocator@_N@std@@@std@@QEAAXAEB_N@Z
	?range@?$GenericBox@$02M@easy3d@@QEBAMI@Z
	?read@PlyReader@io@easy3d@@QEAA_NAEBV?$basic_string@DU?$char_traits@D@std@@V?$allocator@D@2@@std@@AEAV?$vector@UElement@io@easy3d@@V?$allocator@UElement@io@easy3d@@@std@@@5@@Z
	?read_ascii_group@PointCloudIO_vg@io@easy3d@@CAXAEAV?$basic_istream@DU?$char_traits@D@std@@@std@@AEAVVertexGroup@123@@Z
	?read_binary_group@PointCloudIO_vg@io@easy3d@@CAXAEAV?$basic_istream@DU?$char_traits@D@std@@@std@@AEAVVertexGroup@123@@Z
	?reserve@?$PropertyArray@H@easy3d@@UEAAX_K@Z
	?reserve@?$PropertyArray@M@easy3d@@UEAAX_K@Z
	?reserve@?$PropertyArray@UCellConnectivity@PolyMesh@easy3d@@@easy3d@@UEAAX_K@Z
	?reserve@?$PropertyArray@UEdgeConnectivity@PolyMesh@easy3d@@@easy3d@@UEAAX_K@Z
	?reserve@?$PropertyArray@UElement@io@easy3d@@@easy3d@@UEAAX_K@Z
	?reserve@?$PropertyArray@UFaceConnectivity@SurfaceMesh@easy3d@@@easy3d@@UEAAX_K@Z
	?reserve@?$PropertyArray@UHalfFaceConnectivity@PolyMesh@easy3d@@@easy3d@@UEAAX_K@Z
	?reserve@?$PropertyArray@UHalfedgeConnectivity@SurfaceMesh@easy3d@@@easy3d@@UEAAX_K@Z
	?reserve@?$PropertyArray@UVertexConnectivity@PolyMesh@easy3d@@@easy3d@@UEAAX_K@Z
	?reserve@?$PropertyArray@UVertexConnectivity@SurfaceMesh@easy3d@@@easy3d@@UEAAX_K@Z
	?reserve@?$PropertyArray@V?$Vec@$01M@easy3d@@@easy3d@@UEAAX_K@Z
	?reserve@?$PropertyArray@V?$Vec@$02M@easy3d@@@easy3d@@UEAAX_K@Z
	?reserve@?$PropertyArray@V?$Vec@$02N@easy3d@@@easy3d@@UEAAX_K@Z
	?reserve@?$PropertyArray@V?$vector@HV?$allocator@H@std@@@std@@@easy3d@@UEAAX_K@Z
	?reserve@?$PropertyArray@V?$vector@MV?$allocator@M@std@@@std@@@easy3d@@UEAAX_K@Z
	?reserve@?$vector@V?$vector@HV?$allocator@H@std@@@std@@V?$allocator@V?$vector@HV?$allocator@H@std@@@std@@@2@@std@@QEAAX_K@Z
	?reset@?$PropertyArray@H@easy3d@@UEAAX_K@Z
	?reset@?$PropertyArray@M@easy3d@@UEAAX_K@Z
	?reset@?$PropertyArray@UCellConnectivity@PolyMesh@easy3d@@@easy3d@@UEAAX_K@Z
	?reset@?$PropertyArray@UEdgeConnectivity@PolyMesh@easy3d@@@easy3d@@UEAAX_K@Z
	?reset@?$PropertyArray@UElement@io@easy3d@@@easy3d@@UEAAX_K@Z
	?reset@?$PropertyArray@UFaceConnectivity@SurfaceMesh@easy3d@@@easy3d@@UEAAX_K@Z
	?reset@?$PropertyArray@UHalfFaceConnectivity@PolyMesh@easy3d@@@easy3d@@UEAAX_K@Z
	?reset@?$PropertyArray@UHalfedgeConnectivity@SurfaceMesh@easy3d@@@easy3d@@UEAAX_K@Z
	?reset@?$PropertyArray@UVertexConnectivity@PolyMesh@easy3d@@@easy3d@@UEAAX_K@Z
	?reset@?$PropertyArray@UVertexConnectivity@SurfaceMesh@easy3d@@@easy3d@@UEAAX_K@Z
	?reset@?$PropertyArray@V?$Vec@$01M@easy3d@@@easy3d@@UEAAX_K@Z
	?reset@?$PropertyArray@V?$Vec@$02M@easy3d@@@easy3d@@UEAAX_K@Z
	?reset@?$PropertyArray@V?$Vec@$02N@easy3d@@@easy3d@@UEAAX_K@Z
	?reset@?$PropertyArray@V?$vector@HV?$allocator@H@std@@@std@@@easy3d@@UEAAX_K@Z
	?reset@?$PropertyArray@V?$vector@MV?$allocator@M@std@@@std@@@easy3d@@UEAAX_K@Z
	?reset@?$lexer@V?$basic_json@Vmap@std@@Vvector@2@V?$basic_string@DU?$char_traits@D@std@@V?$allocator@D@2@@2@_N_J_KNVallocator@2@Uadl_serializer@nlohmann@@V?$vector@EV?$allocator@E@std@@@2@@nlohmann@@Vinput_stream_adapter@detail@2@@detail@nlohmann@@AEAAXXZ
	?resize@?$PropertyArray@H@easy3d@@UEAAX_K@Z
	?resize@?$PropertyArray@M@easy3d@@UEAAX_K@Z
	?resize@?$PropertyArray@UCellConnectivity@PolyMesh@easy3d@@@easy3d@@UEAAX_K@Z
	?resize@?$PropertyArray@UEdgeConnectivity@PolyMesh@easy3d@@@easy3d@@UEAAX_K@Z
	?resize@?$PropertyArray@UElement@io@easy3d@@@easy3d@@UEAAX_K@Z
	?resize@?$PropertyArray@UFaceConnectivity@SurfaceMesh@easy3d@@@easy3d@@UEAAX_K@Z
	?resize@?$PropertyArray@UHalfFaceConnectivity@PolyMesh@easy3d@@@easy3d@@UEAAX_K@Z
	?resize@?$PropertyArray@UHalfedgeConnectivity@SurfaceMesh@easy3d@@@easy3d@@UEAAX_K@Z
	?resize@?$PropertyArray@UVertexConnectivity@PolyMesh@easy3d@@@easy3d@@UEAAX_K@Z
	?resize@?$PropertyArray@UVertexConnectivity@SurfaceMesh@easy3d@@@easy3d@@UEAAX_K@Z
	?resize@?$PropertyArray@V?$Vec@$01M@easy3d@@@easy3d@@UEAAX_K@Z
	?resize@?$PropertyArray@V?$Vec@$02M@easy3d@@@easy3d@@UEAAX_K@Z
	?resize@?$PropertyArray@V?$Vec@$02N@easy3d@@@easy3d@@UEAAX_K@Z
	?resize@?$PropertyArray@V?$vector@HV?$allocator@H@std@@@std@@@easy3d@@UEAAX_K@Z
	?resize@?$PropertyArray@V?$vector@MV?$allocator@M@std@@@std@@@easy3d@@UEAAX_K@Z
	?resize@?$vector@HV?$allocator@H@std@@@std@@QEAAX_K@Z
	?resize@?$vector@MV?$allocator@M@std@@@std@@QEAAX_K@Z
	?resize@?$vector@NV?$allocator@N@std@@@std@@QEAAX_K@Z
	?resize@?$vector@V?$Vec@$02M@easy3d@@V?$allocator@V?$Vec@$02M@easy3d@@@std@@@std@@QEAAX_K@Z
	?resize@PointCloud@easy3d@@QEAAXI@Z
	?save@GraphIO@easy3d@@SA_NAEBV?$basic_string@DU?$char_traits@D@std@@V?$allocator@D@2@@std@@PEBVGraph@2@@Z
	?save@ImageIO@easy3d@@SA_NAEBV?$basic_string@DU?$char_traits@D@std@@V?$allocator@D@2@@std@@AEBV?$vector@EV?$allocator@E@std@@@4@HHH_N@Z
	?save@PointCloudIO@easy3d@@SA_NAEBV?$basic_string@DU?$char_traits@D@std@@V?$allocator@D@2@@std@@PEBVPointCloud@2@@Z
	?save@PolyMeshIO@easy3d@@SA_NAEBV?$basic_string@DU?$char_traits@D@std@@V?$allocator@D@2@@std@@PEBVPolyMesh@2@@Z
	?save@SurfaceMeshIO@easy3d@@SA_NAEBV?$basic_string@DU?$char_traits@D@std@@V?$allocator@D@2@@std@@PEBVSurfaceMesh@2@@Z
	?save_bin@io@easy3d@@YA_NAEBV?$basic_string@DU?$char_traits@D@std@@V?$allocator@D@2@@std@@PEBVPointCloud@2@@Z
	?save_bmp@io@easy3d@@YA_NAEBV?$basic_string@DU?$char_traits@D@std@@V?$allocator@D@2@@std@@AEBV?$vector@EV?$allocator@E@std@@@4@HH@Z
	?save_bvg@PointCloudIO_vg@io@easy3d@@SA_NAEBV?$basic_string@DU?$char_traits@D@std@@V?$allocator@D@2@@std@@PEBVPointCloud@3@@Z
	?save_bxyz@io@easy3d@@YA_NAEBV?$basic_string@DU?$char_traits@D@std@@V?$allocator@D@2@@std@@PEBVPointCloud@2@@Z
	?save_las@io@easy3d@@YA_NAEBV?$basic_string@DU?$char_traits@D@std@@V?$allocator@D@2@@std@@PEBVPointCloud@2@@Z
	?save_mesh@io@easy3d@@YA_NAEBV?$basic_string@DU?$char_traits@D@std@@V?$allocator@D@2@@std@@PEBVPolyMesh@2@@Z
	?save_obj@io@easy3d@@YA_NAEBV?$basic_string@DU?$char_traits@D@std@@V?$allocator@D@2@@std@@PEBVSurfaceMesh@2@@Z
	?save_off@io@easy3d@@YA_NAEBV?$basic_string@DU?$char_traits@D@std@@V?$allocator@D@2@@std@@PEBVSurfaceMesh@2@@Z
	?save_plm@io@easy3d@@YA_NAEBV?$basic_string@DU?$char_traits@D@std@@V?$allocator@D@2@@std@@PEBVPolyMesh@2@@Z
	?save_ply@io@easy3d@@YA_NAEBV?$basic_string@DU?$char_traits@D@std@@V?$allocator@D@2@@std@@PEBVGraph@2@_N@Z
	?save_ply@io@easy3d@@YA_NAEBV?$basic_string@DU?$char_traits@D@std@@V?$allocator@D@2@@std@@PEBVPointCloud@2@_N@Z
	?save_ply@io@easy3d@@YA_NAEBV?$basic_string@DU?$char_traits@D@std@@V?$allocator@D@2@@std@@PEBVSurfaceMesh@2@_N@Z
	?save_pm@io@easy3d@@YA_NAEBV?$basic_string@DU?$char_traits@D@std@@V?$allocator@D@2@@std@@PEBVPolyMesh@2@@Z
	?save_ppm@io@easy3d@@YA_NAEBV?$basic_string@DU?$char_traits@D@std@@V?$allocator@D@2@@std@@AEBV?$vector@EV?$allocator@E@std@@@4@HH@Z
	?save_sm@io@easy3d@@YA_NAEBV?$basic_string@DU?$char_traits@D@std@@V?$allocator@D@2@@std@@PEBVSurfaceMesh@2@@Z
	?save_stl@io@easy3d@@YA_NAEBV?$basic_string@DU?$char_traits@D@std@@V?$allocator@D@2@@std@@PEBVSurfaceMesh@2@@Z
	?save_tga@io@easy3d@@YA_NAEBV?$basic_string@DU?$char_traits@D@std@@V?$allocator@D@2@@std@@AEBV?$vector@EV?$allocator@E@std@@@4@HH@Z
	?save_vg@PointCloudIO_vg@io@easy3d@@SA_NAEBV?$basic_string@DU?$char_traits@D@std@@V?$allocator@D@2@@std@@PEBVPointCloud@3@@Z
	?save_xyz@io@easy3d@@YA_NAEBV?$basic_string@DU?$char_traits@D@std@@V?$allocator@D@2@@std@@PEBVPointCloud@2@@Z
	?scan@?$lexer@V?$basic_json@Vmap@std@@Vvector@2@V?$basic_string@DU?$char_traits@D@std@@V?$allocator@D@2@@2@_N_J_KNVallocator@2@Uadl_serializer@nlohmann@@V?$vector@EV?$allocator@E@std@@@2@@nlohmann@@Vinput_stream_adapter@detail@2@@detail@nlohmann@@QEAA?AW4token_type@?$lexer_base@V?$basic_json@Vmap@std@@Vvector@2@V?$basic_string@DU?$char_traits@D@std@@V?$allocator@D@2@@2@_N_J_KNVallocator@2@Uadl_serializer@nlohmann@@V?$vector@EV?$allocator@E@std@@@2@@nlohmann@@@23@XZ
	?scan_literal@?$lexer@V?$basic_json@Vmap@std@@Vvector@2@V?$basic_string@DU?$char_traits@D@std@@V?$allocator@D@2@@2@_N_J_KNVallocator@2@Uadl_serializer@nlohmann@@V?$vector@EV?$allocator@E@std@@@2@@nlohmann@@Vinput_stream_adapter@detail@2@@detail@nlohmann@@AEAA?AW4token_type@?$lexer_base@V?$basic_json@Vmap@std@@Vvector@2@V?$basic_string@DU?$char_traits@D@std@@V?$allocator@D@2@@2@_N_J_KNVallocator@2@Uadl_serializer@nlohmann@@V?$vector@EV?$allocator@E@std@@@2@@nlohmann@@@23@PEBD_KW44523@@Z
	?scan_number@?$lexer@V?$basic_json@Vmap@std@@Vvector@2@V?$basic_string@DU?$char_traits@D@std@@V?$allocator@D@2@@2@_N_J_KNVallocator@2@Uadl_serializer@nlohmann@@V?$vector@EV?$allocator@E@std@@@2@@nlohmann@@Vinput_stream_adapter@detail@2@@detail@nlohmann@@AEAA?AW4token_type@?$lexer_base@V?$basic_json@Vmap@std@@Vvector@2@V?$basic_string@DU?$char_traits@D@std@@V?$allocator@D@2@@2@_N_J_KNVallocator@2@Uadl_serializer@nlohmann@@V?$vector@EV?$allocator@E@std@@@2@@nlohmann@@@23@XZ
	?scan_string@?$lexer@V?$basic_json@Vmap@std@@Vvector@2@V?$basic_string@DU?$char_traits@D@std@@V?$allocator@D@2@@2@_N_J_KNVallocator@2@Uadl_serializer@nlohmann@@V?$vector@EV?$allocator@E@std@@@2@@nlohmann@@Vinput_stream_adapter@detail@2@@detail@nlohmann@@AEAA?AW4token_type@?$lexer_base@V?$basic_json@Vmap@std@@Vvector@2@V?$basic_string@DU?$char_traits@D@std@@V?$allocator@D@2@@2@_N_J_KNVallocator@2@Uadl_serializer@nlohmann@@V?$vector@EV?$allocator@E@std@@@2@@nlohmann@@@23@XZ
	?seekoff@?$basic_filebuf@DU?$char_traits@D@std@@@std@@MEAA?AV?$fpos@U_Mbstatet@@@2@_JHH@Z
	?seekoff@?$basic_stringbuf@DU?$char_traits@D@std@@V?$allocator@D@2@@std@@MEAA?AV?$fpos@U_Mbstatet@@@2@_JHH@Z
	?seekpos@?$basic_filebuf@DU?$char_traits@D@std@@@std@@MEAA?AV?$fpos@U_Mbstatet@@@2@V32@H@Z
	?seekpos@?$basic_stringbuf@DU?$char_traits@D@std@@V?$allocator@D@2@@std@@MEAA?AV?$fpos@U_Mbstatet@@@2@V32@H@Z
	?setbuf@?$basic_filebuf@DU?$char_traits@D@std@@@std@@MEAAPEAV?$basic_streambuf@DU?$char_traits@D@std@@@2@PEAD_J@Z
	?shrink_to_fit@?$PropertyArray@H@easy3d@@UEAAXXZ
	?shrink_to_fit@?$PropertyArray@M@easy3d@@UEAAXXZ
	?shrink_to_fit@?$PropertyArray@UCellConnectivity@PolyMesh@easy3d@@@easy3d@@UEAAXXZ
	?shrink_to_fit@?$PropertyArray@UEdgeConnectivity@PolyMesh@easy3d@@@easy3d@@UEAAXXZ
	?shrink_to_fit@?$PropertyArray@UElement@io@easy3d@@@easy3d@@UEAAXXZ
	?shrink_to_fit@?$PropertyArray@UFaceConnectivity@SurfaceMesh@easy3d@@@easy3d@@UEAAXXZ
	?shrink_to_fit@?$PropertyArray@UHalfFaceConnectivity@PolyMesh@easy3d@@@easy3d@@UEAAXXZ
	?shrink_to_fit@?$PropertyArray@UHalfedgeConnectivity@SurfaceMesh@easy3d@@@easy3d@@UEAAXXZ
	?shrink_to_fit@?$PropertyArray@UVertexConnectivity@PolyMesh@easy3d@@@easy3d@@UEAAXXZ
	?shrink_to_fit@?$PropertyArray@UVertexConnectivity@SurfaceMesh@easy3d@@@easy3d@@UEAAXXZ
	?shrink_to_fit@?$PropertyArray@V?$Vec@$01M@easy3d@@@easy3d@@UEAAXXZ
	?shrink_to_fit@?$PropertyArray@V?$Vec@$02M@easy3d@@@easy3d@@UEAAXXZ
	?shrink_to_fit@?$PropertyArray@V?$Vec@$02N@easy3d@@@easy3d@@UEAAXXZ
	?shrink_to_fit@?$PropertyArray@V?$vector@HV?$allocator@H@std@@@std@@@easy3d@@UEAAXXZ
	?shrink_to_fit@?$PropertyArray@V?$vector@MV?$allocator@M@std@@@std@@@easy3d@@UEAAXXZ
	?size@?$basic_json@Vmap@std@@Vvector@2@V?$basic_string@DU?$char_traits@D@std@@V?$allocator@D@2@@2@_N_J_KNVallocator@2@Uadl_serializer@nlohmann@@V?$vector@EV?$allocator@E@std@@@2@@nlohmann@@QEBA_KXZ
	?size@?$vector@Uindex_t@tinyobj@@V?$allocator@Uindex_t@tinyobj@@@std@@@std@@QEBA_KXZ
	?size@?$vector@V?$vector@NV?$allocator@N@std@@@std@@V?$allocator@V?$vector@NV?$allocator@N@std@@@std@@@2@@std@@QEBA_KXZ
	?skip_whitespace@?$lexer@V?$basic_json@Vmap@std@@Vvector@2@V?$basic_string@DU?$char_traits@D@std@@V?$allocator@D@2@@2@_N_J_KNVallocator@2@Uadl_serializer@nlohmann@@V?$vector@EV?$allocator@E@std@@@2@@nlohmann@@Vinput_stream_adapter@detail@2@@detail@nlohmann@@QEAAXXZ
	?start_array@?$json_sax_dom_callback_parser@V?$basic_json@Vmap@std@@Vvector@2@V?$basic_string@DU?$char_traits@D@std@@V?$allocator@D@2@@2@_N_J_KNVallocator@2@Uadl_serializer@nlohmann@@V?$vector@EV?$allocator@E@std@@@2@@nlohmann@@@detail@nlohmann@@QEAA_N_K@Z
	?start_array@?$json_sax_dom_parser@V?$basic_json@Vmap@std@@Vvector@2@V?$basic_string@DU?$char_traits@D@std@@V?$allocator@D@2@@2@_N_J_KNVallocator@2@Uadl_serializer@nlohmann@@V?$vector@EV?$allocator@E@std@@@2@@nlohmann@@@detail@nlohmann@@QEAA_N_K@Z
	?start_object@?$json_sax_dom_callback_parser@V?$basic_json@Vmap@std@@Vvector@2@V?$basic_string@DU?$char_traits@D@std@@V?$allocator@D@2@@2@_N_J_KNVallocator@2@Uadl_serializer@nlohmann@@V?$vector@EV?$allocator@E@std@@@2@@nlohmann@@@detail@nlohmann@@QEAA_N_K@Z
	?start_object@?$json_sax_dom_parser@V?$basic_json@Vmap@std@@Vvector@2@V?$basic_string@DU?$char_traits@D@std@@V?$allocator@D@2@@2@_N_J_KNVallocator@2@Uadl_serializer@nlohmann@@V?$vector@EV?$allocator@E@std@@@2@@nlohmann@@@detail@nlohmann@@QEAA_N_K@Z
	?stbi__unpremultiply_on_load_thread@@YAXH@Z
	?str@?$basic_stringstream@DU?$char_traits@D@std@@V?$allocator@D@2@@std@@QEBA?AV?$basic_string@DU?$char_traits@D@std@@V?$allocator@D@2@@2@XZ
	?swap@?$PropertyArray@H@easy3d@@UEAAX_K0@Z
	?swap@?$PropertyArray@M@easy3d@@UEAAX_K0@Z
	?swap@?$PropertyArray@UCellConnectivity@PolyMesh@easy3d@@@easy3d@@UEAAX_K0@Z
	?swap@?$PropertyArray@UEdgeConnectivity@PolyMesh@easy3d@@@easy3d@@UEAAX_K0@Z
	?swap@?$PropertyArray@UElement@io@easy3d@@@easy3d@@UEAAX_K0@Z
	?swap@?$PropertyArray@UFaceConnectivity@SurfaceMesh@easy3d@@@easy3d@@UEAAX_K0@Z
	?swap@?$PropertyArray@UHalfFaceConnectivity@PolyMesh@easy3d@@@easy3d@@UEAAX_K0@Z
	?swap@?$PropertyArray@UHalfedgeConnectivity@SurfaceMesh@easy3d@@@easy3d@@UEAAX_K0@Z
	?swap@?$PropertyArray@UVertexConnectivity@PolyMesh@easy3d@@@easy3d@@UEAAX_K0@Z
	?swap@?$PropertyArray@UVertexConnectivity@SurfaceMesh@easy3d@@@easy3d@@UEAAX_K0@Z
	?swap@?$PropertyArray@V?$Vec@$01M@easy3d@@@easy3d@@UEAAX_K0@Z
	?swap@?$PropertyArray@V?$Vec@$02M@easy3d@@@easy3d@@UEAAX_K0@Z
	?swap@?$PropertyArray@V?$Vec@$02N@easy3d@@@easy3d@@UEAAX_K0@Z
	?swap@?$PropertyArray@V?$vector@HV?$allocator@H@std@@@std@@@easy3d@@UEAAX_K0@Z
	?swap@?$PropertyArray@V?$vector@MV?$allocator@M@std@@@std@@@easy3d@@UEAAX_K0@Z
	?sync@?$basic_filebuf@DU?$char_traits@D@std@@@std@@MEAAHXZ
	?to_string@std@@YA?AV?$basic_string@DU?$char_traits@D@std@@V?$allocator@D@2@@1@H@Z
	?to_string@std@@YA?AV?$basic_string@DU?$char_traits@D@std@@V?$allocator@D@2@@1@_K@Z
	?token_type_name@?$lexer_base@V?$basic_json@Vmap@std@@Vvector@2@V?$basic_string@DU?$char_traits@D@std@@V?$allocator@D@2@@2@_N_J_KNVallocator@2@Uadl_serializer@nlohmann@@V?$vector@EV?$allocator@E@std@@@2@@nlohmann@@@detail@nlohmann@@SAPEBDW4token_type@123@@Z
	?transfer@?$PropertyArray@H@easy3d@@UEAA_NAEBVBasePropertyArray@2@@Z
	?transfer@?$PropertyArray@H@easy3d@@UEAA_NAEBVBasePropertyArray@2@_K1@Z
	?transfer@?$PropertyArray@M@easy3d@@UEAA_NAEBVBasePropertyArray@2@@Z
	?transfer@?$PropertyArray@M@easy3d@@UEAA_NAEBVBasePropertyArray@2@_K1@Z
	?transfer@?$PropertyArray@UCellConnectivity@PolyMesh@easy3d@@@easy3d@@UEAA_NAEBVBasePropertyArray@2@@Z
	?transfer@?$PropertyArray@UCellConnectivity@PolyMesh@easy3d@@@easy3d@@UEAA_NAEBVBasePropertyArray@2@_K1@Z
	?transfer@?$PropertyArray@UEdgeConnectivity@PolyMesh@easy3d@@@easy3d@@UEAA_NAEBVBasePropertyArray@2@@Z
	?transfer@?$PropertyArray@UEdgeConnectivity@PolyMesh@easy3d@@@easy3d@@UEAA_NAEBVBasePropertyArray@2@_K1@Z
	?transfer@?$PropertyArray@UElement@io@easy3d@@@easy3d@@UEAA_NAEBVBasePropertyArray@2@@Z
	?transfer@?$PropertyArray@UElement@io@easy3d@@@easy3d@@UEAA_NAEBVBasePropertyArray@2@_K1@Z
	?transfer@?$PropertyArray@UFaceConnectivity@SurfaceMesh@easy3d@@@easy3d@@UEAA_NAEBVBasePropertyArray@2@@Z
	?transfer@?$PropertyArray@UFaceConnectivity@SurfaceMesh@easy3d@@@easy3d@@UEAA_NAEBVBasePropertyArray@2@_K1@Z
	?transfer@?$PropertyArray@UHalfFaceConnectivity@PolyMesh@easy3d@@@easy3d@@UEAA_NAEBVBasePropertyArray@2@@Z
	?transfer@?$PropertyArray@UHalfFaceConnectivity@PolyMesh@easy3d@@@easy3d@@UEAA_NAEBVBasePropertyArray@2@_K1@Z
	?transfer@?$PropertyArray@UHalfedgeConnectivity@SurfaceMesh@easy3d@@@easy3d@@UEAA_NAEBVBasePropertyArray@2@@Z
	?transfer@?$PropertyArray@UHalfedgeConnectivity@SurfaceMesh@easy3d@@@easy3d@@UEAA_NAEBVBasePropertyArray@2@_K1@Z
	?transfer@?$PropertyArray@UVertexConnectivity@PolyMesh@easy3d@@@easy3d@@UEAA_NAEBVBasePropertyArray@2@@Z
	?transfer@?$PropertyArray@UVertexConnectivity@PolyMesh@easy3d@@@easy3d@@UEAA_NAEBVBasePropertyArray@2@_K1@Z
	?transfer@?$PropertyArray@UVertexConnectivity@SurfaceMesh@easy3d@@@easy3d@@UEAA_NAEBVBasePropertyArray@2@@Z
	?transfer@?$PropertyArray@UVertexConnectivity@SurfaceMesh@easy3d@@@easy3d@@UEAA_NAEBVBasePropertyArray@2@_K1@Z
	?transfer@?$PropertyArray@V?$Vec@$01M@easy3d@@@easy3d@@UEAA_NAEBVBasePropertyArray@2@@Z
	?transfer@?$PropertyArray@V?$Vec@$01M@easy3d@@@easy3d@@UEAA_NAEBVBasePropertyArray@2@_K1@Z
	?transfer@?$PropertyArray@V?$Vec@$02M@easy3d@@@easy3d@@UEAA_NAEBVBasePropertyArray@2@@Z
	?transfer@?$PropertyArray@V?$Vec@$02M@easy3d@@@easy3d@@UEAA_NAEBVBasePropertyArray@2@_K1@Z
	?transfer@?$PropertyArray@V?$Vec@$02N@easy3d@@@easy3d@@UEAA_NAEBVBasePropertyArray@2@@Z
	?transfer@?$PropertyArray@V?$Vec@$02N@easy3d@@@easy3d@@UEAA_NAEBVBasePropertyArray@2@_K1@Z
	?transfer@?$PropertyArray@V?$vector@HV?$allocator@H@std@@@std@@@easy3d@@UEAA_NAEBVBasePropertyArray@2@@Z
	?transfer@?$PropertyArray@V?$vector@HV?$allocator@H@std@@@std@@@easy3d@@UEAA_NAEBVBasePropertyArray@2@_K1@Z
	?transfer@?$PropertyArray@V?$vector@MV?$allocator@M@std@@@std@@@easy3d@@UEAA_NAEBVBasePropertyArray@2@@Z
	?transfer@?$PropertyArray@V?$vector@MV?$allocator@M@std@@@std@@@easy3d@@UEAA_NAEBVBasePropertyArray@2@_K1@Z
	?type@?$PropertyArray@H@easy3d@@UEBAAEBVtype_info@@XZ
	?type@?$PropertyArray@M@easy3d@@UEBAAEBVtype_info@@XZ
	?type@?$PropertyArray@UCellConnectivity@PolyMesh@easy3d@@@easy3d@@UEBAAEBVtype_info@@XZ
	?type@?$PropertyArray@UEdgeConnectivity@PolyMesh@easy3d@@@easy3d@@UEBAAEBVtype_info@@XZ
	?type@?$PropertyArray@UElement@io@easy3d@@@easy3d@@UEBAAEBVtype_info@@XZ
	?type@?$PropertyArray@UFaceConnectivity@SurfaceMesh@easy3d@@@easy3d@@UEBAAEBVtype_info@@XZ
	?type@?$PropertyArray@UHalfFaceConnectivity@PolyMesh@easy3d@@@easy3d@@UEBAAEBVtype_info@@XZ
	?type@?$PropertyArray@UHalfedgeConnectivity@SurfaceMesh@easy3d@@@easy3d@@UEBAAEBVtype_info@@XZ
	?type@?$PropertyArray@UVertexConnectivity@PolyMesh@easy3d@@@easy3d@@UEBAAEBVtype_info@@XZ
	?type@?$PropertyArray@UVertexConnectivity@SurfaceMesh@easy3d@@@easy3d@@UEBAAEBVtype_info@@XZ
	?type@?$PropertyArray@V?$Vec@$01M@easy3d@@@easy3d@@UEBAAEBVtype_info@@XZ
	?type@?$PropertyArray@V?$Vec@$02M@easy3d@@@easy3d@@UEBAAEBVtype_info@@XZ
	?type@?$PropertyArray@V?$Vec@$02N@easy3d@@@easy3d@@UEBAAEBVtype_info@@XZ
	?type@?$PropertyArray@V?$vector@HV?$allocator@H@std@@@std@@@easy3d@@UEBAAEBVtype_info@@XZ
	?type@?$PropertyArray@V?$vector@MV?$allocator@M@std@@@std@@@easy3d@@UEBAAEBVtype_info@@XZ
	?type_name@?$basic_json@Vmap@std@@Vvector@2@V?$basic_string@DU?$char_traits@D@std@@V?$allocator@D@2@@2@_N_J_KNVallocator@2@Uadl_serializer@nlohmann@@V?$vector@EV?$allocator@E@std@@@2@@nlohmann@@QEBAPEBDXZ
	?uflow@?$basic_filebuf@DU?$char_traits@D@std@@@std@@MEAAHXZ
	?underflow@?$basic_filebuf@DU?$char_traits@D@std@@@std@@MEAAHXZ
	?underflow@?$basic_stringbuf@DU?$char_traits@D@std@@V?$allocator@D@2@@std@@MEAAHXZ
	?vertices@PointCloud@easy3d@@QEBA?AVVertexContainer@12@XZ
	?what@exception@detail@nlohmann@@UEBAPEBDXZ
	?what@exception@std@@UEBAPEBDXZ
	?write@PlyWriter@io@easy3d@@SA_NAEBV?$basic_string@DU?$char_traits@D@std@@V?$allocator@D@2@@std@@AEBV?$vector@UElement@io@easy3d@@V?$allocator@UElement@io@easy3d@@@std@@@5@0_N@Z
	?write_ascii_group@PointCloudIO_vg@io@easy3d@@CAXAEAV?$basic_ostream@DU?$char_traits@D@std@@@std@@AEBVVertexGroup@123@@Z
	?write_binary_group@PointCloudIO_vg@io@easy3d@@CAXAEAV?$basic_ostream@DU?$char_traits@D@std@@@std@@AEBVVertexGroup@123@@Z
	?xsgetn@?$basic_filebuf@DU?$char_traits@D@std@@@std@@MEAA_JPEAD_J@Z
	?xsputn@?$basic_filebuf@DU?$char_traits@D@std@@@std@@MEAA_JPEBD_J@Z
	__local_stdio_printf_options
	__local_stdio_scanf_options
	fprintf
	fscanf
	snprintf
	sprintf
	sscanf
	stbi_convert_iphone_png_to_rgb
	stbi_convert_iphone_png_to_rgb_thread
	stbi_failure_reason
	stbi_flip_vertically_on_write
	stbi_hdr_to_ldr_gamma
	stbi_hdr_to_ldr_scale
	stbi_image_free
	stbi_info
	stbi_info_from_callbacks
	stbi_info_from_file
	stbi_info_from_memory
	stbi_is_16_bit
	stbi_is_16_bit_from_callbacks
	stbi_is_16_bit_from_file
	stbi_is_16_bit_from_memory
	stbi_is_hdr
	stbi_is_hdr_from_callbacks
	stbi_is_hdr_from_file
	stbi_is_hdr_from_memory
	stbi_ldr_to_hdr_gamma
	stbi_ldr_to_hdr_scale
	stbi_load
	stbi_load_16
	stbi_load_16_from_callbacks
	stbi_load_16_from_memory
	stbi_load_from_callbacks
	stbi_load_from_file
	stbi_load_from_file_16
	stbi_load_from_memory
	stbi_load_gif_from_memory
	stbi_loadf
	stbi_loadf_from_callbacks
	stbi_loadf_from_file
	stbi_loadf_from_memory
	stbi_set_flip_vertically_on_load
	stbi_set_flip_vertically_on_load_thread
	stbi_set_unpremultiply_on_load
	stbi_write_bmp
	stbi_write_bmp_to_func
	stbi_write_hdr
	stbi_write_hdr_to_func
	stbi_write_jpg
	stbi_write_jpg_to_func
	stbi_write_png
	stbi_write_png_to_func
	stbi_write_png_to_mem
	stbi_write_tga
	stbi_write_tga_to_func
	stbi_zlib_compress
	stbi_zlib_decode_buffer
	stbi_zlib_decode_malloc
	stbi_zlib_decode_malloc_guesssize
	stbi_zlib_decode_malloc_guesssize_headerflag
	stbi_zlib_decode_noheader_buffer
	stbi_zlib_decode_noheader_malloc
