EXPORTS 
	?$TSS0@?1???$_addWeightContribution@$01@?$Octree@M@@IEAAXAEAU?$DensityEstimator@$01@1@PEAV?$OctNode@VTreeNodeData@@@@U?$Point3D@M@@AEAU?$PointSupportKey@$01@@M@Z@4HA 	 DATA
	??_R0?AU?$checked_array_deleter@E@checked_deleters@boost@@@8 	 DATA
	??_R0?AU?$checked_array_deleter@W4default_color_type@boost@@@checked_deleters@boost@@@8 	 DATA
	??_R0?AU?$wrapexcept@Unegative_edge@boost@@@boost@@@8 	 DATA
	??_R0?AUFace@SurfaceMesh@easy3d@@@8 	 DATA
	??_R0?AUHalfedge@SurfaceMesh@easy3d@@@8 	 DATA
	??_R0?AUVertex@SurfaceMesh@easy3d@@@8 	 DATA
	??_R0?AUbad_graph@boost@@@8 	 DATA
	??_R0?AUnegative_edge@boost@@@8 	 DATA
	??_R0?AV<lambda_17731faf86688589c88379bfdd83a964>@@@8 	 DATA
	??_R0?AV<lambda_cbc5b4675dcfc3b66066f18034516e50>@@@8 	 DATA
	??_R0?AV?$CellProperty@N@PolyMesh@easy3d@@@8 	 DATA
	??_R0?AV?$CoredFileMeshData@V?$PlyColorAndValueVertex@M@@@@@8 	 DATA
	??_R0?AV?$CoredMeshData@V?$PlyColorAndValueVertex@M@@@@@8 	 DATA
	??_R0?AV?$EdgeProperty@M@SurfaceMesh@easy3d@@@8 	 DATA
	??_R0?AV?$EdgeProperty@N@SurfaceMesh@easy3d@@@8 	 DATA
	??_R0?AV?$EdgeProperty@V?$Vec@$02M@easy3d@@@SurfaceMesh@easy3d@@@8 	 DATA
	??_R0?AV?$EdgeProperty@V?$Vec@$02N@easy3d@@@SurfaceMesh@easy3d@@@8 	 DATA
	??_R0?AV?$EdgeProperty@_N@SurfaceMesh@easy3d@@@8 	 DATA
	??_R0?AV?$FaceProperty@D@SurfaceMesh@easy3d@@@8 	 DATA
	??_R0?AV?$FaceProperty@E@SurfaceMesh@easy3d@@@8 	 DATA
	??_R0?AV?$FaceProperty@H@SurfaceMesh@easy3d@@@8 	 DATA
	??_R0?AV?$FaceProperty@I@SurfaceMesh@easy3d@@@8 	 DATA
	??_R0?AV?$FaceProperty@M@SurfaceMesh@easy3d@@@8 	 DATA
	??_R0?AV?$FaceProperty@N@SurfaceMesh@easy3d@@@8 	 DATA
	??_R0?AV?$FaceProperty@UFace@SurfaceMesh@easy3d@@@SurfaceMesh@easy3d@@@8 	 DATA
	??_R0?AV?$FaceProperty@UFaceConnectivity@SurfaceMesh@easy3d@@@SurfaceMesh@easy3d@@@8 	 DATA
	??_R0?AV?$FaceProperty@UVertex@SurfaceMesh@easy3d@@@SurfaceMesh@easy3d@@@8 	 DATA
	??_R0?AV?$FaceProperty@V?$Vec@$01M@easy3d@@@SurfaceMesh@easy3d@@@8 	 DATA
	??_R0?AV?$FaceProperty@V?$Vec@$02M@easy3d@@@SurfaceMesh@easy3d@@@8 	 DATA
	??_R0?AV?$FaceProperty@V?$Vec@$02N@easy3d@@@SurfaceMesh@easy3d@@@8 	 DATA
	??_R0?AV?$FaceProperty@V?$vector@V?$Vec@$02M@easy3d@@V?$allocator@V?$Vec@$02M@easy3d@@@std@@@std@@@SurfaceMesh@easy3d@@@8 	 DATA
	??_R0?AV?$FaceProperty@VNormalCone@easy3d@@@SurfaceMesh@easy3d@@@8 	 DATA
	??_R0?AV?$FaceProperty@_K@SurfaceMesh@easy3d@@@8 	 DATA
	??_R0?AV?$FaceProperty@_N@SurfaceMesh@easy3d@@@8 	 DATA
	??_R0?AV?$HalfedgeProperty@UHalfedgeConnectivity@SurfaceMesh@easy3d@@@SurfaceMesh@easy3d@@@8 	 DATA
	??_R0?AV?$HalfedgeProperty@V?$Vec@$01N@easy3d@@@SurfaceMesh@easy3d@@@8 	 DATA
	??_R0?AV?$HalfedgeProperty@_N@SurfaceMesh@easy3d@@@8 	 DATA
	??_R0?AV?$Property@D@easy3d@@@8 	 DATA
	??_R0?AV?$Property@E@easy3d@@@8 	 DATA
	??_R0?AV?$Property@H@easy3d@@@8 	 DATA
	??_R0?AV?$Property@I@easy3d@@@8 	 DATA
	??_R0?AV?$Property@M@easy3d@@@8 	 DATA
	??_R0?AV?$Property@N@easy3d@@@8 	 DATA
	??_R0?AV?$Property@UFace@SurfaceMesh@easy3d@@@easy3d@@@8 	 DATA
	??_R0?AV?$Property@UFaceConnectivity@SurfaceMesh@easy3d@@@easy3d@@@8 	 DATA
	??_R0?AV?$Property@UHalfedge@SurfaceMesh@easy3d@@@easy3d@@@8 	 DATA
	??_R0?AV?$Property@UHalfedgeConnectivity@SurfaceMesh@easy3d@@@easy3d@@@8 	 DATA
	??_R0?AV?$Property@UVertex@SurfaceMesh@easy3d@@@easy3d@@@8 	 DATA
	??_R0?AV?$Property@UVertexConnectivity@SurfaceMesh@easy3d@@@easy3d@@@8 	 DATA
	??_R0?AV?$Property@V?$Vec@$01M@easy3d@@@easy3d@@@8 	 DATA
	??_R0?AV?$Property@V?$Vec@$01N@easy3d@@@easy3d@@@8 	 DATA
	??_R0?AV?$Property@V?$Vec@$02M@easy3d@@@easy3d@@@8 	 DATA
	??_R0?AV?$Property@V?$Vec@$02N@easy3d@@@easy3d@@@8 	 DATA
	??_R0?AV?$Property@V?$vector@V?$Vec@$02M@easy3d@@V?$allocator@V?$Vec@$02M@easy3d@@@std@@@std@@@easy3d@@@8 	 DATA
	??_R0?AV?$Property@VNormalCone@easy3d@@@easy3d@@@8 	 DATA
	??_R0?AV?$Property@VQuadric@easy3d@@@easy3d@@@8 	 DATA
	??_R0?AV?$Property@_K@easy3d@@@8 	 DATA
	??_R0?AV?$Property@_N@easy3d@@@8 	 DATA
	??_R0?AV?$PropertyArray@D@easy3d@@@8 	 DATA
	??_R0?AV?$PropertyArray@E@easy3d@@@8 	 DATA
	??_R0?AV?$PropertyArray@H@easy3d@@@8 	 DATA
	??_R0?AV?$PropertyArray@I@easy3d@@@8 	 DATA
	??_R0?AV?$PropertyArray@M@easy3d@@@8 	 DATA
	??_R0?AV?$PropertyArray@N@easy3d@@@8 	 DATA
	??_R0?AV?$PropertyArray@UFace@SurfaceMesh@easy3d@@@easy3d@@@8 	 DATA
	??_R0?AV?$PropertyArray@UHalfedge@SurfaceMesh@easy3d@@@easy3d@@@8 	 DATA
	??_R0?AV?$PropertyArray@UVertex@SurfaceMesh@easy3d@@@easy3d@@@8 	 DATA
	??_R0?AV?$PropertyArray@V?$Vec@$01M@easy3d@@@easy3d@@@8 	 DATA
	??_R0?AV?$PropertyArray@V?$Vec@$01N@easy3d@@@easy3d@@@8 	 DATA
	??_R0?AV?$PropertyArray@V?$Vec@$02M@easy3d@@@easy3d@@@8 	 DATA
	??_R0?AV?$PropertyArray@V?$Vec@$02N@easy3d@@@easy3d@@@8 	 DATA
	??_R0?AV?$PropertyArray@V?$vector@V?$Vec@$02M@easy3d@@V?$allocator@V?$Vec@$02M@easy3d@@@std@@@std@@@easy3d@@@8 	 DATA
	??_R0?AV?$PropertyArray@VNormalCone@easy3d@@@easy3d@@@8 	 DATA
	??_R0?AV?$PropertyArray@VQuadric@easy3d@@@easy3d@@@8 	 DATA
	??_R0?AV?$PropertyArray@_K@easy3d@@@8 	 DATA
	??_R0?AV?$PropertyArray@_N@easy3d@@@8 	 DATA
	??_R0?AV?$Vec@$01M@easy3d@@@8 	 DATA
	??_R0?AV?$Vec@$01N@easy3d@@@8 	 DATA
	??_R0?AV?$Vec@$02M@easy3d@@@8 	 DATA
	??_R0?AV?$Vec@$02N@easy3d@@@8 	 DATA
	??_R0?AV?$VertexProperty@D@SurfaceMesh@easy3d@@@8 	 DATA
	??_R0?AV?$VertexProperty@E@SurfaceMesh@easy3d@@@8 	 DATA
	??_R0?AV?$VertexProperty@H@PointCloud@easy3d@@@8 	 DATA
	??_R0?AV?$VertexProperty@H@SurfaceMesh@easy3d@@@8 	 DATA
	??_R0?AV?$VertexProperty@I@SurfaceMesh@easy3d@@@8 	 DATA
	??_R0?AV?$VertexProperty@M@PointCloud@easy3d@@@8 	 DATA
	??_R0?AV?$VertexProperty@M@SurfaceMesh@easy3d@@@8 	 DATA
	??_R0?AV?$VertexProperty@N@SurfaceMesh@easy3d@@@8 	 DATA
	??_R0?AV?$VertexProperty@UHalfedge@SurfaceMesh@easy3d@@@SurfaceMesh@easy3d@@@8 	 DATA
	??_R0?AV?$VertexProperty@UVertex@SurfaceMesh@easy3d@@@SurfaceMesh@easy3d@@@8 	 DATA
	??_R0?AV?$VertexProperty@UVertexConnectivity@SurfaceMesh@easy3d@@@SurfaceMesh@easy3d@@@8 	 DATA
	??_R0?AV?$VertexProperty@V?$Vec@$01M@easy3d@@@SurfaceMesh@easy3d@@@8 	 DATA
	??_R0?AV?$VertexProperty@V?$Vec@$02M@easy3d@@@PointCloud@easy3d@@@8 	 DATA
	??_R0?AV?$VertexProperty@V?$Vec@$02M@easy3d@@@SurfaceMesh@easy3d@@@8 	 DATA
	??_R0?AV?$VertexProperty@VQuadric@easy3d@@@SurfaceMesh@easy3d@@@8 	 DATA
	??_R0?AV?$VertexProperty@_K@PointCloud@easy3d@@@8 	 DATA
	??_R0?AV?$VertexProperty@_K@SurfaceMesh@easy3d@@@8 	 DATA
	??_R0?AV?$VertexProperty@_N@SurfaceMesh@easy3d@@@8 	 DATA
	??_R0?AV?$_Func_base@PEAV?$OctNode@VTreeNodeData@@@@PEAV1@AEAHPEAH@std@@@8 	 DATA
	??_R0?AV?$_Func_base@U?$ProjectiveData@U?$OrientedPoint3D@M@@M@@PEAV?$OctNode@VTreeNodeData@@@@@std@@@8 	 DATA
	??_R0?AV?$_Func_base@XV?$edge_desc_impl@Udirected_tag@boost@@_K@detail@boost@@AEAVMST_Graph@internal@easy3d@@@std@@@8 	 DATA
	??_R0?AV?$_Func_impl_no_alloc@P6AXV?$edge_desc_impl@Udirected_tag@boost@@_K@detail@boost@@AEAVMST_Graph@internal@easy3d@@@ZXV123@AEAV456@@std@@@8 	 DATA
	??_R0?AV?$_Func_impl_no_alloc@V<lambda_17731faf86688589c88379bfdd83a964>@@PEAV?$OctNode@VTreeNodeData@@@@PEAV2@AEAHPEAH@std@@@8 	 DATA
	??_R0?AV?$_Func_impl_no_alloc@V<lambda_cbc5b4675dcfc3b66066f18034516e50>@@U?$ProjectiveData@U?$OrientedPoint3D@M@@M@@PEAV?$OctNode@VTreeNodeData@@@@@std@@@8 	 DATA
	??_R0?AV?$_Iosb@H@std@@@8 	 DATA
	??_R0?AV?$basic_ios@DU?$char_traits@D@std@@@std@@@8 	 DATA
	??_R0?AV?$basic_ostream@DU?$char_traits@D@std@@@std@@@8 	 DATA
	??_R0?AV?$basic_ostringstream@DU?$char_traits@D@std@@V?$allocator@D@2@@std@@@8 	 DATA
	??_R0?AV?$basic_streambuf@DU?$char_traits@D@std@@@std@@@8 	 DATA
	??_R0?AV?$basic_stringbuf@DU?$char_traits@D@std@@V?$allocator@D@2@@std@@@8 	 DATA
	??_R0?AV?$sp_counted_impl_pd@PEAEU?$checked_array_deleter@E@checked_deleters@boost@@@detail@boost@@@8 	 DATA
	??_R0?AV?$sp_counted_impl_pd@PEAW4default_color_type@boost@@U?$checked_array_deleter@W4default_color_type@boost@@@checked_deleters@2@@detail@boost@@@8 	 DATA
	??_R0?AV?$vector@V?$Vec@$02M@easy3d@@V?$allocator@V?$Vec@$02M@easy3d@@@std@@@std@@@8 	 DATA
	??_R0?AVBasePropertyArray@easy3d@@@8 	 DATA
	??_R0?AVConePrimitiveShapeConstructor@@@8 	 DATA
	??_R0?AVCylinderPrimitiveShape@@@8 	 DATA
	??_R0?AVCylinderPrimitiveShapeConstructor@@@8 	 DATA
	??_R0?AVDelaunay2@easy3d@@@8 	 DATA
	??_R0?AVDelaunay3@easy3d@@@8 	 DATA
	??_R0?AVDelaunay@easy3d@@@8 	 DATA
	??_R0?AVModel@easy3d@@@8 	 DATA
	??_R0?AVNoCopy@base@el@@@8 	 DATA
	??_R0?AVNormalCone@easy3d@@@8 	 DATA
	??_R0?AVPlanePrimitiveShape@@@8 	 DATA
	??_R0?AVPlanePrimitiveShapeConstructor@@@8 	 DATA
	??_R0?AVPrimitiveShape@@@8 	 DATA
	??_R0?AVPrimitiveShapeConstructor@@@8 	 DATA
	??_R0?AVPropertyContainer@easy3d@@@8 	 DATA
	??_R0?AVQuadric@easy3d@@@8 	 DATA
	??_R0?AVRefCount@MiscLib@@@8 	 DATA
	??_R0?AVSurfaceMesh@easy3d@@@8 	 DATA
	??_R0?AVSurfaceMeshStitching@easy3d@@@8 	 DATA
	??_R0?AVTorusPrimitiveShapeConstructor@@@8 	 DATA
	??_R0?AVWriter@base@el@@@8 	 DATA
	??_R0?AVbad_alloc@std@@@8 	 DATA
	??_R0?AVbad_array_new_length@std@@@8 	 DATA
	??_R0?AVclone_base@exception_detail@boost@@@8 	 DATA
	??_R0?AVexception@boost@@@8 	 DATA
	??_R0?AVexception@std@@@8 	 DATA
	??_R0?AVinvalid_argument@std@@@8 	 DATA
	??_R0?AVios_base@std@@@8 	 DATA
	??_R0?AVlogic_error@std@@@8 	 DATA
	??_R0?AVruntime_error@std@@@8 	 DATA
	??_R0?AVsp_counted_base@detail@boost@@@8 	 DATA
	??_R0D@8 	 DATA
	??_R0E@8 	 DATA
	??_R0H@8 	 DATA
	??_R0I@8 	 DATA
	??_R0M@8 	 DATA
	??_R0N@8 	 DATA
	??_R0P6AXV?$edge_desc_impl@Udirected_tag@boost@@_K@detail@boost@@AEAVMST_Graph@internal@easy3d@@@Z@8 	 DATA
	??_R0_K@8 	 DATA
	??_R0_N@8 	 DATA
	?BoundaryNames@@3PAPEBDA 	 DATA
	?In@@3VcmdLineString@@A 	 DATA
	?IslandAreaRatio@@3VcmdLineFloat@@A 	 DATA
	?NodeAllocator@?$OctNode@VTreeNodeData@@@@2V?$Allocator@V?$OctNode@VTreeNodeData@@@@@@A 	 DATA
	?OffsetShift1@?$OctNode@VTreeNodeData@@@@2HB 	 DATA
	?OffsetShift2@?$OctNode@VTreeNodeData@@@@2HB 	 DATA
	?Out@@3VcmdLineString@@A 	 DATA
	?PolygonMesh@@3VcmdLineReadable@@A 	 DATA
	?ScaleValue@?1???$_addWeightContribution@$01@?$Octree@M@@IEAAXAEAU?$DensityEstimator@$01@1@PEAV?$OctNode@VTreeNodeData@@@@U?$Point3D@M@@AEAU?$PointSupportKey@$01@@M@Z@4NB 	 DATA
	?Smooth@@3VcmdLineInt@@A 	 DATA
	?Trim@@3VcmdLineFloat@@A 	 DATA
	?UseAlloc@?$OctNode@VTreeNodeData@@@@0HA 	 DATA
	?_NodeCount@?$Octree@M@@0HA 	 DATA
	?_OptionsStorage@?1??__local_stdio_printf_options@@9@4_KA 	 DATA
	?facet_vertex_@Delaunay3@easy3d@@1PAY02IA 	 DATA
	?next_around_halfedge_@Delaunay3@easy3d@@1PAY03IA 	 DATA
	?params@@3PAPEAVcmdLineReadable@@A 	 DATA
	??$?0PEAEU?$checked_array_deleter@E@checked_deleters@boost@@@shared_count@detail@boost@@QEAA@PEAEU?$checked_array_deleter@E@checked_deleters@2@@Z
	??$?0PEAW4default_color_type@boost@@U?$checked_array_deleter@W4default_color_type@boost@@@checked_deleters@1@@shared_count@detail@boost@@QEAA@PEAW4default_color_type@2@U?$checked_array_deleter@W4default_color_type@boost@@@checked_deleters@2@@Z
	??$?0V?$adjacency_list@UvecS@boost@@U12@UdirectedS@2@UMST_VertexProperty@internal@easy3d@@Uno_property@2@U72@UlistS@2@@boost@@@?$adj_list_edge_iterator@V?$integer_iterator@_K@range_detail@boost@@U?$out_edge_iter@V?$_Vector_iterator@V?$_Vector_val@U?$_Simple_types@V?$stored_edge_property@_KUno_property@boost@@@detail@boost@@@std@@@std@@@std@@_KV?$edge_desc_impl@Udirected_tag@boost@@_K@detail@boost@@_J@detail@3@V?$adjacency_list@UvecS@boost@@U12@UdirectedS@2@UMST_VertexProperty@internal@easy3d@@Uno_property@2@U72@UlistS@2@@3@@detail@boost@@QEAA@V?$integer_iterator@_K@range_detail@2@00AEBV?$adjacency_list@UvecS@boost@@U12@UdirectedS@2@UMST_VertexProperty@internal@easy3d@@Uno_property@2@U72@UlistS@2@@2@@Z
	??$?4$00@?$Polynomial@$01@@QEAAAEAV0@AEBV?$Polynomial@$00@@@Z
	??$?4$0A@@?$Polynomial@$00@@QEAAAEAV0@AEBV?$Polynomial@$0A@@@@Z
	??$?4V?$CwiseBinaryOp@U?$scalar_sum_op@NN@internal@Eigen@@$$CBV?$SparseMatrix@N$0A@H@3@$$CBV43@@Eigen@@@?$SparseMatrix@N$0A@H@Eigen@@QEAAAEAV01@AEBV?$SparseMatrixBase@V?$CwiseBinaryOp@U?$scalar_sum_op@NN@internal@Eigen@@$$CBV?$SparseMatrix@N$0A@H@3@$$CBV43@@Eigen@@@1@@Z
	??$?4V?$SparseMatrix@N$00H@Eigen@@@?$SparseMatrix@N$0A@H@Eigen@@QEAAAEAV01@AEBV?$SparseMatrixBase@V?$SparseMatrix@N$00H@Eigen@@@1@@Z
	??$?4V?$SparseSelfAdjointView@$$CBV?$SparseMatrix@N$0A@H@Eigen@@$00@Eigen@@@?$SparseMatrixBase@V?$SparseMatrix@N$0A@H@Eigen@@@Eigen@@QEAAAEAV?$SparseMatrix@N$0A@H@1@AEBU?$EigenBase@V?$SparseSelfAdjointView@$$CBV?$SparseMatrix@N$0A@H@Eigen@@$00@Eigen@@@1@@Z
	??$?4V?$Transpose@$$CBV?$SparseMatrix@N$0A@H@Eigen@@@Eigen@@@?$SparseMatrix@N$0A@H@Eigen@@QEAAAEAV01@AEBV?$SparseMatrixBase@V?$Transpose@$$CBV?$SparseMatrix@N$0A@H@Eigen@@@Eigen@@@1@@Z
	??$?6$$BY01D@Writer@base@el@@QEAAAEAV012@AEAY01$$CBD@Z
	??$?6$$BY02D@Writer@base@el@@QEAAAEAV012@AEAY02$$CBD@Z
	??$?6$$BY03D@Writer@base@el@@QEAAAEAV012@AEAY03$$CBD@Z
	??$?6$$BY05D@Writer@base@el@@QEAAAEAV012@AEAY05$$CBD@Z
	??$?6$$BY06D@Writer@base@el@@QEAAAEAV012@AEAY06$$CBD@Z
	??$?6$$BY0BA@D@Writer@base@el@@QEAAAEAV012@AEAY0BA@$$CBD@Z
	??$?6$$BY0BE@D@Writer@base@el@@QEAAAEAV012@AEAY0BE@$$CBD@Z
	??$?6$$BY0BG@D@Writer@base@el@@QEAAAEAV012@AEAY0BG@$$CBD@Z
	??$?6$$BY0BI@D@Writer@base@el@@QEAAAEAV012@AEAY0BI@$$CBD@Z
	??$?6$$BY0BK@D@Writer@base@el@@QEAAAEAV012@AEAY0BK@$$CBD@Z
	??$?6$$BY0BN@D@Writer@base@el@@QEAAAEAV012@AEAY0BN@$$CBD@Z
	??$?6$$BY0CE@D@Writer@base@el@@QEAAAEAV012@AEAY0CE@$$CBD@Z
	??$?6$$BY0CH@D@Writer@base@el@@QEAAAEAV012@AEAY0CH@$$CBD@Z
	??$?6$$BY0CN@D@Writer@base@el@@QEAAAEAV012@AEAY0CN@$$CBD@Z
	??$?6$$BY0DK@D@Writer@base@el@@QEAAAEAV012@AEAY0DK@$$CBD@Z
	??$?6$$BY0P@D@Writer@base@el@@QEAAAEAV012@AEAY0P@$$CBD@Z
	??$?6H@Writer@base@el@@QEAAAEAV012@AEBH@Z
	??$?6N@Writer@base@el@@QEAAAEAV012@AEBN@Z
	??$?6PEBD@Writer@base@el@@QEAAAEAV012@AEBQEBD@Z
	??$?6U?$char_traits@D@std@@@std@@YAAEAV?$basic_ostream@DU?$char_traits@D@std@@@0@AEAV10@D@Z
	??$?6U?$char_traits@D@std@@@std@@YAAEAV?$basic_ostream@DU?$char_traits@D@std@@@0@AEAV10@PEBD@Z
	??$?6V?$Vec@$02M@easy3d@@@Writer@base@el@@QEAAAEAV012@AEBV?$Vec@$02M@easy3d@@@Z
	??$?6V?$basic_string@DU?$char_traits@D@std@@V?$allocator@D@2@@std@@@Writer@base@el@@QEAAAEAV012@AEBV?$basic_string@DU?$char_traits@D@std@@V?$allocator@D@2@@std@@@Z
	??$?D$00@?$Polynomial@$00@@QEBA?AV?$Polynomial@$01@@AEBV0@@Z
	??$?D$00@?$Polynomial@$01@@QEBA?AV?$Polynomial@$02@@AEBV?$Polynomial@$00@@@Z
	??$?D$00@?$Polynomial@$0A@@@QEBA?AV?$Polynomial@$00@@AEBV1@@Z
	??$?D$01@?$Polynomial@$00@@QEBA?AV?$Polynomial@$02@@AEBV?$Polynomial@$01@@@Z
	??$?D$01@?$Polynomial@$01@@QEBA?AV?$Polynomial@$03@@AEBV0@@Z
	??$?D$01@?$Polynomial@$0A@@@QEBA?AV?$Polynomial@$01@@AEBV1@@Z
	??$?D$0A@@?$Polynomial@$00@@QEBA?AV0@AEBV?$Polynomial@$0A@@@@Z
	??$?D$0A@@?$Polynomial@$01@@QEBA?AV0@AEBV?$Polynomial@$0A@@@@Z
	??$?D$0A@@?$Polynomial@$0A@@@QEBA?AV0@AEBV0@@Z
	??$?DV?$PermutationMatrix@$0?0$0?0H@Eigen@@V?$Matrix@N$0?0$00$0A@$0?0$00@1@@Eigen@@YA?BV?$Product@V?$PermutationMatrix@$0?0$0?0H@Eigen@@V?$Matrix@N$0?0$00$0A@$0?0$00@2@$01@0@AEBV?$PermutationBase@V?$PermutationMatrix@$0?0$0?0H@Eigen@@@0@AEBV?$MatrixBase@V?$Matrix@N$0?0$00$0A@$0?0$00@Eigen@@@0@@Z
	??$?DV?$PermutationMatrix@$0?0$0?0H@Eigen@@V?$Matrix@N$0?0$0?0$0A@$0?0$0?0@1@@Eigen@@YA?BV?$Product@V?$PermutationMatrix@$0?0$0?0H@Eigen@@V?$Matrix@N$0?0$0?0$0A@$0?0$0?0@2@$01@0@AEBV?$PermutationBase@V?$PermutationMatrix@$0?0$0?0H@Eigen@@@0@AEBV?$MatrixBase@V?$Matrix@N$0?0$0?0$0A@$0?0$0?0@Eigen@@@0@@Z
	??$?RV?$SparseMatrix@N$0A@H@Eigen@@@?$AMDOrdering@H@Eigen@@QEAAXAEBV?$SparseMatrix@N$0A@H@1@AEAV?$PermutationMatrix@$0?0$0?0H@1@@Z
	??$AllocPointer@D@@YAPEAD_KPEBD@Z
	??$AllocPointer@H@@YAPEAH_KPEBD@Z
	??$AllocPointer@M@@YAPEAM_KPEBD@Z
	??$AllocPointer@PEAH@@YAPEAPEAH_KPEBD@Z
	??$AllocPointer@PEAU?$MatrixEntry@M@@@@YAPEAPEAU?$MatrixEntry@M@@_KPEBD@Z
	??$AllocPointer@U?$MatrixEntry@M@@@@YAPEAU?$MatrixEntry@M@@_KPEBD@Z
	??$AllocPointer@U?$Point3D@M@@@@YAPEAU?$Point3D@M@@_KPEBD@Z
	??$AllocPointer@U_FaceEdges@?$Octree@M@@@@YAPEAU_FaceEdges@?$Octree@M@@_KPEBD@Z
	??$AllocPointer@V?$StartingPolynomial@$0A@@@@@YAPEAV?$StartingPolynomial@$0A@@@_KPEBD@Z
	??$AllocPointer@_J@@YAPEA_J_KPEBD@Z
	??$CornerIndex@M@?$OctNode@VTreeNodeData@@@@SAHAEBU?$Point3D@M@@0@Z
	??$CrossProduct@M@@YAXAEBU?$Point3D@M@@0AEAU0@@Z
	??$Dot@$00$00@?$BSplineIntegrationData@$01$01$01$01@@SANHHHH@Z
	??$Dot@$00$01@?$BSplineIntegrationData@$01$01$01$01@@SANHHHH@Z
	??$Dot@$00$0A@@?$BSplineIntegrationData@$01$01$01$01@@SANHHHH@Z
	??$Dot@$01$00@?$BSplineIntegrationData@$01$01$01$01@@SANHHHH@Z
	??$Dot@$01$01@?$BSplineIntegrationData@$01$01$01$01@@SANHHHH@Z
	??$Dot@$01$0A@@?$BSplineIntegrationData@$01$01$01$01@@SANHHHH@Z
	??$Dot@$0A@$00@?$BSplineIntegrationData@$01$01$01$01@@SANHHHH@Z
	??$Dot@$0A@$01@?$BSplineIntegrationData@$01$01$01$01@@SANHHHH@Z
	??$Dot@$0A@$0A@@?$BSplineIntegrationData@$01$01$01$01@@SANHHHH@Z
	??$GetPointer@M@@YAPEAMPEAMH@Z
	??$GetScaleValue@$01@@YANXZ
	??$InterpolateVertices@MV?$PlyColorAndValueVertex@M@@@@YA?AV?$PlyColorAndValueVertex@M@@AEBV0@0M@Z
	??$Length@M@@YANAEBU?$Point3D@M@@@Z
	??$Multiply@M@?$SparseMatrix@M@@QEBAXPEBMPEAMH@Z
	??$MultiplyAndAddAverage@M@?$SparseMatrix@M@@QEBAXPEBMPEAMH@Z
	??$NewPointer@H@@YAPEAH_KPEBD@Z
	??$NewPointer@M@@YAPEAM_KPEBD@Z
	??$NewPointer@N@@YAPEAN_KPEBD@Z
	??$NewPointer@PEAV?$OctNode@VTreeNodeData@@@@@@YAPEAPEAV?$OctNode@VTreeNodeData@@@@_KPEBD@Z
	??$NewPointer@U?$Point3D@M@@@@YAPEAU?$Point3D@M@@_KPEBD@Z
	??$NewPointer@U?$Point3D@N@@@@YAPEAU?$Point3D@N@@_KPEBD@Z
	??$NewPointer@U?$_Indices@$00@SortedTreeNodes@@@@YAPEAU?$_Indices@$00@SortedTreeNodes@@_KPEBD@Z
	??$NewPointer@U?$_Indices@$03@SortedTreeNodes@@@@YAPEAU?$_Indices@$03@SortedTreeNodes@@_KPEBD@Z
	??$NewPointer@UBSplineComponents@?$BSplineEvaluationData@$00$01@@@@YAPEAUBSplineComponents@?$BSplineEvaluationData@$00$01@@_KPEBD@Z
	??$NewPointer@UBSplineComponents@?$BSplineEvaluationData@$01$01@@@@YAPEAUBSplineComponents@?$BSplineEvaluationData@$01$01@@_KPEBD@Z
	??$NullaryExpr@U?$scalar_constant_op@H@internal@Eigen@@@?$DenseBase@V?$Map@V?$Matrix@H$0?0$00$0A@$0?0$00@Eigen@@$0A@V?$Stride@$0A@$0A@@2@@Eigen@@@Eigen@@SA?BV?$CwiseNullaryOp@U?$scalar_constant_op@H@internal@Eigen@@V?$Matrix@H$0?0$00$0A@$0?0$00@3@@1@_J0AEBU?$scalar_constant_op@H@internal@1@@Z
	??$NullaryExpr@U?$scalar_constant_op@H@internal@Eigen@@@?$DenseBase@V?$Matrix@H$0?0$00$0A@$0?0$00@Eigen@@@Eigen@@SA?BV?$CwiseNullaryOp@U?$scalar_constant_op@H@internal@Eigen@@V?$Matrix@H$0?0$00$0A@$0?0$00@3@@1@_J0AEBU?$scalar_constant_op@H@internal@1@@Z
	??$NullaryExpr@U?$scalar_constant_op@N@internal@Eigen@@@?$DenseBase@V?$Matrix@N$0?0$00$0A@$0?0$00@Eigen@@@Eigen@@SA?BV?$CwiseNullaryOp@U?$scalar_constant_op@N@internal@Eigen@@V?$Matrix@N$0?0$00$0A@$0?0$00@3@@1@_JAEBU?$scalar_constant_op@N@internal@1@@Z
	??$NullaryExpr@U?$scalar_constant_op@_N@internal@Eigen@@@?$DenseBase@V?$Matrix@_N$0?0$00$0A@$0?0$00@Eigen@@@Eigen@@SA?BV?$CwiseNullaryOp@U?$scalar_constant_op@_N@internal@Eigen@@V?$Matrix@_N$0?0$00$0A@$0?0$00@3@@1@_J0AEBU?$scalar_constant_op@_N@internal@1@@Z
	??$PolygonArea@MV?$PlyColorAndValueVertex@M@@@@YANAEBV?$vector@V?$PlyColorAndValueVertex@M@@V?$allocator@V?$PlyColorAndValueVertex@M@@@std@@@std@@AEBV?$vector@HV?$allocator@H@std@@@1@@Z
	??$RemoveHangingVertices@V?$PlyColorAndValueVertex@M@@@@YAXAEAV?$vector@V?$PlyColorAndValueVertex@M@@V?$allocator@V?$PlyColorAndValueVertex@M@@@std@@@std@@AEAV?$vector@V?$vector@HV?$allocator@H@std@@@std@@V?$allocator@V?$vector@HV?$allocator@H@std@@@std@@@2@@1@@Z
	??$Reset@M@@YAXXZ
	??$SetBSplineElementIntegrals@$00$00@@YAXQEAY01N@Z
	??$SetBSplineElementIntegrals@$00$01@@YAXQEAY02N@Z
	??$SetBSplineElementIntegrals@$00$0A@@@YAXQEAY00N@Z
	??$SetBSplineElementIntegrals@$01$00@@YAXQEAY01N@Z
	??$SetBSplineElementIntegrals@$01$01@@YAXQEAY02N@Z
	??$SetBSplineElementIntegrals@$01$0A@@@YAXQEAY00N@Z
	??$SetBSplineElementIntegrals@$0A@$00@@YAXQEAY01N@Z
	??$SetBSplineElementIntegrals@$0A@$01@@YAXQEAY02N@Z
	??$SetBSplineElementIntegrals@$0A@$0A@@@YAXQEAY00N@Z
	??$SetCentralConstraintStencil@$0A@U?$FEMVFConstraintFunctor@$01$01$01$01@@@?$SystemCoefficients@$01$01$01$01@@SAXAEBU?$FEMVFConstraintFunctor@$01$01$01$01@@AEBU?$Integrator@$01$01@FunctionIntegrator@?$BSplineIntegrationData@$01$01$01$01@@AEAU?$Stencil@U?$Point3D@N@@$04@@@Z
	??$SetCentralConstraintStencils@$00U?$FEMVFConstraintFunctor@$01$01$01$01@@@?$SystemCoefficients@$01$01$01$01@@SAXAEBU?$FEMVFConstraintFunctor@$01$01$01$01@@AEBU?$ChildIntegrator@$01$01@FunctionIntegrator@?$BSplineIntegrationData@$01$01$01$01@@QEAY111U?$Stencil@U?$Point3D@N@@$04@@@Z
	??$SetCentralConstraintStencils@$0A@U?$FEMVFConstraintFunctor@$01$01$01$01@@@?$SystemCoefficients@$01$01$01$01@@SAXAEBU?$FEMVFConstraintFunctor@$01$01$01$01@@AEBU?$ChildIntegrator@$01$01@FunctionIntegrator@?$BSplineIntegrationData@$01$01$01$01@@QEAY111U?$Stencil@U?$Point3D@N@@$04@@@Z
	??$SetCentralSystemStencil@U?$FEMSystemFunctor@$01$01@@@?$SystemCoefficients@$01$01$01$01@@SAXAEBU?$FEMSystemFunctor@$01$01@@AEBU?$Integrator@$01$01@FunctionIntegrator@?$BSplineIntegrationData@$01$01$01$01@@AEAU?$Stencil@N$04@@@Z
	??$SetCentralSystemStencils@U?$FEMSystemFunctor@$01$01@@@?$SystemCoefficients@$01$01$01$01@@SAXAEBU?$FEMSystemFunctor@$01$01@@AEBU?$ChildIntegrator@$01$01@FunctionIntegrator@?$BSplineIntegrationData@$01$01$01$01@@QEAY111U?$Stencil@N$04@@@Z
	??$SetChildIntegrator@$01$01@?$BSplineIntegrationData@$01$01$01$01@@SAXAEAU?$ChildIntegrator@$01$01@FunctionIntegrator@0@H@Z
	??$SetColor@M@@YAXAEAU?$Point3D@M@@QEAE@Z
	??$SetIntegrator@$01$01@?$BSplineIntegrationData@$01$01$01$01@@SAXAEAU?$Integrator@$01$01@FunctionIntegrator@0@H@Z
	??$SetIsoVertex@M@@YAXAEAV?$PlyColorAndValueVertex@M@@U?$Point3D@M@@M@Z
	??$SmoothValues@MV?$PlyColorAndValueVertex@M@@@@YAXAEAV?$vector@V?$PlyColorAndValueVertex@M@@V?$allocator@V?$PlyColorAndValueVertex@M@@@std@@@std@@AEBV?$vector@V?$vector@HV?$allocator@H@std@@@std@@V?$allocator@V?$vector@HV?$allocator@H@std@@@std@@@2@@1@@Z
	??$SolveCG@M@?$SparseMatrix@M@@SAHAEBV0@PEBMHPEAMMH_N3H@Z
	??$SolveGS@M@?$SparseMatrix@M@@SAHAEBV?$vector@V?$vector@HV?$allocator@H@std@@@std@@V?$allocator@V?$vector@HV?$allocator@H@std@@@std@@@2@@std@@AEBV0@PEBMPEAM_NH@Z
	??$SplitPolygon@MV?$PlyColorAndValueVertex@M@@@@YAXAEBV?$vector@HV?$allocator@H@std@@@std@@AEAV?$vector@V?$PlyColorAndValueVertex@M@@V?$allocator@V?$PlyColorAndValueVertex@M@@@std@@@1@PEAV?$vector@V?$vector@HV?$allocator@H@std@@@std@@V?$allocator@V?$vector@HV?$allocator@H@std@@@std@@@2@@1@2PEAV?$vector@_NV?$allocator@_N@std@@@1@3AEAV?$unordered_map@_JHU?$hash@_J@std@@U?$equal_to@_J@2@V?$allocator@U?$pair@$$CB_JH@std@@@2@@1@M@Z
	??$SquareLength@M@@YANAEBU?$Point3D@M@@@Z
	??$TriangleArea@M@@YANU?$Point3D@M@@00@Z
	??$Triangulate@MV?$PlyColorAndValueVertex@M@@@@YAXAEBV?$vector@V?$PlyColorAndValueVertex@M@@V?$allocator@V?$PlyColorAndValueVertex@M@@@std@@@std@@AEBV?$vector@V?$vector@HV?$allocator@H@std@@@std@@V?$allocator@V?$vector@HV?$allocator@H@std@@@std@@@2@@1@AEAV21@@Z
	??$_Allocate@$0BA@U_Default_allocate_traits@std@@$0A@@std@@YAPEAX_K@Z
	??$_Allocate_manually_vector_aligned@U_Default_allocate_traits@std@@@std@@YAPEAX_K@Z
	??$_Assign_counted_range@PEAH@?$vector@HV?$allocator@H@std@@@std@@AEAAXPEAH_K@Z
	??$_Assign_counted_range@PEAI@?$vector@IV?$allocator@I@std@@@std@@AEAAXPEAI_K@Z
	??$_Assign_counted_range@PEAM@?$vector@MV?$allocator@M@std@@@std@@AEAAXPEAM_K@Z
	??$_Assign_counted_range@PEAN@?$vector@NV?$allocator@N@std@@@std@@AEAAXPEAN_K@Z
	??$_Assign_counted_range@PEAUFace@SurfaceMesh@easy3d@@@?$vector@UFace@SurfaceMesh@easy3d@@V?$allocator@UFace@SurfaceMesh@easy3d@@@std@@@std@@AEAAXPEAUFace@SurfaceMesh@easy3d@@_K@Z
	??$_Assign_counted_range@PEAUHalfedge@SurfaceMesh@easy3d@@@?$vector@UHalfedge@SurfaceMesh@easy3d@@V?$allocator@UHalfedge@SurfaceMesh@easy3d@@@std@@@std@@AEAAXPEAUHalfedge@SurfaceMesh@easy3d@@_K@Z
	??$_Assign_counted_range@PEAUVertex@SurfaceMesh@easy3d@@@?$vector@UVertex@SurfaceMesh@easy3d@@V?$allocator@UVertex@SurfaceMesh@easy3d@@@std@@@std@@AEAAXPEAUVertex@SurfaceMesh@easy3d@@_K@Z
	??$_Assign_counted_range@PEAU_IsoEdge@?$Octree@M@@@?$vector@U_IsoEdge@?$Octree@M@@V?$allocator@U_IsoEdge@?$Octree@M@@@std@@@std@@AEAAXPEAU_IsoEdge@?$Octree@M@@_K@Z
	??$_Assign_counted_range@PEAV?$PlyColorAndValueVertex@M@@@?$vector@V?$PlyColorAndValueVertex@M@@V?$allocator@V?$PlyColorAndValueVertex@M@@@std@@@std@@AEAAXPEAV?$PlyColorAndValueVertex@M@@_K@Z
	??$_Assign_counted_range@PEAV?$Vec@$01M@easy3d@@@?$vector@V?$Vec@$01M@easy3d@@V?$allocator@V?$Vec@$01M@easy3d@@@std@@@std@@AEAAXPEAV?$Vec@$01M@easy3d@@_K@Z
	??$_Assign_counted_range@PEAV?$Vec@$01N@easy3d@@@?$vector@V?$Vec@$01N@easy3d@@V?$allocator@V?$Vec@$01N@easy3d@@@std@@@std@@AEAAXPEAV?$Vec@$01N@easy3d@@_K@Z
	??$_Assign_counted_range@PEAV?$Vec@$02M@easy3d@@@?$vector@V?$Vec@$02M@easy3d@@V?$allocator@V?$Vec@$02M@easy3d@@@std@@@std@@AEAAXPEAV?$Vec@$02M@easy3d@@_K@Z
	??$_Assign_counted_range@PEAV?$Vec@$02N@easy3d@@@?$vector@V?$Vec@$02N@easy3d@@V?$allocator@V?$Vec@$02N@easy3d@@@std@@@std@@AEAAXPEAV?$Vec@$02N@easy3d@@_K@Z
	??$_Assign_counted_range@PEAV?$vector@HV?$allocator@H@std@@@std@@@?$vector@V?$vector@HV?$allocator@H@std@@@std@@V?$allocator@V?$vector@HV?$allocator@H@std@@@std@@@2@@std@@AEAAXPEAV?$vector@HV?$allocator@H@std@@@1@_K@Z
	??$_Assign_counted_range@PEAV?$vector@V?$Vec@$02M@easy3d@@V?$allocator@V?$Vec@$02M@easy3d@@@std@@@std@@@?$vector@V?$vector@V?$Vec@$02M@easy3d@@V?$allocator@V?$Vec@$02M@easy3d@@@std@@@std@@V?$allocator@V?$vector@V?$Vec@$02M@easy3d@@V?$allocator@V?$Vec@$02M@easy3d@@@std@@@std@@@2@@std@@AEAAXPEAV?$vector@V?$Vec@$02M@easy3d@@V?$allocator@V?$Vec@$02M@easy3d@@@std@@@1@_K@Z
	??$_Assign_counted_range@PEAVNormalCone@easy3d@@@?$vector@VNormalCone@easy3d@@V?$allocator@VNormalCone@easy3d@@@std@@@std@@AEAAXPEAVNormalCone@easy3d@@_K@Z
	??$_Assign_counted_range@PEAVQuadric@easy3d@@@?$vector@VQuadric@easy3d@@V?$allocator@VQuadric@easy3d@@@std@@@std@@AEAAXPEAVQuadric@easy3d@@_K@Z
	??$_Assign_counted_range@PEA_K@?$vector@_KV?$allocator@_K@std@@@std@@AEAAXPEA_K_K@Z
	??$_Atomic_address_as@JU?$_Atomic_padded@H@std@@@std@@YAPECJAEAU?$_Atomic_padded@H@0@@Z
	??$_Construct@$00PEBD@?$basic_string@DU?$char_traits@D@std@@V?$allocator@D@2@@std@@AEAAXQEBD_K@Z
	??$_Copy_backward_memmove@PEAIPEAI@std@@YAPEAIPEAI00@Z
	??$_Copy_backward_memmove@PEAUVertex@SurfaceMesh@easy3d@@PEAU123@@std@@YAPEAUVertex@SurfaceMesh@easy3d@@PEAU123@00@Z
	??$_Copy_memmove@PEADPEAD@std@@YAPEADPEAD00@Z
	??$_Copy_memmove@PEAEPEAE@std@@YAPEAEPEAE00@Z
	??$_Copy_memmove@PEAHPEAH@std@@YAPEAHPEAH00@Z
	??$_Copy_memmove@PEAIPEAI@std@@YAPEAIPEAI00@Z
	??$_Copy_memmove@PEAMPEAM@std@@YAPEAMPEAM00@Z
	??$_Copy_memmove@PEANPEAN@std@@YAPEANPEAN00@Z
	??$_Copy_memmove@PEAPEAUFace@SurfaceMesh@easy3d@@PEAPEAU123@@std@@YAPEAPEAUFace@SurfaceMesh@easy3d@@PEAPEAU123@00@Z
	??$_Copy_memmove@PEAPEAUVertex@SurfaceMesh@easy3d@@PEAPEAU123@@std@@YAPEAPEAUVertex@SurfaceMesh@easy3d@@PEAPEAU123@00@Z
	??$_Copy_memmove@PEAPEAUVertex@Tessellator@easy3d@@PEAPEAU123@@std@@YAPEAPEAUVertex@Tessellator@easy3d@@PEAPEAU123@00@Z
	??$_Copy_memmove@PEAPEAV?$OctNode@VTreeNodeData@@@@PEAPEAV1@@std@@YAPEAPEAV?$OctNode@VTreeNodeData@@@@PEAPEAV1@00@Z
	??$_Copy_memmove@PEAPEAVBasePropertyArray@easy3d@@PEAPEAV12@@std@@YAPEAPEAVBasePropertyArray@easy3d@@PEAPEAV12@00@Z
	??$_Copy_memmove@PEAPEA_KPEAPEA_K@std@@YAPEAPEA_KPEAPEA_K00@Z
	??$_Copy_memmove@PEAU?$BSplineElementCoefficients@$00@@PEAU1@@std@@YAPEAU?$BSplineElementCoefficients@$00@@PEAU1@00@Z
	??$_Copy_memmove@PEAU?$BSplineElementCoefficients@$01@@PEAU1@@std@@YAPEAU?$BSplineElementCoefficients@$01@@PEAU1@00@Z
	??$_Copy_memmove@PEAU?$BSplineElementCoefficients@$0A@@@PEAU1@@std@@YAPEAU?$BSplineElementCoefficients@$0A@@@PEAU1@00@Z
	??$_Copy_memmove@PEAU?$Point3D@M@@PEAU1@@std@@YAPEAU?$Point3D@M@@PEAU1@00@Z
	??$_Copy_memmove@PEAU?$ProjectiveData@U?$Point3D@M@@M@@PEAU1@@std@@YAPEAU?$ProjectiveData@U?$Point3D@M@@M@@PEAU1@00@Z
	??$_Copy_memmove@PEAU?$SinglePointData@M$0A@@@PEAU1@@std@@YAPEAU?$SinglePointData@M$0A@@@PEAU1@00@Z
	??$_Copy_memmove@PEAU?$pair@UFace@SurfaceMesh@easy3d@@U123@@std@@PEAU12@@std@@YAPEAU?$pair@UFace@SurfaceMesh@easy3d@@U123@@0@PEAU10@00@Z
	??$_Copy_memmove@PEAU?$pair@UHalfedge@SurfaceMesh@easy3d@@U123@@std@@PEAU12@@std@@YAPEAU?$pair@UHalfedge@SurfaceMesh@easy3d@@U123@@0@PEAU10@00@Z
	??$_Copy_memmove@PEAUCoredVertexIndex@@PEAU1@@std@@YAPEAUCoredVertexIndex@@PEAU1@00@Z
	??$_Copy_memmove@PEAUEdge@SurfaceMesh@easy3d@@PEAU123@@std@@YAPEAUEdge@SurfaceMesh@easy3d@@PEAU123@00@Z
	??$_Copy_memmove@PEAUFace@SurfaceMesh@easy3d@@PEAU123@@std@@YAPEAUFace@SurfaceMesh@easy3d@@PEAU123@00@Z
	??$_Copy_memmove@PEAUHalfedge@SurfaceMesh@easy3d@@PEAU123@@std@@YAPEAUHalfedge@SurfaceMesh@easy3d@@PEAU123@00@Z
	??$_Copy_memmove@PEAUPointSample@?$Octree@M@@PEAU12@@std@@YAPEAUPointSample@?$Octree@M@@PEAU12@00@Z
	??$_Copy_memmove@PEAUTriangle@TriangleMeshKdTree@easy3d@@PEAU123@@std@@YAPEAUTriangle@TriangleMeshKdTree@easy3d@@PEAU123@00@Z
	??$_Copy_memmove@PEAUTriple@easy3d@@PEAU12@@std@@YAPEAUTriple@easy3d@@PEAU12@00@Z
	??$_Copy_memmove@PEAUVertex@PointCloud@easy3d@@PEAU123@@std@@YAPEAUVertex@PointCloud@easy3d@@PEAU123@00@Z
	??$_Copy_memmove@PEAUVertex@SurfaceMesh@easy3d@@PEAU123@@std@@YAPEAUVertex@SurfaceMesh@easy3d@@PEAU123@00@Z
	??$_Copy_memmove@PEAUWeight@SurfaceMeshHoleFilling@easy3d@@PEAU123@@std@@YAPEAUWeight@SurfaceMeshHoleFilling@easy3d@@PEAU123@00@Z
	??$_Copy_memmove@PEAU_IsoEdge@?$Octree@M@@PEAU12@@std@@YAPEAU_IsoEdge@?$Octree@M@@PEAU12@00@Z
	??$_Copy_memmove@PEAV?$PlyColorAndValueVertex@M@@PEAV1@@std@@YAPEAV?$PlyColorAndValueVertex@M@@PEAV1@00@Z
	??$_Copy_memmove@PEAV?$Triplet@NH@Eigen@@PEAV12@@std@@YAPEAV?$Triplet@NH@Eigen@@PEAV12@00@Z
	??$_Copy_memmove@PEAV?$Vec@$01H@easy3d@@PEAV12@@std@@YAPEAV?$Vec@$01H@easy3d@@PEAV12@00@Z
	??$_Copy_memmove@PEAV?$Vec@$01M@easy3d@@PEAV12@@std@@YAPEAV?$Vec@$01M@easy3d@@PEAV12@00@Z
	??$_Copy_memmove@PEAV?$Vec@$01N@easy3d@@PEAV12@@std@@YAPEAV?$Vec@$01N@easy3d@@PEAV12@00@Z
	??$_Copy_memmove@PEAV?$Vec@$02M@easy3d@@PEAV12@@std@@YAPEAV?$Vec@$02M@easy3d@@PEAV12@00@Z
	??$_Copy_memmove@PEAV?$Vec@$02N@easy3d@@PEAV12@@std@@YAPEAV?$Vec@$02N@easy3d@@PEAV12@00@Z
	??$_Copy_memmove@PEAV?$stored_edge_iter@_KV?$_List_iterator@V?$_List_val@U?$_List_simple_types@U?$list_edge@_KUEdgeProperty@internal@easy3d@@@boost@@@std@@@std@@@std@@UEdgeProperty@internal@easy3d@@@detail@boost@@PEAV123@@std@@YAPEAV?$stored_edge_iter@_KV?$_List_iterator@V?$_List_val@U?$_List_simple_types@U?$list_edge@_KUEdgeProperty@internal@easy3d@@@boost@@@std@@@std@@@std@@UEdgeProperty@internal@easy3d@@@detail@boost@@PEAV123@00@Z
	??$_Copy_memmove@PEAVNormalCone@easy3d@@PEAV12@@std@@YAPEAVNormalCone@easy3d@@PEAV12@00@Z
	??$_Copy_memmove@PEAVQuadric@easy3d@@PEAV12@@std@@YAPEAVQuadric@easy3d@@PEAV12@00@Z
	??$_Copy_memmove@PEAVTriangleIndex@@PEAV1@@std@@YAPEAVTriangleIndex@@PEAV1@00@Z
	??$_Copy_memmove@PEA_JPEA_J@std@@YAPEA_JPEA_J00@Z
	??$_Copy_memmove@PEA_KPEA_K@std@@YAPEA_KPEA_K00@Z
	??$_Copy_memmove@PEBDPEAD@std@@YAPEADPEBD0PEAD@Z
	??$_Copy_memmove@PEBEPEAE@std@@YAPEAEPEBE0PEAE@Z
	??$_Copy_memmove@PEBHPEAH@std@@YAPEAHPEBH0PEAH@Z
	??$_Copy_memmove@PEBIPEAI@std@@YAPEAIPEBI0PEAI@Z
	??$_Copy_memmove@PEBMPEAM@std@@YAPEAMPEBM0PEAM@Z
	??$_Copy_memmove@PEBNPEAN@std@@YAPEANPEBN0PEAN@Z
	??$_Copy_memmove@PEBUFace@SurfaceMesh@easy3d@@PEAU123@@std@@YAPEAUFace@SurfaceMesh@easy3d@@PEBU123@0PEAU123@@Z
	??$_Copy_memmove@PEBUHalfedge@SurfaceMesh@easy3d@@PEAU123@@std@@YAPEAUHalfedge@SurfaceMesh@easy3d@@PEBU123@0PEAU123@@Z
	??$_Copy_memmove@PEBUVertex@SurfaceMesh@easy3d@@PEAU123@@std@@YAPEAUVertex@SurfaceMesh@easy3d@@PEBU123@0PEAU123@@Z
	??$_Copy_memmove@PEBV?$Vec@$01M@easy3d@@PEAV12@@std@@YAPEAV?$Vec@$01M@easy3d@@PEBV12@0PEAV12@@Z
	??$_Copy_memmove@PEBV?$Vec@$01N@easy3d@@PEAV12@@std@@YAPEAV?$Vec@$01N@easy3d@@PEBV12@0PEAV12@@Z
	??$_Copy_memmove@PEBV?$Vec@$02M@easy3d@@PEAV12@@std@@YAPEAV?$Vec@$02M@easy3d@@PEBV12@0PEAV12@@Z
	??$_Copy_memmove@PEBV?$Vec@$02N@easy3d@@PEAV12@@std@@YAPEAV?$Vec@$02N@easy3d@@PEBV12@0PEAV12@@Z
	??$_Copy_memmove@PEBVNormalCone@easy3d@@PEAV12@@std@@YAPEAVNormalCone@easy3d@@PEBV12@0PEAV12@@Z
	??$_Copy_memmove@PEBVQuadric@easy3d@@PEAV12@@std@@YAPEAVQuadric@easy3d@@PEBV12@0PEAV12@@Z
	??$_Copy_memmove@PEB_KPEA_K@std@@YAPEA_KPEB_K0PEA_K@Z
	??$_Copy_memmove_n@PEADPEAD@std@@YAPEADPEAD_K0@Z
	??$_Copy_memmove_n@PEAEPEAE@std@@YAPEAEPEAE_K0@Z
	??$_Copy_memmove_n@PEAHPEAH@std@@YAPEAHPEAH_K0@Z
	??$_Copy_memmove_n@PEAIPEAI@std@@YAPEAIPEAI_K0@Z
	??$_Copy_memmove_n@PEAMPEAM@std@@YAPEAMPEAM_K0@Z
	??$_Copy_memmove_n@PEANPEAN@std@@YAPEANPEAN_K0@Z
	??$_Copy_memmove_n@PEAU?$BSplineElementCoefficients@$00@@PEAU1@@std@@YAPEAU?$BSplineElementCoefficients@$00@@PEAU1@_K0@Z
	??$_Copy_memmove_n@PEAU?$BSplineElementCoefficients@$01@@PEAU1@@std@@YAPEAU?$BSplineElementCoefficients@$01@@PEAU1@_K0@Z
	??$_Copy_memmove_n@PEAU?$BSplineElementCoefficients@$0A@@@PEAU1@@std@@YAPEAU?$BSplineElementCoefficients@$0A@@@PEAU1@_K0@Z
	??$_Copy_memmove_n@PEAUFace@SurfaceMesh@easy3d@@PEAU123@@std@@YAPEAUFace@SurfaceMesh@easy3d@@PEAU123@_K0@Z
	??$_Copy_memmove_n@PEAUHalfedge@SurfaceMesh@easy3d@@PEAU123@@std@@YAPEAUHalfedge@SurfaceMesh@easy3d@@PEAU123@_K0@Z
	??$_Copy_memmove_n@PEAUVertex@SurfaceMesh@easy3d@@PEAU123@@std@@YAPEAUVertex@SurfaceMesh@easy3d@@PEAU123@_K0@Z
	??$_Copy_memmove_n@PEAU_IsoEdge@?$Octree@M@@PEAU12@@std@@YAPEAU_IsoEdge@?$Octree@M@@PEAU12@_K0@Z
	??$_Copy_memmove_n@PEAV?$PlyColorAndValueVertex@M@@PEAV1@@std@@YAPEAV?$PlyColorAndValueVertex@M@@PEAV1@_K0@Z
	??$_Copy_memmove_n@PEAV?$Vec@$01M@easy3d@@PEAV12@@std@@YAPEAV?$Vec@$01M@easy3d@@PEAV12@_K0@Z
	??$_Copy_memmove_n@PEAV?$Vec@$01N@easy3d@@PEAV12@@std@@YAPEAV?$Vec@$01N@easy3d@@PEAV12@_K0@Z
	??$_Copy_memmove_n@PEAV?$Vec@$02M@easy3d@@PEAV12@@std@@YAPEAV?$Vec@$02M@easy3d@@PEAV12@_K0@Z
	??$_Copy_memmove_n@PEAV?$Vec@$02N@easy3d@@PEAV12@@std@@YAPEAV?$Vec@$02N@easy3d@@PEAV12@_K0@Z
	??$_Copy_memmove_n@PEAVNormalCone@easy3d@@PEAV12@@std@@YAPEAVNormalCone@easy3d@@PEAV12@_K0@Z
	??$_Copy_memmove_n@PEAVQuadric@easy3d@@PEAV12@@std@@YAPEAVQuadric@easy3d@@PEAV12@_K0@Z
	??$_Copy_memmove_n@PEA_KPEA_K@std@@YAPEA_KPEA_K_K0@Z
	??$_Destroy_range@V?$allocator@U?$ConstPointSupportKey@$01@@@std@@@std@@YAXPEAU?$ConstPointSupportKey@$01@@QEAU1@AEAV?$allocator@U?$ConstPointSupportKey@$01@@@0@@Z
	??$_Destroy_range@V?$allocator@U?$_SlabValues@V?$PlyColorAndValueVertex@M@@@?$Octree@M@@@std@@@std@@YAXPEAU?$_SlabValues@V?$PlyColorAndValueVertex@M@@@?$Octree@M@@QEAU12@AEAV?$allocator@U?$_SlabValues@V?$PlyColorAndValueVertex@M@@@?$Octree@M@@@0@@Z
	??$_Destroy_range@V?$allocator@U?$pair@_KU?$pair@V?$optional@V?$edge_desc_impl@Uundirected_tag@boost@@_K@detail@boost@@@boost@@U?$pair@U?$out_edge_iter@V?$_Vector_iterator@V?$_Vector_val@U?$_Simple_types@V?$stored_edge_iter@_KV?$_List_iterator@V?$_List_val@U?$_List_simple_types@U?$list_edge@_KUEdgeProperty@internal@easy3d@@@boost@@@std@@@std@@@std@@UEdgeProperty@internal@easy3d@@@detail@boost@@@std@@@std@@@std@@_KV?$edge_desc_impl@Uundirected_tag@boost@@_K@detail@boost@@_J@detail@boost@@U123@@std@@@std@@@std@@@std@@@std@@YAXPEAU?$pair@_KU?$pair@V?$optional@V?$edge_desc_impl@Uundirected_tag@boost@@_K@detail@boost@@@boost@@U?$pair@U?$out_edge_iter@V?$_Vector_iterator@V?$_Vector_val@U?$_Simple_types@V?$stored_edge_iter@_KV?$_List_iterator@V?$_List_val@U?$_List_simple_types@U?$list_edge@_KUEdgeProperty@internal@easy3d@@@boost@@@std@@@std@@@std@@UEdgeProperty@internal@easy3d@@@detail@boost@@@std@@@std@@@std@@_KV?$edge_desc_impl@Uundirected_tag@boost@@_K@detail@boost@@_J@detail@boost@@U123@@std@@@std@@@0@QEAU10@AEAV?$allocator@U?$pair@_KU?$pair@V?$optional@V?$edge_desc_impl@Uundirected_tag@boost@@_K@detail@boost@@@boost@@U?$pair@U?$out_edge_iter@V?$_Vector_iterator@V?$_Vector_val@U?$_Simple_types@V?$stored_edge_iter@_KV?$_List_iterator@V?$_List_val@U?$_List_simple_types@U?$list_edge@_KUEdgeProperty@internal@easy3d@@@boost@@@std@@@std@@@std@@UEdgeProperty@internal@easy3d@@@detail@boost@@@std@@@std@@@std@@_KV?$edge_desc_impl@Uundirected_tag@boost@@_K@detail@boost@@_J@detail@boost@@U123@@std@@@std@@@std@@@0@@Z
	??$_Destroy_range@V?$allocator@UCylinderPrim@PrimitivesRansac@easy3d@@@std@@@std@@YAXPEAUCylinderPrim@PrimitivesRansac@easy3d@@QEAU123@AEAV?$allocator@UCylinderPrim@PrimitivesRansac@easy3d@@@0@@Z
	??$_Destroy_range@V?$allocator@UPlanePrim@PrimitivesRansac@easy3d@@@std@@@std@@YAXPEAUPlanePrim@PrimitivesRansac@easy3d@@QEAU123@AEAV?$allocator@UPlanePrim@PrimitivesRansac@easy3d@@@0@@Z
	??$_Destroy_range@V?$allocator@Ustored_vertex@config@?$adj_list_gen@V?$adjacency_list@UvecS@boost@@U12@UdirectedS@2@UMST_VertexProperty@internal@easy3d@@Uno_property@2@U72@UlistS@2@@boost@@UvecS@2@U32@UdirectedS@2@UMST_VertexProperty@internal@easy3d@@Uno_property@2@U82@UlistS@2@@detail@boost@@@std@@@std@@YAXPEAUstored_vertex@config@?$adj_list_gen@V?$adjacency_list@UvecS@boost@@U12@UdirectedS@2@UMST_VertexProperty@internal@easy3d@@Uno_property@2@U72@UlistS@2@@boost@@UvecS@2@U32@UdirectedS@2@UMST_VertexProperty@internal@easy3d@@Uno_property@2@U82@UlistS@2@@detail@boost@@QEAU12345@AEAV?$allocator@Ustored_vertex@config@?$adj_list_gen@V?$adjacency_list@UvecS@boost@@U12@UdirectedS@2@UMST_VertexProperty@internal@easy3d@@Uno_property@2@U72@UlistS@2@@boost@@UvecS@2@U32@UdirectedS@2@UMST_VertexProperty@internal@easy3d@@Uno_property@2@U82@UlistS@2@@detail@boost@@@0@@Z
	??$_Destroy_range@V?$allocator@Ustored_vertex@config@?$adj_list_gen@V?$adjacency_list@UvecS@boost@@U12@UundirectedS@2@UVertexProperty@internal@easy3d@@UEdgeProperty@56@Uno_property@2@UlistS@2@@boost@@UvecS@2@U32@UundirectedS@2@UVertexProperty@internal@easy3d@@UEdgeProperty@67@Uno_property@2@UlistS@2@@detail@boost@@@std@@@std@@YAXPEAUstored_vertex@config@?$adj_list_gen@V?$adjacency_list@UvecS@boost@@U12@UundirectedS@2@UVertexProperty@internal@easy3d@@UEdgeProperty@56@Uno_property@2@UlistS@2@@boost@@UvecS@2@U32@UundirectedS@2@UVertexProperty@internal@easy3d@@UEdgeProperty@67@Uno_property@2@UlistS@2@@detail@boost@@QEAU12345@AEAV?$allocator@Ustored_vertex@config@?$adj_list_gen@V?$adjacency_list@UvecS@boost@@U12@UundirectedS@2@UVertexProperty@internal@easy3d@@UEdgeProperty@56@Uno_property@2@UlistS@2@@boost@@UvecS@2@U32@UundirectedS@2@UVertexProperty@internal@easy3d@@UEdgeProperty@67@Uno_property@2@UlistS@2@@detail@boost@@@0@@Z
	??$_Destroy_range@V?$allocator@V?$GenericPolygon@M@easy3d@@@std@@@std@@YAXPEAV?$GenericPolygon@M@easy3d@@QEAV12@AEAV?$allocator@V?$GenericPolygon@M@easy3d@@@0@@Z
	??$_Destroy_range@V?$allocator@V?$basic_string@DU?$char_traits@D@std@@V?$allocator@D@2@@std@@@std@@@std@@YAXPEAV?$basic_string@DU?$char_traits@D@std@@V?$allocator@D@2@@0@QEAV10@AEAV?$allocator@V?$basic_string@DU?$char_traits@D@std@@V?$allocator@D@2@@std@@@0@@Z
	??$_Destroy_range@V?$allocator@V?$set@UHalfedge@SurfaceMesh@easy3d@@U?$less@UHalfedge@SurfaceMesh@easy3d@@@std@@V?$allocator@UHalfedge@SurfaceMesh@easy3d@@@5@@std@@@std@@@std@@YAXPEAV?$set@UHalfedge@SurfaceMesh@easy3d@@U?$less@UHalfedge@SurfaceMesh@easy3d@@@std@@V?$allocator@UHalfedge@SurfaceMesh@easy3d@@@5@@0@QEAV10@AEAV?$allocator@V?$set@UHalfedge@SurfaceMesh@easy3d@@U?$less@UHalfedge@SurfaceMesh@easy3d@@@std@@V?$allocator@UHalfedge@SurfaceMesh@easy3d@@@5@@std@@@0@@Z
	??$_Destroy_range@V?$allocator@V?$stored_edge_property@_KUno_property@boost@@@detail@boost@@@std@@@std@@YAXPEAV?$stored_edge_property@_KUno_property@boost@@@detail@boost@@QEAV123@AEAV?$allocator@V?$stored_edge_property@_KUno_property@boost@@@detail@boost@@@0@@Z
	??$_Destroy_range@V?$allocator@V?$vector@HV?$allocator@H@std@@@std@@@std@@@std@@YAXPEAV?$vector@HV?$allocator@H@std@@@0@QEAV10@AEAV?$allocator@V?$vector@HV?$allocator@H@std@@@std@@@0@@Z
	??$_Destroy_range@V?$allocator@V?$vector@IV?$allocator@I@std@@@std@@@std@@@std@@YAXPEAV?$vector@IV?$allocator@I@std@@@0@QEAV10@AEAV?$allocator@V?$vector@IV?$allocator@I@std@@@std@@@0@@Z
	??$_Destroy_range@V?$allocator@V?$vector@MV?$allocator@M@std@@@std@@@std@@@std@@YAXPEAV?$vector@MV?$allocator@M@std@@@0@QEAV10@AEAV?$allocator@V?$vector@MV?$allocator@M@std@@@std@@@0@@Z
	??$_Destroy_range@V?$allocator@V?$vector@UHalfedge@SurfaceMesh@easy3d@@V?$allocator@UHalfedge@SurfaceMesh@easy3d@@@std@@@std@@@std@@@std@@YAXPEAV?$vector@UHalfedge@SurfaceMesh@easy3d@@V?$allocator@UHalfedge@SurfaceMesh@easy3d@@@std@@@0@QEAV10@AEAV?$allocator@V?$vector@UHalfedge@SurfaceMesh@easy3d@@V?$allocator@UHalfedge@SurfaceMesh@easy3d@@@std@@@std@@@0@@Z
	??$_Destroy_range@V?$allocator@V?$vector@UVertex@SurfaceMesh@easy3d@@V?$allocator@UVertex@SurfaceMesh@easy3d@@@std@@@std@@@std@@@std@@YAXPEAV?$vector@UVertex@SurfaceMesh@easy3d@@V?$allocator@UVertex@SurfaceMesh@easy3d@@@std@@@0@QEAV10@AEAV?$allocator@V?$vector@UVertex@SurfaceMesh@easy3d@@V?$allocator@UVertex@SurfaceMesh@easy3d@@@std@@@std@@@0@@Z
	??$_Destroy_range@V?$allocator@V?$vector@UWeight@SurfaceMeshHoleFilling@easy3d@@V?$allocator@UWeight@SurfaceMeshHoleFilling@easy3d@@@std@@@std@@@std@@@std@@YAXPEAV?$vector@UWeight@SurfaceMeshHoleFilling@easy3d@@V?$allocator@UWeight@SurfaceMeshHoleFilling@easy3d@@@std@@@0@QEAV10@AEAV?$allocator@V?$vector@UWeight@SurfaceMeshHoleFilling@easy3d@@V?$allocator@UWeight@SurfaceMeshHoleFilling@easy3d@@@std@@@std@@@0@@Z
	??$_Destroy_range@V?$allocator@V?$vector@U_IsoEdge@?$Octree@M@@V?$allocator@U_IsoEdge@?$Octree@M@@@std@@@std@@@std@@@std@@YAXPEAV?$vector@U_IsoEdge@?$Octree@M@@V?$allocator@U_IsoEdge@?$Octree@M@@@std@@@0@QEAV10@AEAV?$allocator@V?$vector@U_IsoEdge@?$Octree@M@@V?$allocator@U_IsoEdge@?$Octree@M@@@std@@@std@@@0@@Z
	??$_Destroy_range@V?$allocator@V?$vector@V?$GenericPolygon@M@easy3d@@V?$allocator@V?$GenericPolygon@M@easy3d@@@std@@@std@@@std@@@std@@YAXPEAV?$vector@V?$GenericPolygon@M@easy3d@@V?$allocator@V?$GenericPolygon@M@easy3d@@@std@@@0@QEAV10@AEAV?$allocator@V?$vector@V?$GenericPolygon@M@easy3d@@V?$allocator@V?$GenericPolygon@M@easy3d@@@std@@@std@@@0@@Z
	??$_Destroy_range@V?$allocator@V?$vector@V?$Vec@$02M@easy3d@@V?$allocator@V?$Vec@$02M@easy3d@@@std@@@std@@@std@@@std@@YAXPEAV?$vector@V?$Vec@$02M@easy3d@@V?$allocator@V?$Vec@$02M@easy3d@@@std@@@0@QEAV10@AEAV?$allocator@V?$vector@V?$Vec@$02M@easy3d@@V?$allocator@V?$Vec@$02M@easy3d@@@std@@@std@@@0@@Z
	??$_Destroy_range@V?$allocator@V?$vector@_JV?$allocator@_J@std@@@std@@@std@@@std@@YAXPEAV?$vector@_JV?$allocator@_J@std@@@0@QEAV10@AEAV?$allocator@V?$vector@_JV?$allocator@_J@std@@@std@@@0@@Z
	??$_Destroy_range@V?$allocator@V?$vector@_KV?$allocator@_K@std@@@std@@@std@@@std@@YAXPEAV?$vector@_KV?$allocator@_K@std@@@0@QEAV10@AEAV?$allocator@V?$vector@_KV?$allocator@_K@std@@@std@@@0@@Z
	??$_Destroy_range@V?$allocator@VMST_Graph@internal@easy3d@@@std@@@std@@YAXPEAVMST_Graph@internal@easy3d@@QEAV123@AEAV?$allocator@VMST_Graph@internal@easy3d@@@0@@Z
	??$_Destroy_range@V?$allocator@VSurfaceMeshComponent@easy3d@@@std@@@std@@YAXPEAVSurfaceMeshComponent@easy3d@@QEAV12@AEAV?$allocator@VSurfaceMeshComponent@easy3d@@@0@@Z
	??$_Dot@M@?$Octree@M@@KAMAEBM0@Z
	??$_Dot@N@?$Octree@N@@KANAEBN0@Z
	??$_Dot@U?$Point3D@M@@@?$Octree@M@@KAMAEBU?$Point3D@M@@0@Z
	??$_Dot@U?$Point3D@N@@@?$Octree@N@@KANAEBU?$Point3D@N@@0@Z
	??$_Emplace@AEBUVertex@SurfaceMesh@easy3d@@@?$_Tree@V?$_Tset_traits@UVertex@SurfaceMesh@easy3d@@VVertexCmp@SurfaceMeshGeodesic@3@V?$allocator@UVertex@SurfaceMesh@easy3d@@@std@@$0A@@std@@@std@@IEAA?AU?$pair@PEAU?$_Tree_node@UVertex@SurfaceMesh@easy3d@@PEAX@std@@_N@1@AEBUVertex@SurfaceMesh@easy3d@@@Z
	??$_Emplace_reallocate@AEAHAEAHAEAM@?$vector@V?$Triplet@NH@Eigen@@V?$allocator@V?$Triplet@NH@Eigen@@@std@@@std@@AEAAPEAV?$Triplet@NH@Eigen@@QEAV23@AEAH1AEAM@Z
	??$_Emplace_reallocate@AEAHAEAHAEAN@?$vector@V?$Triplet@NH@Eigen@@V?$allocator@V?$Triplet@NH@Eigen@@@std@@@std@@AEAAPEAV?$Triplet@NH@Eigen@@QEAV23@AEAH1AEAN@Z
	??$_Emplace_reallocate@AEAHAEAHM@?$vector@V?$Triplet@NH@Eigen@@V?$allocator@V?$Triplet@NH@Eigen@@@std@@@std@@AEAAPEAV?$Triplet@NH@Eigen@@QEAV23@AEAH1$$QEAM@Z
	??$_Emplace_reallocate@AEAHAEAHN@?$vector@V?$Triplet@NH@Eigen@@V?$allocator@V?$Triplet@NH@Eigen@@@std@@@std@@AEAAPEAV?$Triplet@NH@Eigen@@QEAV23@AEAH1$$QEAN@Z
	??$_Emplace_reallocate@AEAHIAEAN@?$vector@V?$Triplet@NH@Eigen@@V?$allocator@V?$Triplet@NH@Eigen@@@std@@@std@@AEAAPEAV?$Triplet@NH@Eigen@@QEAV23@AEAH$$QEAIAEAN@Z
	??$_Emplace_reallocate@AEAHIN@?$vector@V?$Triplet@NH@Eigen@@V?$allocator@V?$Triplet@NH@Eigen@@@std@@@std@@AEAAPEAV?$Triplet@NH@Eigen@@QEAV23@AEAH$$QEAI$$QEAN@Z
	??$_Emplace_reallocate@AEAIAEAHAEAN@?$vector@V?$Triplet@NH@Eigen@@V?$allocator@V?$Triplet@NH@Eigen@@@std@@@std@@AEAAPEAV?$Triplet@NH@Eigen@@QEAV23@AEAIAEAHAEAN@Z
	??$_Emplace_reallocate@AEAUVertex@SurfaceMesh@easy3d@@AEANI@?$vector@UTriple@easy3d@@V?$allocator@UTriple@easy3d@@@std@@@std@@AEAAPEAUTriple@easy3d@@QEAU23@AEAUVertex@SurfaceMesh@3@AEAN$$QEAI@Z
	??$_Emplace_reallocate@AEBD@?$vector@DV?$allocator@D@std@@@std@@AEAAPEADQEADAEBD@Z
	??$_Emplace_reallocate@AEBE@?$vector@EV?$allocator@E@std@@@std@@AEAAPEAEQEAEAEBE@Z
	??$_Emplace_reallocate@AEBH@?$vector@HV?$allocator@H@std@@@std@@AEAAPEAHQEAHAEBH@Z
	??$_Emplace_reallocate@AEBI@?$vector@IV?$allocator@I@std@@@std@@AEAAPEAIQEAIAEBI@Z
	??$_Emplace_reallocate@AEBM@?$vector@MV?$allocator@M@std@@@std@@AEAAPEAMQEAMAEBM@Z
	??$_Emplace_reallocate@AEBN@?$vector@NV?$allocator@N@std@@@std@@AEAAPEANQEANAEBN@Z
	??$_Emplace_reallocate@AEBQEAUVertex@Tessellator@easy3d@@@?$vector@PEAUVertex@Tessellator@easy3d@@V?$allocator@PEAUVertex@Tessellator@easy3d@@@std@@@std@@AEAAPEAPEAUVertex@Tessellator@easy3d@@QEAPEAU234@AEBQEAU234@@Z
	??$_Emplace_reallocate@AEBQEAV?$OctNode@VTreeNodeData@@@@@?$vector@PEAV?$OctNode@VTreeNodeData@@@@V?$allocator@PEAV?$OctNode@VTreeNodeData@@@@@std@@@std@@AEAAPEAPEAV?$OctNode@VTreeNodeData@@@@QEAPEAV2@AEBQEAV2@@Z
	??$_Emplace_reallocate@AEBUCylinderPrim@PrimitivesRansac@easy3d@@@?$vector@UCylinderPrim@PrimitivesRansac@easy3d@@V?$allocator@UCylinderPrim@PrimitivesRansac@easy3d@@@std@@@std@@AEAAPEAUCylinderPrim@PrimitivesRansac@easy3d@@QEAU234@AEBU234@@Z
	??$_Emplace_reallocate@AEBUEdge@SurfaceMesh@easy3d@@@?$vector@UEdge@SurfaceMesh@easy3d@@V?$allocator@UEdge@SurfaceMesh@easy3d@@@std@@@std@@AEAAPEAUEdge@SurfaceMesh@easy3d@@QEAU234@AEBU234@@Z
	??$_Emplace_reallocate@AEBUFace@SurfaceMesh@easy3d@@@?$vector@UFace@SurfaceMesh@easy3d@@V?$allocator@UFace@SurfaceMesh@easy3d@@@std@@@std@@AEAAPEAUFace@SurfaceMesh@easy3d@@QEAU234@AEBU234@@Z
	??$_Emplace_reallocate@AEBUHalfedge@SurfaceMesh@easy3d@@@?$vector@UHalfedge@SurfaceMesh@easy3d@@V?$allocator@UHalfedge@SurfaceMesh@easy3d@@@std@@@std@@AEAAPEAUHalfedge@SurfaceMesh@easy3d@@QEAU234@AEBU234@@Z
	??$_Emplace_reallocate@AEBUPlanePrim@PrimitivesRansac@easy3d@@@?$vector@UPlanePrim@PrimitivesRansac@easy3d@@V?$allocator@UPlanePrim@PrimitivesRansac@easy3d@@@std@@@std@@AEAAPEAUPlanePrim@PrimitivesRansac@easy3d@@QEAU234@AEBU234@@Z
	??$_Emplace_reallocate@AEBUTriangle@TriangleMeshKdTree@easy3d@@@?$vector@UTriangle@TriangleMeshKdTree@easy3d@@V?$allocator@UTriangle@TriangleMeshKdTree@easy3d@@@std@@@std@@AEAAPEAUTriangle@TriangleMeshKdTree@easy3d@@QEAU234@AEBU234@@Z
	??$_Emplace_reallocate@AEBUTriple@easy3d@@@?$vector@UTriple@easy3d@@V?$allocator@UTriple@easy3d@@@std@@@std@@AEAAPEAUTriple@easy3d@@QEAU23@AEBU23@@Z
	??$_Emplace_reallocate@AEBUVertex@PointCloud@easy3d@@@?$vector@UVertex@PointCloud@easy3d@@V?$allocator@UVertex@PointCloud@easy3d@@@std@@@std@@AEAAPEAUVertex@PointCloud@easy3d@@QEAU234@AEBU234@@Z
	??$_Emplace_reallocate@AEBUVertex@SurfaceMesh@easy3d@@@?$vector@UVertex@SurfaceMesh@easy3d@@V?$allocator@UVertex@SurfaceMesh@easy3d@@@std@@@std@@AEAAPEAUVertex@SurfaceMesh@easy3d@@QEAU234@AEBU234@@Z
	??$_Emplace_reallocate@AEBU_IsoEdge@?$Octree@M@@@?$vector@U_IsoEdge@?$Octree@M@@V?$allocator@U_IsoEdge@?$Octree@M@@@std@@@std@@AEAAPEAU_IsoEdge@?$Octree@M@@QEAU23@AEBU23@@Z
	??$_Emplace_reallocate@AEBV?$GenericPolygon@M@easy3d@@@?$vector@V?$GenericPolygon@M@easy3d@@V?$allocator@V?$GenericPolygon@M@easy3d@@@std@@@std@@AEAAPEAV?$GenericPolygon@M@easy3d@@QEAV23@AEBV23@@Z
	??$_Emplace_reallocate@AEBV?$PlyColorAndValueVertex@M@@@?$vector@V?$PlyColorAndValueVertex@M@@V?$allocator@V?$PlyColorAndValueVertex@M@@@std@@@std@@AEAAPEAV?$PlyColorAndValueVertex@M@@QEAV2@AEBV2@@Z
	??$_Emplace_reallocate@AEBV?$Vec@$01M@easy3d@@@?$vector@V?$Vec@$01M@easy3d@@V?$allocator@V?$Vec@$01M@easy3d@@@std@@@std@@AEAAPEAV?$Vec@$01M@easy3d@@QEAV23@AEBV23@@Z
	??$_Emplace_reallocate@AEBV?$Vec@$01N@easy3d@@@?$vector@V?$Vec@$01N@easy3d@@V?$allocator@V?$Vec@$01N@easy3d@@@std@@@std@@AEAAPEAV?$Vec@$01N@easy3d@@QEAV23@AEBV23@@Z
	??$_Emplace_reallocate@AEBV?$Vec@$02M@easy3d@@@?$vector@V?$Vec@$02M@easy3d@@V?$allocator@V?$Vec@$02M@easy3d@@@std@@@std@@AEAAPEAV?$Vec@$02M@easy3d@@QEAV23@AEBV23@@Z
	??$_Emplace_reallocate@AEBV?$Vec@$02N@easy3d@@@?$vector@V?$Vec@$02N@easy3d@@V?$allocator@V?$Vec@$02N@easy3d@@@std@@@std@@AEAAPEAV?$Vec@$02N@easy3d@@QEAV23@AEBV23@@Z
	??$_Emplace_reallocate@AEBV?$basic_string@DU?$char_traits@D@std@@V?$allocator@D@2@@std@@@?$vector@V?$basic_string@DU?$char_traits@D@std@@V?$allocator@D@2@@std@@V?$allocator@V?$basic_string@DU?$char_traits@D@std@@V?$allocator@D@2@@std@@@2@@std@@AEAAPEAV?$basic_string@DU?$char_traits@D@std@@V?$allocator@D@2@@1@QEAV21@AEBV21@@Z
	??$_Emplace_reallocate@AEBV?$vector@HV?$allocator@H@std@@@std@@@?$vector@V?$vector@HV?$allocator@H@std@@@std@@V?$allocator@V?$vector@HV?$allocator@H@std@@@std@@@2@@std@@AEAAPEAV?$vector@HV?$allocator@H@std@@@1@QEAV21@AEBV21@@Z
	??$_Emplace_reallocate@AEBV?$vector@IV?$allocator@I@std@@@std@@@?$vector@V?$vector@IV?$allocator@I@std@@@std@@V?$allocator@V?$vector@IV?$allocator@I@std@@@std@@@2@@std@@AEAAPEAV?$vector@IV?$allocator@I@std@@@1@QEAV21@AEBV21@@Z
	??$_Emplace_reallocate@AEBV?$vector@UHalfedge@SurfaceMesh@easy3d@@V?$allocator@UHalfedge@SurfaceMesh@easy3d@@@std@@@std@@@?$vector@V?$vector@UHalfedge@SurfaceMesh@easy3d@@V?$allocator@UHalfedge@SurfaceMesh@easy3d@@@std@@@std@@V?$allocator@V?$vector@UHalfedge@SurfaceMesh@easy3d@@V?$allocator@UHalfedge@SurfaceMesh@easy3d@@@std@@@std@@@2@@std@@AEAAPEAV?$vector@UHalfedge@SurfaceMesh@easy3d@@V?$allocator@UHalfedge@SurfaceMesh@easy3d@@@std@@@1@QEAV21@AEBV21@@Z
	??$_Emplace_reallocate@AEBV?$vector@UVertex@SurfaceMesh@easy3d@@V?$allocator@UVertex@SurfaceMesh@easy3d@@@std@@@std@@@?$vector@V?$vector@UVertex@SurfaceMesh@easy3d@@V?$allocator@UVertex@SurfaceMesh@easy3d@@@std@@@std@@V?$allocator@V?$vector@UVertex@SurfaceMesh@easy3d@@V?$allocator@UVertex@SurfaceMesh@easy3d@@@std@@@std@@@2@@std@@AEAAPEAV?$vector@UVertex@SurfaceMesh@easy3d@@V?$allocator@UVertex@SurfaceMesh@easy3d@@@std@@@1@QEAV21@AEBV21@@Z
	??$_Emplace_reallocate@AEBV?$vector@V?$GenericPolygon@M@easy3d@@V?$allocator@V?$GenericPolygon@M@easy3d@@@std@@@std@@@?$vector@V?$vector@V?$GenericPolygon@M@easy3d@@V?$allocator@V?$GenericPolygon@M@easy3d@@@std@@@std@@V?$allocator@V?$vector@V?$GenericPolygon@M@easy3d@@V?$allocator@V?$GenericPolygon@M@easy3d@@@std@@@std@@@2@@std@@AEAAPEAV?$vector@V?$GenericPolygon@M@easy3d@@V?$allocator@V?$GenericPolygon@M@easy3d@@@std@@@1@QEAV21@AEBV21@@Z
	??$_Emplace_reallocate@AEBV?$vector@V?$Vec@$02M@easy3d@@V?$allocator@V?$Vec@$02M@easy3d@@@std@@@std@@@?$vector@V?$vector@V?$Vec@$02M@easy3d@@V?$allocator@V?$Vec@$02M@easy3d@@@std@@@std@@V?$allocator@V?$vector@V?$Vec@$02M@easy3d@@V?$allocator@V?$Vec@$02M@easy3d@@@std@@@std@@@2@@std@@AEAAPEAV?$vector@V?$Vec@$02M@easy3d@@V?$allocator@V?$Vec@$02M@easy3d@@@std@@@1@QEAV21@AEBV21@@Z
	??$_Emplace_reallocate@AEBV?$vector@_KV?$allocator@_K@std@@@std@@@?$vector@V?$vector@_KV?$allocator@_K@std@@@std@@V?$allocator@V?$vector@_KV?$allocator@_K@std@@@std@@@2@@std@@AEAAPEAV?$vector@_KV?$allocator@_K@std@@@1@QEAV21@AEBV21@@Z
	??$_Emplace_reallocate@AEBVNormalCone@easy3d@@@?$vector@VNormalCone@easy3d@@V?$allocator@VNormalCone@easy3d@@@std@@@std@@AEAAPEAVNormalCone@easy3d@@QEAV23@AEBV23@@Z
	??$_Emplace_reallocate@AEBVQuadric@easy3d@@@?$vector@VQuadric@easy3d@@V?$allocator@VQuadric@easy3d@@@std@@@std@@AEAAPEAVQuadric@easy3d@@QEAV23@AEBV23@@Z
	??$_Emplace_reallocate@AEBVTriangleIndex@@@?$vector@VTriangleIndex@@V?$allocator@VTriangleIndex@@@std@@@std@@AEAAPEAVTriangleIndex@@QEAV2@AEBV2@@Z
	??$_Emplace_reallocate@AEB_J@?$vector@_JV?$allocator@_J@std@@@std@@AEAAPEA_JQEA_JAEB_J@Z
	??$_Emplace_reallocate@AEB_K@?$vector@_KV?$allocator@_K@std@@@std@@AEAAPEA_KQEA_KAEB_K@Z
	??$_Emplace_reallocate@H@?$vector@HV?$allocator@H@std@@@std@@AEAAPEAHQEAH$$QEAH@Z
	??$_Emplace_reallocate@I@?$vector@IV?$allocator@I@std@@@std@@AEAAPEAIQEAI$$QEAI@Z
	??$_Emplace_reallocate@M@?$vector@MV?$allocator@M@std@@@std@@AEAAPEAMQEAM$$QEAM@Z
	??$_Emplace_reallocate@N@?$vector@NV?$allocator@N@std@@@std@@AEAAPEANQEAN$$QEAN@Z
	??$_Emplace_reallocate@PEAVBasePropertyArray@easy3d@@@?$vector@PEAVBasePropertyArray@easy3d@@V?$allocator@PEAVBasePropertyArray@easy3d@@@std@@@std@@AEAAPEAPEAVBasePropertyArray@easy3d@@QEAPEAV23@$$QEAPEAV23@@Z
	??$_Emplace_reallocate@U?$Point3D@M@@@?$vector@U?$Point3D@M@@V?$allocator@U?$Point3D@M@@@std@@@std@@AEAAPEAU?$Point3D@M@@QEAU2@$$QEAU2@@Z
	??$_Emplace_reallocate@U?$ProjectiveData@U?$Point3D@M@@M@@@?$vector@U?$ProjectiveData@U?$Point3D@M@@M@@V?$allocator@U?$ProjectiveData@U?$Point3D@M@@M@@@std@@@std@@AEAAPEAU?$ProjectiveData@U?$Point3D@M@@M@@QEAU2@$$QEAU2@@Z
	??$_Emplace_reallocate@U?$SinglePointData@M$0A@@@@?$vector@U?$SinglePointData@M$0A@@@V?$allocator@U?$SinglePointData@M$0A@@@@std@@@std@@AEAAPEAU?$SinglePointData@M$0A@@@QEAU2@$$QEAU2@@Z
	??$_Emplace_reallocate@U?$pair@UHalfedge@SurfaceMesh@easy3d@@U123@@std@@@?$vector@U?$pair@UHalfedge@SurfaceMesh@easy3d@@U123@@std@@V?$allocator@U?$pair@UHalfedge@SurfaceMesh@easy3d@@U123@@std@@@2@@std@@AEAAPEAU?$pair@UHalfedge@SurfaceMesh@easy3d@@U123@@1@QEAU21@$$QEAU21@@Z
	??$_Emplace_reallocate@U?$pair@_KU?$pair@V?$optional@V?$edge_desc_impl@Uundirected_tag@boost@@_K@detail@boost@@@boost@@U?$pair@U?$out_edge_iter@V?$_Vector_iterator@V?$_Vector_val@U?$_Simple_types@V?$stored_edge_iter@_KV?$_List_iterator@V?$_List_val@U?$_List_simple_types@U?$list_edge@_KUEdgeProperty@internal@easy3d@@@boost@@@std@@@std@@@std@@UEdgeProperty@internal@easy3d@@@detail@boost@@@std@@@std@@@std@@_KV?$edge_desc_impl@Uundirected_tag@boost@@_K@detail@boost@@_J@detail@boost@@U123@@std@@@std@@@std@@@?$vector@U?$pair@_KU?$pair@V?$optional@V?$edge_desc_impl@Uundirected_tag@boost@@_K@detail@boost@@@boost@@U?$pair@U?$out_edge_iter@V?$_Vector_iterator@V?$_Vector_val@U?$_Simple_types@V?$stored_edge_iter@_KV?$_List_iterator@V?$_List_val@U?$_List_simple_types@U?$list_edge@_KUEdgeProperty@internal@easy3d@@@boost@@@std@@@std@@@std@@UEdgeProperty@internal@easy3d@@@detail@boost@@@std@@@std@@@std@@_KV?$edge_desc_impl@Uundirected_tag@boost@@_K@detail@boost@@_J@detail@boost@@U123@@std@@@std@@@std@@V?$allocator@U?$pair@_KU?$pair@V?$optional@V?$edge_desc_impl@Uundirected_tag@boost@@_K@detail@boost@@@boost@@U?$pair@U?$out_edge_iter@V?$_Vector_iterator@V?$_Vector_val@U?$_Simple_types@V?$stored_edge_iter@_KV?$_List_iterator@V?$_List_val@U?$_List_simple_types@U?$list_edge@_KUEdgeProperty@internal@easy3d@@@boost@@@std@@@std@@@std@@UEdgeProperty@internal@easy3d@@@detail@boost@@@std@@@std@@@std@@_KV?$edge_desc_impl@Uundirected_tag@boost@@_K@detail@boost@@_J@detail@boost@@U123@@std@@@std@@@std@@@2@@std@@AEAAPEAU?$pair@_KU?$pair@V?$optional@V?$edge_desc_impl@Uundirected_tag@boost@@_K@detail@boost@@@boost@@U?$pair@U?$out_edge_iter@V?$_Vector_iterator@V?$_Vector_val@U?$_Simple_types@V?$stored_edge_iter@_KV?$_List_iterator@V?$_List_val@U?$_List_simple_types@U?$list_edge@_KUEdgeProperty@internal@easy3d@@@boost@@@std@@@std@@@std@@UEdgeProperty@internal@easy3d@@@detail@boost@@@std@@@std@@@std@@_KV?$edge_desc_impl@Uundirected_tag@boost@@_K@detail@boost@@_J@detail@boost@@U123@@std@@@std@@@1@QEAU21@$$QEAU21@@Z
	??$_Emplace_reallocate@UVertex@PointCloud@easy3d@@@?$vector@UVertex@PointCloud@easy3d@@V?$allocator@UVertex@PointCloud@easy3d@@@std@@@std@@AEAAPEAUVertex@PointCloud@easy3d@@QEAU234@$$QEAU234@@Z
	??$_Emplace_reallocate@UVertex@SurfaceMesh@easy3d@@@?$vector@UVertex@SurfaceMesh@easy3d@@V?$allocator@UVertex@SurfaceMesh@easy3d@@@std@@@std@@AEAAPEAUVertex@SurfaceMesh@easy3d@@QEAU234@$$QEAU234@@Z
	??$_Emplace_reallocate@U_IsoEdge@?$Octree@M@@@?$vector@U_IsoEdge@?$Octree@M@@V?$allocator@U_IsoEdge@?$Octree@M@@@std@@@std@@AEAAPEAU_IsoEdge@?$Octree@M@@QEAU23@$$QEAU23@@Z
	??$_Emplace_reallocate@Ustored_vertex@config@?$adj_list_gen@V?$adjacency_list@UvecS@boost@@U12@UdirectedS@2@UMST_VertexProperty@internal@easy3d@@Uno_property@2@U72@UlistS@2@@boost@@UvecS@2@U32@UdirectedS@2@UMST_VertexProperty@internal@easy3d@@Uno_property@2@U82@UlistS@2@@detail@boost@@@?$vector@Ustored_vertex@config@?$adj_list_gen@V?$adjacency_list@UvecS@boost@@U12@UdirectedS@2@UMST_VertexProperty@internal@easy3d@@Uno_property@2@U72@UlistS@2@@boost@@UvecS@2@U32@UdirectedS@2@UMST_VertexProperty@internal@easy3d@@Uno_property@2@U82@UlistS@2@@detail@boost@@V?$allocator@Ustored_vertex@config@?$adj_list_gen@V?$adjacency_list@UvecS@boost@@U12@UdirectedS@2@UMST_VertexProperty@internal@easy3d@@Uno_property@2@U72@UlistS@2@@boost@@UvecS@2@U32@UdirectedS@2@UMST_VertexProperty@internal@easy3d@@Uno_property@2@U82@UlistS@2@@detail@boost@@@std@@@std@@AEAAPEAUstored_vertex@config@?$adj_list_gen@V?$adjacency_list@UvecS@boost@@U12@UdirectedS@2@UMST_VertexProperty@internal@easy3d@@Uno_property@2@U72@UlistS@2@@boost@@UvecS@2@U32@UdirectedS@2@UMST_VertexProperty@internal@easy3d@@Uno_property@2@U82@UlistS@2@@detail@boost@@QEAU23456@$$QEAU23456@@Z
	??$_Emplace_reallocate@Ustored_vertex@config@?$adj_list_gen@V?$adjacency_list@UvecS@boost@@U12@UundirectedS@2@UVertexProperty@internal@easy3d@@UEdgeProperty@56@Uno_property@2@UlistS@2@@boost@@UvecS@2@U32@UundirectedS@2@UVertexProperty@internal@easy3d@@UEdgeProperty@67@Uno_property@2@UlistS@2@@detail@boost@@@?$vector@Ustored_vertex@config@?$adj_list_gen@V?$adjacency_list@UvecS@boost@@U12@UundirectedS@2@UVertexProperty@internal@easy3d@@UEdgeProperty@56@Uno_property@2@UlistS@2@@boost@@UvecS@2@U32@UundirectedS@2@UVertexProperty@internal@easy3d@@UEdgeProperty@67@Uno_property@2@UlistS@2@@detail@boost@@V?$allocator@Ustored_vertex@config@?$adj_list_gen@V?$adjacency_list@UvecS@boost@@U12@UundirectedS@2@UVertexProperty@internal@easy3d@@UEdgeProperty@56@Uno_property@2@UlistS@2@@boost@@UvecS@2@U32@UundirectedS@2@UVertexProperty@internal@easy3d@@UEdgeProperty@67@Uno_property@2@UlistS@2@@detail@boost@@@std@@@std@@AEAAPEAUstored_vertex@config@?$adj_list_gen@V?$adjacency_list@UvecS@boost@@U12@UundirectedS@2@UVertexProperty@internal@easy3d@@UEdgeProperty@56@Uno_property@2@UlistS@2@@boost@@UvecS@2@U32@UundirectedS@2@UVertexProperty@internal@easy3d@@UEdgeProperty@67@Uno_property@2@UlistS@2@@detail@boost@@QEAU23456@$$QEAU23456@@Z
	??$_Emplace_reallocate@V?$PlyColorAndValueVertex@M@@@?$vector@V?$PlyColorAndValueVertex@M@@V?$allocator@V?$PlyColorAndValueVertex@M@@@std@@@std@@AEAAPEAV?$PlyColorAndValueVertex@M@@QEAV2@$$QEAV2@@Z
	??$_Emplace_reallocate@V?$Vec@$01H@easy3d@@@?$vector@V?$Vec@$01H@easy3d@@V?$allocator@V?$Vec@$01H@easy3d@@@std@@@std@@AEAAPEAV?$Vec@$01H@easy3d@@QEAV23@$$QEAV23@@Z
	??$_Emplace_reallocate@V?$Vec@$01M@easy3d@@@?$vector@V?$Vec@$01M@easy3d@@V?$allocator@V?$Vec@$01M@easy3d@@@std@@@std@@AEAAPEAV?$Vec@$01M@easy3d@@QEAV23@$$QEAV23@@Z
	??$_Emplace_reallocate@V?$VertexProperty@V?$Vec@$02M@easy3d@@@PointCloud@easy3d@@@?$vector@VMST_Graph@internal@easy3d@@V?$allocator@VMST_Graph@internal@easy3d@@@std@@@std@@AEAAPEAVMST_Graph@internal@easy3d@@QEAV234@$$QEAV?$VertexProperty@V?$Vec@$02M@easy3d@@@PointCloud@4@@Z
	??$_Emplace_reallocate@V?$stored_edge_iter@_KV?$_List_iterator@V?$_List_val@U?$_List_simple_types@U?$list_edge@_KUEdgeProperty@internal@easy3d@@@boost@@@std@@@std@@@std@@UEdgeProperty@internal@easy3d@@@detail@boost@@@?$vector@V?$stored_edge_iter@_KV?$_List_iterator@V?$_List_val@U?$_List_simple_types@U?$list_edge@_KUEdgeProperty@internal@easy3d@@@boost@@@std@@@std@@@std@@UEdgeProperty@internal@easy3d@@@detail@boost@@V?$allocator@V?$stored_edge_iter@_KV?$_List_iterator@V?$_List_val@U?$_List_simple_types@U?$list_edge@_KUEdgeProperty@internal@easy3d@@@boost@@@std@@@std@@@std@@UEdgeProperty@internal@easy3d@@@detail@boost@@@std@@@std@@AEAAPEAV?$stored_edge_iter@_KV?$_List_iterator@V?$_List_val@U?$_List_simple_types@U?$list_edge@_KUEdgeProperty@internal@easy3d@@@boost@@@std@@@std@@@std@@UEdgeProperty@internal@easy3d@@@detail@boost@@QEAV234@$$QEAV234@@Z
	??$_Emplace_reallocate@V?$stored_edge_property@_KUno_property@boost@@@detail@boost@@@?$vector@V?$stored_edge_property@_KUno_property@boost@@@detail@boost@@V?$allocator@V?$stored_edge_property@_KUno_property@boost@@@detail@boost@@@std@@@std@@AEAAPEAV?$stored_edge_property@_KUno_property@boost@@@detail@boost@@QEAV234@$$QEAV234@@Z
	??$_Emplace_reallocate@VSurfaceMeshComponent@easy3d@@@?$vector@VSurfaceMeshComponent@easy3d@@V?$allocator@VSurfaceMeshComponent@easy3d@@@std@@@std@@AEAAPEAVSurfaceMeshComponent@easy3d@@QEAV23@$$QEAV23@@Z
	??$_Emplace_reallocate@_K@?$vector@_KV?$allocator@_K@std@@@std@@AEAAPEA_KQEA_K$$QEA_K@Z
	??$_Erase_tree@V?$allocator@U?$_Tree_node@U?$pair@$$CBUHalfedge@SurfaceMesh@easy3d@@UVirtualEdge@SurfaceMeshGeodesic@3@@std@@PEAX@std@@@std@@@?$_Tree_val@U?$_Tree_simple_types@U?$pair@$$CBUHalfedge@SurfaceMesh@easy3d@@UVirtualEdge@SurfaceMeshGeodesic@3@@std@@@std@@@std@@QEAAXAEAV?$allocator@U?$_Tree_node@U?$pair@$$CBUHalfedge@SurfaceMesh@easy3d@@UVirtualEdge@SurfaceMeshGeodesic@3@@std@@PEAX@std@@@1@PEAU?$_Tree_node@U?$pair@$$CBUHalfedge@SurfaceMesh@easy3d@@UVirtualEdge@SurfaceMeshGeodesic@3@@std@@PEAX@1@@Z
	??$_Erase_tree@V?$allocator@U?$_Tree_node@U?$pair@$$CBUVertex@SurfaceMesh@easy3d@@N@std@@PEAX@std@@@std@@@?$_Tree_val@U?$_Tree_simple_types@U?$pair@$$CBUVertex@SurfaceMesh@easy3d@@N@std@@@std@@@std@@QEAAXAEAV?$allocator@U?$_Tree_node@U?$pair@$$CBUVertex@SurfaceMesh@easy3d@@N@std@@PEAX@std@@@1@PEAU?$_Tree_node@U?$pair@$$CBUVertex@SurfaceMesh@easy3d@@N@std@@PEAX@1@@Z
	??$_Erase_tree@V?$allocator@U?$_Tree_node@UHalfedge@SurfaceMesh@easy3d@@PEAX@std@@@std@@@?$_Tree_val@U?$_Tree_simple_types@UHalfedge@SurfaceMesh@easy3d@@@std@@@std@@QEAAXAEAV?$allocator@U?$_Tree_node@UHalfedge@SurfaceMesh@easy3d@@PEAX@std@@@1@PEAU?$_Tree_node@UHalfedge@SurfaceMesh@easy3d@@PEAX@1@@Z
	??$_Erase_tree@V?$allocator@U?$_Tree_node@UPointPair@internal@easy3d@@PEAX@std@@@std@@@?$_Tree_val@U?$_Tree_simple_types@UPointPair@internal@easy3d@@@std@@@std@@QEAAXAEAV?$allocator@U?$_Tree_node@UPointPair@internal@easy3d@@PEAX@std@@@1@PEAU?$_Tree_node@UPointPair@internal@easy3d@@PEAX@1@@Z
	??$_Erase_tree@V?$allocator@U?$_Tree_node@UVertex@SurfaceMesh@easy3d@@PEAX@std@@@std@@@?$_Tree_val@U?$_Tree_simple_types@UVertex@SurfaceMesh@easy3d@@@std@@@std@@QEAAXAEAV?$allocator@U?$_Tree_node@UVertex@SurfaceMesh@easy3d@@PEAX@std@@@1@PEAU?$_Tree_node@UVertex@SurfaceMesh@easy3d@@PEAX@1@@Z
	??$_Erase_tree@V?$allocator@U?$_Tree_node@W4PrimType@PrimitivesRansac@easy3d@@PEAX@std@@@std@@@?$_Tree_val@U?$_Tree_simple_types@W4PrimType@PrimitivesRansac@easy3d@@@std@@@std@@QEAAXAEAV?$allocator@U?$_Tree_node@W4PrimType@PrimitivesRansac@easy3d@@PEAX@std@@@1@PEAU?$_Tree_node@W4PrimType@PrimitivesRansac@easy3d@@PEAX@1@@Z
	??$_Fill_memset@PEADD@std@@YAXPEADD_K@Z
	??$_Fill_memset@PEAEE@std@@YAXPEAEE_K@Z
	??$_Fill_zero_memset@PEAH@std@@YAXPEAH_K@Z
	??$_Fill_zero_memset@PEAI@std@@YAXPEAI_K@Z
	??$_Fill_zero_memset@PEAM@std@@YAXPEAM_K@Z
	??$_Fill_zero_memset@PEAN@std@@YAXPEAN_K@Z
	??$_Fill_zero_memset@PEA_K@std@@YAXPEA_K_K@Z
	??$_Fnv1a_append_value@H@std@@YA_K_KAEBH@Z
	??$_Fnv1a_append_value@N@std@@YA_K_KAEBN@Z
	??$_Fnv1a_append_value@_J@std@@YA_K_KAEB_J@Z
	??$_Fnv1a_append_value@_K@std@@YA_K_KAEB_K@Z
	??$_Free_non_head@V?$allocator@U?$_List_node@U?$pair@$$CB_JV?$vector@U_IsoEdge@?$Octree@M@@V?$allocator@U_IsoEdge@?$Octree@M@@@std@@@std@@@std@@PEAX@std@@@std@@@?$_List_node@U?$pair@$$CB_JV?$vector@U_IsoEdge@?$Octree@M@@V?$allocator@U_IsoEdge@?$Octree@M@@@std@@@std@@@std@@PEAX@std@@SAXAEAV?$allocator@U?$_List_node@U?$pair@$$CB_JV?$vector@U_IsoEdge@?$Octree@M@@V?$allocator@U_IsoEdge@?$Octree@M@@@std@@@std@@@std@@PEAX@std@@@1@PEAU01@@Z
	??$_Freenode@V?$allocator@U?$_List_node@U?$pair@$$CB_JV?$vector@U_IsoEdge@?$Octree@M@@V?$allocator@U_IsoEdge@?$Octree@M@@@std@@@std@@@std@@PEAX@std@@@std@@@?$_List_node@U?$pair@$$CB_JV?$vector@U_IsoEdge@?$Octree@M@@V?$allocator@U_IsoEdge@?$Octree@M@@@std@@@std@@@std@@PEAX@std@@SAXAEAV?$allocator@U?$_List_node@U?$pair@$$CB_JV?$vector@U_IsoEdge@?$Octree@M@@V?$allocator@U_IsoEdge@?$Octree@M@@@std@@@std@@@std@@PEAX@std@@@1@PEAU01@@Z
	??$_Getvals@_W@?$time_get@DV?$istreambuf_iterator@DU?$char_traits@D@std@@@std@@@std@@IEAAX_WAEBV_Locinfo@1@@Z
	??$_Getvals@_W@?$time_get@_WV?$istreambuf_iterator@_WU?$char_traits@_W@std@@@std@@@std@@IEAAX_WAEBV_Locinfo@1@@Z
	??$_Global_new@V?$_Func_impl_no_alloc@V<lambda_cbc5b4675dcfc3b66066f18034516e50>@@U?$ProjectiveData@U?$OrientedPoint3D@M@@M@@PEAV?$OctNode@VTreeNodeData@@@@@std@@AEBV<lambda_cbc5b4675dcfc3b66066f18034516e50>@@@std@@YAPEAV?$_Func_impl_no_alloc@V<lambda_cbc5b4675dcfc3b66066f18034516e50>@@U?$ProjectiveData@U?$OrientedPoint3D@M@@M@@PEAV?$OctNode@VTreeNodeData@@@@@0@AEBV<lambda_cbc5b4675dcfc3b66066f18034516e50>@@@Z
	??$_Global_new@V?$_Func_impl_no_alloc@V<lambda_cbc5b4675dcfc3b66066f18034516e50>@@U?$ProjectiveData@U?$OrientedPoint3D@M@@M@@PEAV?$OctNode@VTreeNodeData@@@@@std@@V<lambda_cbc5b4675dcfc3b66066f18034516e50>@@@std@@YAPEAV?$_Func_impl_no_alloc@V<lambda_cbc5b4675dcfc3b66066f18034516e50>@@U?$ProjectiveData@U?$OrientedPoint3D@M@@M@@PEAV?$OctNode@VTreeNodeData@@@@@0@$$QEAV<lambda_cbc5b4675dcfc3b66066f18034516e50>@@@Z
	??$_Guess_median_unchecked@PEAIU?$less@X@std@@@std@@YAXPEAI00U?$less@X@0@@Z
	??$_Guess_median_unchecked@PEAUVertex@SurfaceMesh@easy3d@@U?$less@X@std@@@std@@YAXPEAUVertex@SurfaceMesh@easy3d@@00U?$less@X@0@@Z
	??$_Hash_representation@H@std@@YA_KAEBH@Z
	??$_Hash_representation@N@std@@YA_KAEBN@Z
	??$_Hash_representation@_J@std@@YA_KAEB_J@Z
	??$_Hash_representation@_K@std@@YA_KAEB_K@Z
	??$_Insert_counted_range@PEAV?$GenericPolygon@M@easy3d@@@?$vector@V?$GenericPolygon@M@easy3d@@V?$allocator@V?$GenericPolygon@M@easy3d@@@std@@@std@@AEAAXV?$_Vector_const_iterator@V?$_Vector_val@U?$_Simple_types@V?$GenericPolygon@M@easy3d@@@std@@@std@@@1@PEAV?$GenericPolygon@M@easy3d@@_K@Z
	??$_IsZero@M@?$Octree@M@@KA_NAEBM@Z
	??$_IsZero@N@?$Octree@N@@KA_NAEBN@Z
	??$_IsZero@U?$Point3D@M@@@?$Octree@M@@KA_NAEBU?$Point3D@M@@@Z
	??$_IsZero@U?$Point3D@N@@@?$Octree@N@@KA_NAEBU?$Point3D@N@@@Z
	??$_Is_all_bits_zero@H@std@@YA_NAEBH@Z
	??$_Is_all_bits_zero@I@std@@YA_NAEBI@Z
	??$_Is_all_bits_zero@M@std@@YA_NAEBM@Z
	??$_Is_all_bits_zero@N@std@@YA_NAEBN@Z
	??$_Is_all_bits_zero@_K@std@@YA_NAEB_K@Z
	??$_Make_heap_unchecked@PEAUVertex@SurfaceMesh@easy3d@@VVertexCmp@SurfaceMeshGeodesic@3@@std@@YAXPEAUVertex@SurfaceMesh@easy3d@@0VVertexCmp@SurfaceMeshGeodesic@3@@Z
	??$_Maklocstr@D@std@@YAPEADPEBDPEADAEBU_Cvtvec@@@Z
	??$_Med3_unchecked@PEAUVertex@SurfaceMesh@easy3d@@VVertexCmp@SurfaceMeshGeodesic@3@@std@@YAXPEAUVertex@SurfaceMesh@easy3d@@00VVertexCmp@SurfaceMeshGeodesic@3@@Z
	??$_Move_backward_unchecked@PEAVSurfaceMeshComponent@easy3d@@PEAV12@@std@@YAPEAVSurfaceMeshComponent@easy3d@@PEAV12@00@Z
	??$_Move_unchecked@PEAV?$GenericPolygon@M@easy3d@@PEAV12@@std@@YAPEAV?$GenericPolygon@M@easy3d@@PEAV12@00@Z
	??$_Nrand_impl@NV?$mersenne_twister_engine@I$0CA@$0CHA@$0BIN@$0BP@$0JJAILANP@$0L@$0PPPPPPPP@$06$0JNCMFGIA@$0P@$0OPMGAAAA@$0BC@$0GMAHIJGF@@std@@@std@@YANAEAV?$mersenne_twister_engine@I$0CA@$0CHA@$0BIN@$0BP@$0JJAILANP@$0L@$0PPPPPPPP@$06$0JNCMFGIA@$0P@$0OPMGAAAA@$0BC@$0GMAHIJGF@@0@@Z
	??$_Partition_by_median_guess_unchecked@PEAUVertex@SurfaceMesh@easy3d@@VVertexCmp@SurfaceMeshGeodesic@3@@std@@YA?AU?$pair@PEAUVertex@SurfaceMesh@easy3d@@PEAU123@@0@PEAUVertex@SurfaceMesh@easy3d@@0VVertexCmp@SurfaceMeshGeodesic@4@@Z
	??$_Pop_heap_hole_by_index@PEAUVertex@SurfaceMesh@easy3d@@U123@VVertexCmp@SurfaceMeshGeodesic@3@@std@@YAXPEAUVertex@SurfaceMesh@easy3d@@_J1$$QEAU123@VVertexCmp@SurfaceMeshGeodesic@3@@Z
	??$_Reallocate_grow_by@V<lambda_65e615be2a453ca0576c979606f46740>@@PEBD_K@?$basic_string@DU?$char_traits@D@std@@V?$allocator@D@2@@std@@AEAAAEAV01@_KV<lambda_65e615be2a453ca0576c979606f46740>@@PEBD_K@Z
	??$_Resize@D@?$vector@DV?$allocator@D@std@@@std@@AEAAX_KAEBD@Z
	??$_Resize@E@?$vector@EV?$allocator@E@std@@@std@@AEAAX_KAEBE@Z
	??$_Resize@H@?$vector@HV?$allocator@H@std@@@std@@AEAAX_KAEBH@Z
	??$_Resize@I@?$vector@IV?$allocator@I@std@@@std@@AEAAX_KAEBI@Z
	??$_Resize@M@?$vector@MV?$allocator@M@std@@@std@@AEAAX_KAEBM@Z
	??$_Resize@N@?$vector@NV?$allocator@N@std@@@std@@AEAAX_KAEBN@Z
	??$_Resize@UFace@SurfaceMesh@easy3d@@@?$vector@UFace@SurfaceMesh@easy3d@@V?$allocator@UFace@SurfaceMesh@easy3d@@@std@@@std@@AEAAX_KAEBUFace@SurfaceMesh@easy3d@@@Z
	??$_Resize@UHalfedge@SurfaceMesh@easy3d@@@?$vector@UHalfedge@SurfaceMesh@easy3d@@V?$allocator@UHalfedge@SurfaceMesh@easy3d@@@std@@@std@@AEAAX_KAEBUHalfedge@SurfaceMesh@easy3d@@@Z
	??$_Resize@UVertex@SurfaceMesh@easy3d@@@?$vector@UVertex@SurfaceMesh@easy3d@@V?$allocator@UVertex@SurfaceMesh@easy3d@@@std@@@std@@AEAAX_KAEBUVertex@SurfaceMesh@easy3d@@@Z
	??$_Resize@V?$Vec@$01M@easy3d@@@?$vector@V?$Vec@$01M@easy3d@@V?$allocator@V?$Vec@$01M@easy3d@@@std@@@std@@AEAAX_KAEBV?$Vec@$01M@easy3d@@@Z
	??$_Resize@V?$Vec@$01N@easy3d@@@?$vector@V?$Vec@$01N@easy3d@@V?$allocator@V?$Vec@$01N@easy3d@@@std@@@std@@AEAAX_KAEBV?$Vec@$01N@easy3d@@@Z
	??$_Resize@V?$Vec@$02M@easy3d@@@?$vector@V?$Vec@$02M@easy3d@@V?$allocator@V?$Vec@$02M@easy3d@@@std@@@std@@AEAAX_KAEBV?$Vec@$02M@easy3d@@@Z
	??$_Resize@V?$Vec@$02N@easy3d@@@?$vector@V?$Vec@$02N@easy3d@@V?$allocator@V?$Vec@$02N@easy3d@@@std@@@std@@AEAAX_KAEBV?$Vec@$02N@easy3d@@@Z
	??$_Resize@VNormalCone@easy3d@@@?$vector@VNormalCone@easy3d@@V?$allocator@VNormalCone@easy3d@@@std@@@std@@AEAAX_KAEBVNormalCone@easy3d@@@Z
	??$_Resize@VQuadric@easy3d@@@?$vector@VQuadric@easy3d@@V?$allocator@VQuadric@easy3d@@@std@@@std@@AEAAX_KAEBVQuadric@easy3d@@@Z
	??$_Resize@_K@?$vector@_KV?$allocator@_K@std@@@std@@AEAAX_KAEB_K@Z
	??$_Resize_reallocate@D@?$vector@DV?$allocator@D@std@@@std@@AEAAX_KAEBD@Z
	??$_Resize_reallocate@E@?$vector@EV?$allocator@E@std@@@std@@AEAAX_KAEBE@Z
	??$_Resize_reallocate@H@?$vector@HV?$allocator@H@std@@@std@@AEAAX_KAEBH@Z
	??$_Resize_reallocate@I@?$vector@IV?$allocator@I@std@@@std@@AEAAX_KAEBI@Z
	??$_Resize_reallocate@M@?$vector@MV?$allocator@M@std@@@std@@AEAAX_KAEBM@Z
	??$_Resize_reallocate@N@?$vector@NV?$allocator@N@std@@@std@@AEAAX_KAEBN@Z
	??$_Resize_reallocate@U?$BSplineElementCoefficients@$00@@@?$vector@U?$BSplineElementCoefficients@$00@@V?$allocator@U?$BSplineElementCoefficients@$00@@@std@@@std@@AEAAX_KAEBU?$BSplineElementCoefficients@$00@@@Z
	??$_Resize_reallocate@U?$BSplineElementCoefficients@$01@@@?$vector@U?$BSplineElementCoefficients@$01@@V?$allocator@U?$BSplineElementCoefficients@$01@@@std@@@std@@AEAAX_KAEBU?$BSplineElementCoefficients@$01@@@Z
	??$_Resize_reallocate@UFace@SurfaceMesh@easy3d@@@?$vector@UFace@SurfaceMesh@easy3d@@V?$allocator@UFace@SurfaceMesh@easy3d@@@std@@@std@@AEAAX_KAEBUFace@SurfaceMesh@easy3d@@@Z
	??$_Resize_reallocate@UHalfedge@SurfaceMesh@easy3d@@@?$vector@UHalfedge@SurfaceMesh@easy3d@@V?$allocator@UHalfedge@SurfaceMesh@easy3d@@@std@@@std@@AEAAX_KAEBUHalfedge@SurfaceMesh@easy3d@@@Z
	??$_Resize_reallocate@UVertex@SurfaceMesh@easy3d@@@?$vector@UVertex@SurfaceMesh@easy3d@@V?$allocator@UVertex@SurfaceMesh@easy3d@@@std@@@std@@AEAAX_KAEBUVertex@SurfaceMesh@easy3d@@@Z
	??$_Resize_reallocate@U_Value_init_tag@std@@@?$vector@EV?$allocator@E@std@@@std@@AEAAX_KAEBU_Value_init_tag@1@@Z
	??$_Resize_reallocate@U_Value_init_tag@std@@@?$vector@HV?$allocator@H@std@@@std@@AEAAX_KAEBU_Value_init_tag@1@@Z
	??$_Resize_reallocate@U_Value_init_tag@std@@@?$vector@IV?$allocator@I@std@@@std@@AEAAX_KAEBU_Value_init_tag@1@@Z
	??$_Resize_reallocate@U_Value_init_tag@std@@@?$vector@U?$BSplineElementCoefficients@$00@@V?$allocator@U?$BSplineElementCoefficients@$00@@@std@@@std@@AEAAX_KAEBU_Value_init_tag@1@@Z
	??$_Resize_reallocate@U_Value_init_tag@std@@@?$vector@U?$BSplineElementCoefficients@$01@@V?$allocator@U?$BSplineElementCoefficients@$01@@@std@@@std@@AEAAX_KAEBU_Value_init_tag@1@@Z
	??$_Resize_reallocate@U_Value_init_tag@std@@@?$vector@U?$BSplineElementCoefficients@$0A@@@V?$allocator@U?$BSplineElementCoefficients@$0A@@@@std@@@std@@AEAAX_KAEBU_Value_init_tag@1@@Z
	??$_Resize_reallocate@U_Value_init_tag@std@@@?$vector@U?$ConstPointSupportKey@$01@@V?$allocator@U?$ConstPointSupportKey@$01@@@std@@@std@@AEAAX_KAEBU_Value_init_tag@1@@Z
	??$_Resize_reallocate@U_Value_init_tag@std@@@?$vector@U?$Point3D@M@@V?$allocator@U?$Point3D@M@@@std@@@std@@AEAAX_KAEBU_Value_init_tag@1@@Z
	??$_Resize_reallocate@U_Value_init_tag@std@@@?$vector@U?$ProjectiveData@U?$Point3D@M@@M@@V?$allocator@U?$ProjectiveData@U?$Point3D@M@@M@@@std@@@std@@AEAAX_KAEBU_Value_init_tag@1@@Z
	??$_Resize_reallocate@U_Value_init_tag@std@@@?$vector@U?$pair@UFace@SurfaceMesh@easy3d@@U123@@std@@V?$allocator@U?$pair@UFace@SurfaceMesh@easy3d@@U123@@std@@@2@@std@@AEAAX_KAEBU_Value_init_tag@1@@Z
	??$_Resize_reallocate@U_Value_init_tag@std@@@?$vector@UCoredVertexIndex@@V?$allocator@UCoredVertexIndex@@@std@@@std@@AEAAX_KAEBU_Value_init_tag@1@@Z
	??$_Resize_reallocate@U_Value_init_tag@std@@@?$vector@UPointSample@?$Octree@M@@V?$allocator@UPointSample@?$Octree@M@@@std@@@std@@AEAAX_KAEBU_Value_init_tag@1@@Z
	??$_Resize_reallocate@U_Value_init_tag@std@@@?$vector@UVertex@SurfaceMesh@easy3d@@V?$allocator@UVertex@SurfaceMesh@easy3d@@@std@@@std@@AEAAX_KAEBU_Value_init_tag@1@@Z
	??$_Resize_reallocate@U_Value_init_tag@std@@@?$vector@U_IsoEdge@?$Octree@M@@V?$allocator@U_IsoEdge@?$Octree@M@@@std@@@std@@AEAAX_KAEBU_Value_init_tag@1@@Z
	??$_Resize_reallocate@U_Value_init_tag@std@@@?$vector@Ustored_vertex@config@?$adj_list_gen@V?$adjacency_list@UvecS@boost@@U12@UdirectedS@2@UMST_VertexProperty@internal@easy3d@@Uno_property@2@U72@UlistS@2@@boost@@UvecS@2@U32@UdirectedS@2@UMST_VertexProperty@internal@easy3d@@Uno_property@2@U82@UlistS@2@@detail@boost@@V?$allocator@Ustored_vertex@config@?$adj_list_gen@V?$adjacency_list@UvecS@boost@@U12@UdirectedS@2@UMST_VertexProperty@internal@easy3d@@Uno_property@2@U72@UlistS@2@@boost@@UvecS@2@U32@UdirectedS@2@UMST_VertexProperty@internal@easy3d@@Uno_property@2@U82@UlistS@2@@detail@boost@@@std@@@std@@AEAAX_KAEBU_Value_init_tag@1@@Z
	??$_Resize_reallocate@U_Value_init_tag@std@@@?$vector@Ustored_vertex@config@?$adj_list_gen@V?$adjacency_list@UvecS@boost@@U12@UundirectedS@2@UVertexProperty@internal@easy3d@@UEdgeProperty@56@Uno_property@2@UlistS@2@@boost@@UvecS@2@U32@UundirectedS@2@UVertexProperty@internal@easy3d@@UEdgeProperty@67@Uno_property@2@UlistS@2@@detail@boost@@V?$allocator@Ustored_vertex@config@?$adj_list_gen@V?$adjacency_list@UvecS@boost@@U12@UundirectedS@2@UVertexProperty@internal@easy3d@@UEdgeProperty@56@Uno_property@2@UlistS@2@@boost@@UvecS@2@U32@UundirectedS@2@UVertexProperty@internal@easy3d@@UEdgeProperty@67@Uno_property@2@UlistS@2@@detail@boost@@@std@@@std@@AEAAX_KAEBU_Value_init_tag@1@@Z
	??$_Resize_reallocate@U_Value_init_tag@std@@@?$vector@V?$vector@HV?$allocator@H@std@@@std@@V?$allocator@V?$vector@HV?$allocator@H@std@@@std@@@2@@std@@AEAAX_KAEBU_Value_init_tag@1@@Z
	??$_Resize_reallocate@U_Value_init_tag@std@@@?$vector@V?$vector@IV?$allocator@I@std@@@std@@V?$allocator@V?$vector@IV?$allocator@I@std@@@std@@@2@@std@@AEAAX_KAEBU_Value_init_tag@1@@Z
	??$_Resize_reallocate@U_Value_init_tag@std@@@?$vector@V?$vector@_JV?$allocator@_J@std@@@std@@V?$allocator@V?$vector@_JV?$allocator@_J@std@@@std@@@2@@std@@AEAAX_KAEBU_Value_init_tag@1@@Z
	??$_Resize_reallocate@U_Value_init_tag@std@@@?$vector@VTriangleIndex@@V?$allocator@VTriangleIndex@@@std@@@std@@AEAAX_KAEBU_Value_init_tag@1@@Z
	??$_Resize_reallocate@V?$Vec@$01M@easy3d@@@?$vector@V?$Vec@$01M@easy3d@@V?$allocator@V?$Vec@$01M@easy3d@@@std@@@std@@AEAAX_KAEBV?$Vec@$01M@easy3d@@@Z
	??$_Resize_reallocate@V?$Vec@$01N@easy3d@@@?$vector@V?$Vec@$01N@easy3d@@V?$allocator@V?$Vec@$01N@easy3d@@@std@@@std@@AEAAX_KAEBV?$Vec@$01N@easy3d@@@Z
	??$_Resize_reallocate@V?$Vec@$02M@easy3d@@@?$vector@V?$Vec@$02M@easy3d@@V?$allocator@V?$Vec@$02M@easy3d@@@std@@@std@@AEAAX_KAEBV?$Vec@$02M@easy3d@@@Z
	??$_Resize_reallocate@V?$Vec@$02N@easy3d@@@?$vector@V?$Vec@$02N@easy3d@@V?$allocator@V?$Vec@$02N@easy3d@@@std@@@std@@AEAAX_KAEBV?$Vec@$02N@easy3d@@@Z
	??$_Resize_reallocate@V?$vector@HV?$allocator@H@std@@@std@@@?$vector@V?$vector@HV?$allocator@H@std@@@std@@V?$allocator@V?$vector@HV?$allocator@H@std@@@std@@@2@@std@@AEAAX_KAEBV?$vector@HV?$allocator@H@std@@@1@@Z
	??$_Resize_reallocate@V?$vector@MV?$allocator@M@std@@@std@@@?$vector@V?$vector@MV?$allocator@M@std@@@std@@V?$allocator@V?$vector@MV?$allocator@M@std@@@std@@@2@@std@@AEAAX_KAEBV?$vector@MV?$allocator@M@std@@@1@@Z
	??$_Resize_reallocate@V?$vector@UWeight@SurfaceMeshHoleFilling@easy3d@@V?$allocator@UWeight@SurfaceMeshHoleFilling@easy3d@@@std@@@std@@@?$vector@V?$vector@UWeight@SurfaceMeshHoleFilling@easy3d@@V?$allocator@UWeight@SurfaceMeshHoleFilling@easy3d@@@std@@@std@@V?$allocator@V?$vector@UWeight@SurfaceMeshHoleFilling@easy3d@@V?$allocator@UWeight@SurfaceMeshHoleFilling@easy3d@@@std@@@std@@@2@@std@@AEAAX_KAEBV?$vector@UWeight@SurfaceMeshHoleFilling@easy3d@@V?$allocator@UWeight@SurfaceMeshHoleFilling@easy3d@@@std@@@1@@Z
	??$_Resize_reallocate@V?$vector@V?$Vec@$02M@easy3d@@V?$allocator@V?$Vec@$02M@easy3d@@@std@@@std@@@?$vector@V?$vector@V?$Vec@$02M@easy3d@@V?$allocator@V?$Vec@$02M@easy3d@@@std@@@std@@V?$allocator@V?$vector@V?$Vec@$02M@easy3d@@V?$allocator@V?$Vec@$02M@easy3d@@@std@@@std@@@2@@std@@AEAAX_KAEBV?$vector@V?$Vec@$02M@easy3d@@V?$allocator@V?$Vec@$02M@easy3d@@@std@@@1@@Z
	??$_Resize_reallocate@VNormalCone@easy3d@@@?$vector@VNormalCone@easy3d@@V?$allocator@VNormalCone@easy3d@@@std@@@std@@AEAAX_KAEBVNormalCone@easy3d@@@Z
	??$_Resize_reallocate@VQuadric@easy3d@@@?$vector@VQuadric@easy3d@@V?$allocator@VQuadric@easy3d@@@std@@@std@@AEAAX_KAEBVQuadric@easy3d@@@Z
	??$_Resize_reallocate@_K@?$vector@_KV?$allocator@_K@std@@@std@@AEAAX_KAEB_K@Z
	??$_SetParentOverlapBounds@$01$01@?$Octree@M@@KAXPEBV?$OctNode@VTreeNodeData@@@@AEAH11111@Z
	??$_Sort_unchecked@PEAIU?$less@X@std@@@std@@YAXPEAI0_JU?$less@X@0@@Z
	??$_Sort_unchecked@PEAUVertex@SurfaceMesh@easy3d@@U?$less@X@std@@@std@@YAXPEAUVertex@SurfaceMesh@easy3d@@0_JU?$less@X@0@@Z
	??$_Sort_unchecked@PEAUVertex@SurfaceMesh@easy3d@@VVertexCmp@SurfaceMeshGeodesic@3@@std@@YAXPEAUVertex@SurfaceMesh@easy3d@@0_JVVertexCmp@SurfaceMeshGeodesic@3@@Z
	??$_Test_callable@$$A6AXV?$edge_desc_impl@Udirected_tag@boost@@_K@detail@boost@@AEAVMST_Graph@internal@easy3d@@@Z@std@@YA_NA6AXV?$edge_desc_impl@Udirected_tag@boost@@_K@detail@boost@@AEAVMST_Graph@internal@easy3d@@@Z@Z
	??$_Test_callable@V<lambda_17731faf86688589c88379bfdd83a964>@@@std@@YA_NAEBV<lambda_17731faf86688589c88379bfdd83a964>@@@Z
	??$_Test_callable@V<lambda_cbc5b4675dcfc3b66066f18034516e50>@@@std@@YA_NAEBV<lambda_cbc5b4675dcfc3b66066f18034516e50>@@@Z
	??$_Try_emplace@AEBH$$V@?$_Hash@V?$_Umap_traits@HHV?$_Uhash_compare@HU?$hash@H@std@@U?$equal_to@H@2@@std@@V?$allocator@U?$pair@$$CBHH@std@@@2@$0A@@std@@@std@@IEAA?AU?$pair@PEAU?$_List_node@U?$pair@$$CBHH@std@@PEAX@std@@_N@1@AEBH@Z
	??$_Try_emplace@AEB_J$$V@?$_Hash@V?$_Umap_traits@_JHV?$_Uhash_compare@_JU?$hash@_J@std@@U?$equal_to@_J@2@@std@@V?$allocator@U?$pair@$$CB_JH@std@@@2@$0A@@std@@@std@@IEAA?AU?$pair@PEAU?$_List_node@U?$pair@$$CB_JH@std@@PEAX@std@@_N@1@AEB_J@Z
	??$_Try_emplace@AEB_J$$V@?$_Hash@V?$_Umap_traits@_JU?$pair@HV?$PlyColorAndValueVertex@M@@@std@@V?$_Uhash_compare@_JU?$hash@_J@std@@U?$equal_to@_J@2@@2@V?$allocator@U?$pair@$$CB_JU?$pair@HV?$PlyColorAndValueVertex@M@@@std@@@std@@@2@$0A@@std@@@std@@IEAA?AU?$pair@PEAU?$_List_node@U?$pair@$$CB_JU?$pair@HV?$PlyColorAndValueVertex@M@@@std@@@std@@PEAX@std@@_N@1@AEB_J@Z
	??$_Try_emplace@AEB_J$$V@?$_Hash@V?$_Umap_traits@_JV?$vector@U_IsoEdge@?$Octree@M@@V?$allocator@U_IsoEdge@?$Octree@M@@@std@@@std@@V?$_Uhash_compare@_JU?$hash@_J@std@@U?$equal_to@_J@2@@2@V?$allocator@U?$pair@$$CB_JV?$vector@U_IsoEdge@?$Octree@M@@V?$allocator@U_IsoEdge@?$Octree@M@@@std@@@std@@@std@@@2@$0A@@std@@@std@@IEAA?AU?$pair@PEAU?$_List_node@U?$pair@$$CB_JV?$vector@U_IsoEdge@?$Octree@M@@V?$allocator@U_IsoEdge@?$Octree@M@@@std@@@std@@@std@@PEAX@std@@_N@1@AEB_J@Z
	??$_Try_emplace@AEB_J$$V@?$_Hash@V?$_Umap_traits@_J_JV?$_Uhash_compare@_JU?$hash@_J@std@@U?$equal_to@_J@2@@std@@V?$allocator@U?$pair@$$CB_J_J@std@@@2@$0A@@std@@@std@@IEAA?AU?$pair@PEAU?$_List_node@U?$pair@$$CB_J_J@std@@PEAX@std@@_N@1@AEB_J@Z
	??$_Try_emplace@AEB_K$$V@?$_Hash@V?$_Umap_traits@_KUVertex@SurfaceMesh@easy3d@@V?$_Uhash_compare@_KU?$hash@_K@std@@U?$equal_to@_K@2@@std@@V?$allocator@U?$pair@$$CB_KUVertex@SurfaceMesh@easy3d@@@std@@@5@$0A@@std@@@std@@IEAA?AU?$pair@PEAU?$_List_node@U?$pair@$$CB_KUVertex@SurfaceMesh@easy3d@@@std@@PEAX@std@@_N@1@AEB_K@Z
	??$_Try_emplace@AEB_K$$V@?$_Hash@V?$_Umap_traits@_K_KV?$_Uhash_compare@_KU?$hash@_K@std@@U?$equal_to@_K@2@@std@@V?$allocator@U?$pair@$$CB_K_K@std@@@2@$0A@@std@@@std@@IEAA?AU?$pair@PEAU?$_List_node@U?$pair@$$CB_K_K@std@@PEAX@std@@_N@1@AEB_K@Z
	??$_Try_emplace@_J$$V@?$_Hash@V?$_Umap_traits@_JHV?$_Uhash_compare@_JU?$hash@_J@std@@U?$equal_to@_J@2@@std@@V?$allocator@U?$pair@$$CB_JH@std@@@2@$0A@@std@@@std@@IEAA?AU?$pair@PEAU?$_List_node@U?$pair@$$CB_JH@std@@PEAX@std@@_N@1@$$QEA_J@Z
	??$_Try_emplace@_K$$V@?$_Hash@V?$_Umap_traits@_KUVertex@SurfaceMesh@easy3d@@V?$_Uhash_compare@_KU?$hash@_K@std@@U?$equal_to@_K@2@@std@@V?$allocator@U?$pair@$$CB_KUVertex@SurfaceMesh@easy3d@@@std@@@5@$0A@@std@@@std@@IEAA?AU?$pair@PEAU?$_List_node@U?$pair@$$CB_KUVertex@SurfaceMesh@easy3d@@@std@@PEAX@std@@_N@1@$$QEA_K@Z
	??$_Try_emplace@_K$$V@?$_Hash@V?$_Umap_traits@_K_KV?$_Uhash_compare@_KU?$hash@_K@std@@U?$equal_to@_K@2@@std@@V?$allocator@U?$pair@$$CB_K_K@std@@@2@$0A@@std@@@std@@IEAA?AU?$pair@PEAU?$_List_node@U?$pair@$$CB_K_K@std@@PEAX@std@@_N@1@$$QEA_K@Z
	??$_Uninitialized_fill_n@V?$allocator@H@std@@@std@@YAPEAHPEAH_KAEBHAEAV?$allocator@H@0@@Z
	??$_Uninitialized_fill_n@V?$allocator@I@std@@@std@@YAPEAIPEAI_KAEBIAEAV?$allocator@I@0@@Z
	??$_Uninitialized_fill_n@V?$allocator@M@std@@@std@@YAPEAMPEAM_KAEBMAEAV?$allocator@M@0@@Z
	??$_Uninitialized_fill_n@V?$allocator@N@std@@@std@@YAPEANPEAN_KAEBNAEAV?$allocator@N@0@@Z
	??$_Uninitialized_fill_n@V?$allocator@V?$vector@HV?$allocator@H@std@@@std@@@std@@@std@@YAPEAV?$vector@HV?$allocator@H@std@@@0@PEAV10@_KAEBV10@AEAV?$allocator@V?$vector@HV?$allocator@H@std@@@std@@@0@@Z
	??$_Uninitialized_fill_n@V?$allocator@V?$vector@MV?$allocator@M@std@@@std@@@std@@@std@@YAPEAV?$vector@MV?$allocator@M@std@@@0@PEAV10@_KAEBV10@AEAV?$allocator@V?$vector@MV?$allocator@M@std@@@std@@@0@@Z
	??$_Uninitialized_fill_n@V?$allocator@V?$vector@UWeight@SurfaceMeshHoleFilling@easy3d@@V?$allocator@UWeight@SurfaceMeshHoleFilling@easy3d@@@std@@@std@@@std@@@std@@YAPEAV?$vector@UWeight@SurfaceMeshHoleFilling@easy3d@@V?$allocator@UWeight@SurfaceMeshHoleFilling@easy3d@@@std@@@0@PEAV10@_KAEBV10@AEAV?$allocator@V?$vector@UWeight@SurfaceMeshHoleFilling@easy3d@@V?$allocator@UWeight@SurfaceMeshHoleFilling@easy3d@@@std@@@std@@@0@@Z
	??$_Uninitialized_fill_n@V?$allocator@V?$vector@V?$Vec@$02M@easy3d@@V?$allocator@V?$Vec@$02M@easy3d@@@std@@@std@@@std@@@std@@YAPEAV?$vector@V?$Vec@$02M@easy3d@@V?$allocator@V?$Vec@$02M@easy3d@@@std@@@0@PEAV10@_KAEBV10@AEAV?$allocator@V?$vector@V?$Vec@$02M@easy3d@@V?$allocator@V?$Vec@$02M@easy3d@@@std@@@std@@@0@@Z
	??$_Uninitialized_fill_n@V?$allocator@VQuadric@easy3d@@@std@@@std@@YAPEAVQuadric@easy3d@@PEAV12@_KAEBV12@AEAV?$allocator@VQuadric@easy3d@@@0@@Z
	??$_Uninitialized_fill_n@V?$allocator@_K@std@@@std@@YAPEA_KPEA_K_KAEB_KAEAV?$allocator@_K@0@@Z
	??$_Uninitialized_move@PEAU?$pair@_KU?$pair@V?$optional@V?$edge_desc_impl@Uundirected_tag@boost@@_K@detail@boost@@@boost@@U?$pair@U?$out_edge_iter@V?$_Vector_iterator@V?$_Vector_val@U?$_Simple_types@V?$stored_edge_iter@_KV?$_List_iterator@V?$_List_val@U?$_List_simple_types@U?$list_edge@_KUEdgeProperty@internal@easy3d@@@boost@@@std@@@std@@@std@@UEdgeProperty@internal@easy3d@@@detail@boost@@@std@@@std@@@std@@_KV?$edge_desc_impl@Uundirected_tag@boost@@_K@detail@boost@@_J@detail@boost@@U123@@std@@@std@@@std@@V?$allocator@U?$pair@_KU?$pair@V?$optional@V?$edge_desc_impl@Uundirected_tag@boost@@_K@detail@boost@@@boost@@U?$pair@U?$out_edge_iter@V?$_Vector_iterator@V?$_Vector_val@U?$_Simple_types@V?$stored_edge_iter@_KV?$_List_iterator@V?$_List_val@U?$_List_simple_types@U?$list_edge@_KUEdgeProperty@internal@easy3d@@@boost@@@std@@@std@@@std@@UEdgeProperty@internal@easy3d@@@detail@boost@@@std@@@std@@@std@@_KV?$edge_desc_impl@Uundirected_tag@boost@@_K@detail@boost@@_J@detail@boost@@U123@@std@@@std@@@std@@@2@@std@@YAPEAU?$pair@_KU?$pair@V?$optional@V?$edge_desc_impl@Uundirected_tag@boost@@_K@detail@boost@@@boost@@U?$pair@U?$out_edge_iter@V?$_Vector_iterator@V?$_Vector_val@U?$_Simple_types@V?$stored_edge_iter@_KV?$_List_iterator@V?$_List_val@U?$_List_simple_types@U?$list_edge@_KUEdgeProperty@internal@easy3d@@@boost@@@std@@@std@@@std@@UEdgeProperty@internal@easy3d@@@detail@boost@@@std@@@std@@@std@@_KV?$edge_desc_impl@Uundirected_tag@boost@@_K@detail@boost@@_J@detail@boost@@U123@@std@@@std@@@0@QEAU10@0PEAU10@AEAV?$allocator@U?$pair@_KU?$pair@V?$optional@V?$edge_desc_impl@Uundirected_tag@boost@@_K@detail@boost@@@boost@@U?$pair@U?$out_edge_iter@V?$_Vector_iterator@V?$_Vector_val@U?$_Simple_types@V?$stored_edge_iter@_KV?$_List_iterator@V?$_List_val@U?$_List_simple_types@U?$list_edge@_KUEdgeProperty@internal@easy3d@@@boost@@@std@@@std@@@std@@UEdgeProperty@internal@easy3d@@@detail@boost@@@std@@@std@@@std@@_KV?$edge_desc_impl@Uundirected_tag@boost@@_K@detail@boost@@_J@detail@boost@@U123@@std@@@std@@@std@@@0@@Z
	??$_Uninitialized_move@PEAUCylinderPrim@PrimitivesRansac@easy3d@@V?$allocator@UCylinderPrim@PrimitivesRansac@easy3d@@@std@@@std@@YAPEAUCylinderPrim@PrimitivesRansac@easy3d@@QEAU123@0PEAU123@AEAV?$allocator@UCylinderPrim@PrimitivesRansac@easy3d@@@0@@Z
	??$_Uninitialized_move@PEAUPlanePrim@PrimitivesRansac@easy3d@@V?$allocator@UPlanePrim@PrimitivesRansac@easy3d@@@std@@@std@@YAPEAUPlanePrim@PrimitivesRansac@easy3d@@QEAU123@0PEAU123@AEAV?$allocator@UPlanePrim@PrimitivesRansac@easy3d@@@0@@Z
	??$_Uninitialized_move@PEAUstored_vertex@config@?$adj_list_gen@V?$adjacency_list@UvecS@boost@@U12@UdirectedS@2@UMST_VertexProperty@internal@easy3d@@Uno_property@2@U72@UlistS@2@@boost@@UvecS@2@U32@UdirectedS@2@UMST_VertexProperty@internal@easy3d@@Uno_property@2@U82@UlistS@2@@detail@boost@@V?$allocator@Ustored_vertex@config@?$adj_list_gen@V?$adjacency_list@UvecS@boost@@U12@UdirectedS@2@UMST_VertexProperty@internal@easy3d@@Uno_property@2@U72@UlistS@2@@boost@@UvecS@2@U32@UdirectedS@2@UMST_VertexProperty@internal@easy3d@@Uno_property@2@U82@UlistS@2@@detail@boost@@@std@@@std@@YAPEAUstored_vertex@config@?$adj_list_gen@V?$adjacency_list@UvecS@boost@@U12@UdirectedS@2@UMST_VertexProperty@internal@easy3d@@Uno_property@2@U72@UlistS@2@@boost@@UvecS@2@U32@UdirectedS@2@UMST_VertexProperty@internal@easy3d@@Uno_property@2@U82@UlistS@2@@detail@boost@@QEAU12345@0PEAU12345@AEAV?$allocator@Ustored_vertex@config@?$adj_list_gen@V?$adjacency_list@UvecS@boost@@U12@UdirectedS@2@UMST_VertexProperty@internal@easy3d@@Uno_property@2@U72@UlistS@2@@boost@@UvecS@2@U32@UdirectedS@2@UMST_VertexProperty@internal@easy3d@@Uno_property@2@U82@UlistS@2@@detail@boost@@@0@@Z
	??$_Uninitialized_move@PEAUstored_vertex@config@?$adj_list_gen@V?$adjacency_list@UvecS@boost@@U12@UundirectedS@2@UVertexProperty@internal@easy3d@@UEdgeProperty@56@Uno_property@2@UlistS@2@@boost@@UvecS@2@U32@UundirectedS@2@UVertexProperty@internal@easy3d@@UEdgeProperty@67@Uno_property@2@UlistS@2@@detail@boost@@V?$allocator@Ustored_vertex@config@?$adj_list_gen@V?$adjacency_list@UvecS@boost@@U12@UundirectedS@2@UVertexProperty@internal@easy3d@@UEdgeProperty@56@Uno_property@2@UlistS@2@@boost@@UvecS@2@U32@UundirectedS@2@UVertexProperty@internal@easy3d@@UEdgeProperty@67@Uno_property@2@UlistS@2@@detail@boost@@@std@@@std@@YAPEAUstored_vertex@config@?$adj_list_gen@V?$adjacency_list@UvecS@boost@@U12@UundirectedS@2@UVertexProperty@internal@easy3d@@UEdgeProperty@56@Uno_property@2@UlistS@2@@boost@@UvecS@2@U32@UundirectedS@2@UVertexProperty@internal@easy3d@@UEdgeProperty@67@Uno_property@2@UlistS@2@@detail@boost@@QEAU12345@0PEAU12345@AEAV?$allocator@Ustored_vertex@config@?$adj_list_gen@V?$adjacency_list@UvecS@boost@@U12@UundirectedS@2@UVertexProperty@internal@easy3d@@UEdgeProperty@56@Uno_property@2@UlistS@2@@boost@@UvecS@2@U32@UundirectedS@2@UVertexProperty@internal@easy3d@@UEdgeProperty@67@Uno_property@2@UlistS@2@@detail@boost@@@0@@Z
	??$_Uninitialized_move@PEAV?$GenericPolygon@M@easy3d@@V?$allocator@V?$GenericPolygon@M@easy3d@@@std@@@std@@YAPEAV?$GenericPolygon@M@easy3d@@QEAV12@0PEAV12@AEAV?$allocator@V?$GenericPolygon@M@easy3d@@@0@@Z
	??$_Uninitialized_move@PEAV?$basic_string@DU?$char_traits@D@std@@V?$allocator@D@2@@std@@V?$allocator@V?$basic_string@DU?$char_traits@D@std@@V?$allocator@D@2@@std@@@2@@std@@YAPEAV?$basic_string@DU?$char_traits@D@std@@V?$allocator@D@2@@0@QEAV10@0PEAV10@AEAV?$allocator@V?$basic_string@DU?$char_traits@D@std@@V?$allocator@D@2@@std@@@0@@Z
	??$_Uninitialized_move@PEAV?$vector@HV?$allocator@H@std@@@std@@V?$allocator@V?$vector@HV?$allocator@H@std@@@std@@@2@@std@@YAPEAV?$vector@HV?$allocator@H@std@@@0@QEAV10@0PEAV10@AEAV?$allocator@V?$vector@HV?$allocator@H@std@@@std@@@0@@Z
	??$_Uninitialized_move@PEAV?$vector@IV?$allocator@I@std@@@std@@V?$allocator@V?$vector@IV?$allocator@I@std@@@std@@@2@@std@@YAPEAV?$vector@IV?$allocator@I@std@@@0@QEAV10@0PEAV10@AEAV?$allocator@V?$vector@IV?$allocator@I@std@@@std@@@0@@Z
	??$_Uninitialized_move@PEAV?$vector@UHalfedge@SurfaceMesh@easy3d@@V?$allocator@UHalfedge@SurfaceMesh@easy3d@@@std@@@std@@V?$allocator@V?$vector@UHalfedge@SurfaceMesh@easy3d@@V?$allocator@UHalfedge@SurfaceMesh@easy3d@@@std@@@std@@@2@@std@@YAPEAV?$vector@UHalfedge@SurfaceMesh@easy3d@@V?$allocator@UHalfedge@SurfaceMesh@easy3d@@@std@@@0@QEAV10@0PEAV10@AEAV?$allocator@V?$vector@UHalfedge@SurfaceMesh@easy3d@@V?$allocator@UHalfedge@SurfaceMesh@easy3d@@@std@@@std@@@0@@Z
	??$_Uninitialized_move@PEAV?$vector@UVertex@SurfaceMesh@easy3d@@V?$allocator@UVertex@SurfaceMesh@easy3d@@@std@@@std@@V?$allocator@V?$vector@UVertex@SurfaceMesh@easy3d@@V?$allocator@UVertex@SurfaceMesh@easy3d@@@std@@@std@@@2@@std@@YAPEAV?$vector@UVertex@SurfaceMesh@easy3d@@V?$allocator@UVertex@SurfaceMesh@easy3d@@@std@@@0@QEAV10@0PEAV10@AEAV?$allocator@V?$vector@UVertex@SurfaceMesh@easy3d@@V?$allocator@UVertex@SurfaceMesh@easy3d@@@std@@@std@@@0@@Z
	??$_Uninitialized_move@PEAV?$vector@V?$GenericPolygon@M@easy3d@@V?$allocator@V?$GenericPolygon@M@easy3d@@@std@@@std@@V?$allocator@V?$vector@V?$GenericPolygon@M@easy3d@@V?$allocator@V?$GenericPolygon@M@easy3d@@@std@@@std@@@2@@std@@YAPEAV?$vector@V?$GenericPolygon@M@easy3d@@V?$allocator@V?$GenericPolygon@M@easy3d@@@std@@@0@QEAV10@0PEAV10@AEAV?$allocator@V?$vector@V?$GenericPolygon@M@easy3d@@V?$allocator@V?$GenericPolygon@M@easy3d@@@std@@@std@@@0@@Z
	??$_Uninitialized_move@PEAV?$vector@V?$Vec@$02M@easy3d@@V?$allocator@V?$Vec@$02M@easy3d@@@std@@@std@@V?$allocator@V?$vector@V?$Vec@$02M@easy3d@@V?$allocator@V?$Vec@$02M@easy3d@@@std@@@std@@@2@@std@@YAPEAV?$vector@V?$Vec@$02M@easy3d@@V?$allocator@V?$Vec@$02M@easy3d@@@std@@@0@QEAV10@0PEAV10@AEAV?$allocator@V?$vector@V?$Vec@$02M@easy3d@@V?$allocator@V?$Vec@$02M@easy3d@@@std@@@std@@@0@@Z
	??$_Uninitialized_move@PEAV?$vector@_KV?$allocator@_K@std@@@std@@V?$allocator@V?$vector@_KV?$allocator@_K@std@@@std@@@2@@std@@YAPEAV?$vector@_KV?$allocator@_K@std@@@0@QEAV10@0PEAV10@AEAV?$allocator@V?$vector@_KV?$allocator@_K@std@@@std@@@0@@Z
	??$_Uninitialized_move@PEAVMST_Graph@internal@easy3d@@V?$allocator@VMST_Graph@internal@easy3d@@@std@@@std@@YAPEAVMST_Graph@internal@easy3d@@QEAV123@0PEAV123@AEAV?$allocator@VMST_Graph@internal@easy3d@@@0@@Z
	??$_Uninitialized_value_construct_n@V?$allocator@UPointSample@?$Octree@M@@@std@@@std@@YAPEAUPointSample@?$Octree@M@@PEAU12@_KAEAV?$allocator@UPointSample@?$Octree@M@@@0@@Z
	??$_Uninitialized_value_construct_n@V?$allocator@UVertex@SurfaceMesh@easy3d@@@std@@@std@@YAPEAUVertex@SurfaceMesh@easy3d@@PEAU123@_KAEAV?$allocator@UVertex@SurfaceMesh@easy3d@@@0@@Z
	??$_Uninitialized_value_construct_n@V?$allocator@Ustored_vertex@config@?$adj_list_gen@V?$adjacency_list@UvecS@boost@@U12@UundirectedS@2@UVertexProperty@internal@easy3d@@UEdgeProperty@56@Uno_property@2@UlistS@2@@boost@@UvecS@2@U32@UundirectedS@2@UVertexProperty@internal@easy3d@@UEdgeProperty@67@Uno_property@2@UlistS@2@@detail@boost@@@std@@@std@@YAPEAUstored_vertex@config@?$adj_list_gen@V?$adjacency_list@UvecS@boost@@U12@UundirectedS@2@UVertexProperty@internal@easy3d@@UEdgeProperty@56@Uno_property@2@UlistS@2@@boost@@UvecS@2@U32@UundirectedS@2@UVertexProperty@internal@easy3d@@UEdgeProperty@67@Uno_property@2@UlistS@2@@detail@boost@@PEAU12345@_KAEAV?$allocator@Ustored_vertex@config@?$adj_list_gen@V?$adjacency_list@UvecS@boost@@U12@UundirectedS@2@UVertexProperty@internal@easy3d@@UEdgeProperty@56@Uno_property@2@UlistS@2@@boost@@UvecS@2@U32@UundirectedS@2@UVertexProperty@internal@easy3d@@UEdgeProperty@67@Uno_property@2@UlistS@2@@detail@boost@@@0@@Z
	??$_Uninitialized_value_construct_n_unchecked1@PEAPEAUFace@SurfaceMesh@easy3d@@_K@std@@YAPEAPEAUFace@SurfaceMesh@easy3d@@PEAPEAU123@_K@Z
	??$_Uninitialized_value_construct_n_unchecked1@PEAPEAUVertex@SurfaceMesh@easy3d@@_K@std@@YAPEAPEAUVertex@SurfaceMesh@easy3d@@PEAPEAU123@_K@Z
	??$_Uninitialized_value_construct_n_unchecked1@PEAPEA_K_K@std@@YAPEAPEA_KPEAPEA_K_K@Z
	??$_Zero_range@PEAE@std@@YAPEAEQEAE0@Z
	??$_Zero_range@PEAH@std@@YAPEAHQEAH0@Z
	??$_Zero_range@PEAI@std@@YAPEAIQEAI0@Z
	??$_Zero_range@PEAM@std@@YAPEAMQEAM0@Z
	??$_Zero_range@PEAN@std@@YAPEANQEAN0@Z
	??$_Zero_range@PEAPEAUFace@SurfaceMesh@easy3d@@@std@@YAPEAPEAUFace@SurfaceMesh@easy3d@@QEAPEAU123@0@Z
	??$_Zero_range@PEAPEAUVertex@SurfaceMesh@easy3d@@@std@@YAPEAPEAUVertex@SurfaceMesh@easy3d@@QEAPEAU123@0@Z
	??$_Zero_range@PEAPEA_K@std@@YAPEAPEA_KQEAPEA_K0@Z
	??$_Zero_range@PEA_K@std@@YAPEA_KQEA_K0@Z
	??$__std_find_trivial@$$CBII@@YAPEBIPEBI0I@Z
	??$_addFEMConstraints@$01$01$01$01U?$FEMVFConstraintFunctor@$01$01$01$01@@$$CBU?$SparseNodeData@U?$Point3D@M@@$01@@U?$Point3D@M@@U?$Point3D@N@@@?$Octree@M@@IEAAXAEBU?$FEMVFConstraintFunctor@$01$01$01$01@@AEBU?$SparseNodeData@U?$Point3D@M@@$01@@AEAU?$DenseNodeData@M$01@@H@Z
	??$_addIsoPolygons@V?$PlyColorAndValueVertex@M@@@?$Octree@M@@KAHAEAV?$CoredMeshData@V?$PlyColorAndValueVertex@M@@@@AEAV?$vector@U?$pair@HV?$PlyColorAndValueVertex@M@@@std@@V?$allocator@U?$pair@HV?$PlyColorAndValueVertex@M@@@std@@@2@@std@@_N2AEAH@Z
	??$_addPeriodic@$00@?$BSplineElements@$00@@QEAAXH_N@Z
	??$_addPeriodic@$00@?$BSplineElements@$01@@QEAAXH_N@Z
	??$_addPeriodic@$0A@@?$BSplineElements@$00@@QEAAXH_N@Z
	??$_addPeriodic@$0A@@?$BSplineElements@$01@@QEAAXH_N@Z
	??$_addWeightContribution@$01@?$Octree@M@@IEAAXAEAU?$DensityEstimator@$01@0@PEAV?$OctNode@VTreeNodeData@@@@U?$Point3D@M@@AEAU?$PointSupportKey@$01@@M@Z
	??$_clipTree@U?$HasNormalDataFunctor@$01@?$Octree@M@@@?$Octree@M@@QEAAXAEBU?$HasNormalDataFunctor@$01@0@@Z
	??$_coarserFunctionGradient@$01$01@?$Octree@M@@IEBA?AU?$Point3D@M@@U1@AEBU?$PointSupportKey@$01@@PEBV?$OctNode@VTreeNodeData@@@@AEBU?$BSplineData@$01$01@@AEBU?$DenseNodeData@M$01@@@Z
	??$_coarserFunctionValue@$01$01@?$Octree@M@@IEBAMU?$Point3D@M@@AEBU?$PointSupportKey@$01@@PEBV?$OctNode@VTreeNodeData@@@@AEBU?$BSplineData@$01$01@@AEBU?$DenseNodeData@M$01@@@Z
	??$_copyFinerSliceIsoEdgeKeys@V?$PlyColorAndValueVertex@M@@@?$Octree@M@@IEAAXHHAEAV?$vector@U?$_SlabValues@V?$PlyColorAndValueVertex@M@@@?$Octree@M@@V?$allocator@U?$_SlabValues@V?$PlyColorAndValueVertex@M@@@?$Octree@M@@@std@@@std@@H@Z
	??$_copyFinerSliceIsoEdgeKeys@V?$PlyColorAndValueVertex@M@@@?$Octree@M@@IEAAXHHHAEAV?$vector@U?$_SlabValues@V?$PlyColorAndValueVertex@M@@@?$Octree@M@@V?$allocator@U?$_SlabValues@V?$PlyColorAndValueVertex@M@@@?$Octree@M@@@std@@@std@@H@Z
	??$_copyFinerXSliceIsoEdgeKeys@V?$PlyColorAndValueVertex@M@@@?$Octree@M@@IEAAXHHAEAV?$vector@U?$_SlabValues@V?$PlyColorAndValueVertex@M@@@?$Octree@M@@V?$allocator@U?$_SlabValues@V?$PlyColorAndValueVertex@M@@@?$Octree@M@@@std@@@std@@H@Z
	??$_densifyInterpolationInfo@$0A@@?$Octree@M@@QEBA?AU?$SparseNodeData@U?$SinglePointData@M$0A@@@$0A@@@AEBV?$vector@UPointSample@?$Octree@M@@V?$allocator@UPointSample@?$Octree@M@@@std@@@std@@MH@Z
	??$_downSample@M$01$01@?$Octree@M@@IEBAXHAEAU?$DenseNodeData@M$01@@@Z
	??$_evaluate@U?$ProjectiveData@U?$Point3D@M@@M@@$00$01U?$SparseNodeData@U?$ProjectiveData@U?$Point3D@M@@M@@$00@@@?$Octree@M@@IEBA?AU?$ProjectiveData@U?$Point3D@M@@M@@AEBU?$SparseNodeData@U?$ProjectiveData@U?$Point3D@M@@M@@$00@@U?$Point3D@M@@AEBU?$BSplineData@$00$01@@AEBU?$ConstPointSupportKey@$00@@@Z
	??$_finerFunctionGradient@$01$01@?$Octree@M@@IEBA?AU?$Point3D@M@@U1@AEBU?$PointSupportKey@$01@@PEBV?$OctNode@VTreeNodeData@@@@AEBU?$BSplineData@$01$01@@AEBU?$DenseNodeData@M$01@@@Z
	??$_finerFunctionValue@$01$01@?$Octree@M@@IEBAMU?$Point3D@M@@AEBU?$PointSupportKey@$01@@PEBV?$OctNode@VTreeNodeData@@@@AEBU?$BSplineData@$01$01@@AEBU?$DenseNodeData@M$01@@@Z
	??$_getCornerValue@M$01$01@?$Octree@M@@QEBAMAEBU?$ConstPointSupportKey@$01@@PEBV?$OctNode@VTreeNodeData@@@@HAEBU?$DenseNodeData@M$01@@2AEBU?$_Evaluator@$01$01@0@_N@Z
	??$_getCornerValueAndGradient@$01$01@?$Octree@M@@QEBA?AU?$pair@MU?$Point3D@M@@@std@@AEBU?$ConstPointSupportKey@$01@@PEBV?$OctNode@VTreeNodeData@@@@HAEBU?$DenseNodeData@M$01@@2AEBU?$_Evaluator@$01$01@0@_N@Z
	??$_getIsoVertex@$01$00$01V?$PlyColorAndValueVertex@M@@@?$Octree@M@@IEAA_NPEBU?$BSplineData@$00$01@@PEBU?$DensityEstimator@$01@0@PEBU?$SparseNodeData@U?$ProjectiveData@U?$Point3D@M@@M@@$00@@MAEAU?$ConstPointSupportKey@$01@@AEAU?$ConstPointSupportKey@$00@@PEBV?$OctNode@VTreeNodeData@@@@HAEBU?$_SliceValues@V?$PlyColorAndValueVertex@M@@@0@6AEAV?$PlyColorAndValueVertex@M@@@Z
	??$_getIsoVertex@$01$00$01V?$PlyColorAndValueVertex@M@@@?$Octree@M@@IEAA_NPEBU?$BSplineData@$00$01@@PEBU?$DensityEstimator@$01@0@PEBU?$SparseNodeData@U?$ProjectiveData@U?$Point3D@M@@M@@$00@@MAEAU?$ConstPointSupportKey@$01@@AEAU?$ConstPointSupportKey@$00@@PEBV?$OctNode@VTreeNodeData@@@@HHAEBU?$_SliceValues@V?$PlyColorAndValueVertex@M@@@0@AEAV?$PlyColorAndValueVertex@M@@@Z
	??$_getMatrixAndUpdateConstraints@$01$01U?$FEMSystemFunctor@$01$01@@$0A@@?$Octree@M@@IEAAHAEBU?$FEMSystemFunctor@$01$01@@PEBU?$InterpolationInfo@$0A@@0@AEAV?$SparseMatrix@M@@AEAU?$DenseNodeData@M$01@@AEAU?$Integrator@$01$01@FunctionIntegrator@?$BSplineIntegrationData@$01$01$01$01@@AEAU?$ChildIntegrator@$01$01@67@AEBU?$BSplineData@$01$01@@HAEBU4@_N@Z
	??$_getMatrixRowSize@$01$01@?$Octree@M@@IEBAHAEBU?$Neighbors@$04@?$OctNode@VTreeNodeData@@@@@Z
	??$_getSampleDepthAndWeight@$01U?$ConstPointSupportKey@$01@@@?$Octree@M@@IEBAXAEBU?$DensityEstimator@$01@0@PEBV?$OctNode@VTreeNodeData@@@@U?$Point3D@M@@AEAU?$ConstPointSupportKey@$01@@AEAM4@Z
	??$_getSampleDepthAndWeight@$01U?$PointSupportKey@$01@@@?$Octree@M@@IEBAXAEBU?$DensityEstimator@$01@0@PEBV?$OctNode@VTreeNodeData@@@@U?$Point3D@M@@AEAU?$PointSupportKey@$01@@AEAM4@Z
	??$_getSampleDepthAndWeight@$01U?$PointSupportKey@$01@@@?$Octree@M@@IEBAXAEBU?$DensityEstimator@$01@0@U?$Point3D@M@@AEAU?$PointSupportKey@$01@@AEAM3@Z
	??$_getSamplesPerNode@$01U?$ConstPointSupportKey@$01@@@?$Octree@M@@IEBAMAEBU?$DensityEstimator@$01@0@PEBV?$OctNode@VTreeNodeData@@@@U?$Point3D@M@@AEAU?$ConstPointSupportKey@$01@@@Z
	??$_getSamplesPerNode@$01U?$PointSupportKey@$01@@@?$Octree@M@@IEBAMAEBU?$DensityEstimator@$01@0@PEBV?$OctNode@VTreeNodeData@@@@U?$Point3D@M@@AEAU?$PointSupportKey@$01@@@Z
	??$_getSliceMatrixAndUpdateConstraints@$01$01U?$FEMSystemFunctor@$01$01@@$0A@@?$Octree@M@@IEAAHAEBU?$FEMSystemFunctor@$01$01@@PEBU?$InterpolationInfo@$0A@@0@AEAV?$SparseMatrix@M@@AEAU?$DenseNodeData@M$01@@AEAU?$Integrator@$01$01@FunctionIntegrator@?$BSplineIntegrationData@$01$01$01$01@@AEAU?$ChildIntegrator@$01$01@67@AEBU?$BSplineData@$01$01@@HHAEBU4@_N@Z
	??$_getValue@M$01$01@?$Octree@M@@QEBAMAEBU?$ConstPointSupportKey@$01@@PEBV?$OctNode@VTreeNodeData@@@@U?$Point3D@M@@AEBU?$DenseNodeData@M$01@@3AEBU?$_Evaluator@$01$01@0@@Z
	??$_integrate@$00U?$ChildIntegrator@$01$01@FunctionIntegrator@?$BSplineIntegrationData@$01$01$01$01@@@?$FEMVFConstraintFunctor@$01$01$01$01@@IEBA?AU?$Point3D@N@@AEBU?$ChildIntegrator@$01$01@FunctionIntegrator@?$BSplineIntegrationData@$01$01$01$01@@QEBH1@Z
	??$_integrate@$0A@U?$ChildIntegrator@$01$01@FunctionIntegrator@?$BSplineIntegrationData@$01$01$01$01@@@?$FEMVFConstraintFunctor@$01$01$01$01@@IEBA?AU?$Point3D@N@@AEBU?$ChildIntegrator@$01$01@FunctionIntegrator@?$BSplineIntegrationData@$01$01$01$01@@QEBH1@Z
	??$_integrate@$0A@U?$Integrator@$01$01@FunctionIntegrator@?$BSplineIntegrationData@$01$01$01$01@@@?$FEMVFConstraintFunctor@$01$01$01$01@@IEBA?AU?$Point3D@N@@AEBU?$Integrator@$01$01@FunctionIntegrator@?$BSplineIntegrationData@$01$01$01$01@@QEBH1@Z
	??$_integrate@U?$ChildIntegrator@$01$01@FunctionIntegrator@?$BSplineIntegrationData@$01$01$01$01@@@?$FEMSystemFunctor@$01$01@@IEBANAEBU?$ChildIntegrator@$01$01@FunctionIntegrator@?$BSplineIntegrationData@$01$01$01$01@@QEBH1@Z
	??$_integrate@U?$Integrator@$01$01@FunctionIntegrator@?$BSplineIntegrationData@$01$01$01$01@@@?$FEMSystemFunctor@$01$01@@IEBANAEBU?$Integrator@$01$01@FunctionIntegrator@?$BSplineIntegrationData@$01$01$01$01@@QEBH1@Z
	??$_isInteriorlyOverlapped@$01$01@?$Octree@M@@IEBA_NPEBV?$OctNode@VTreeNodeData@@@@@Z
	??$_multiSplatPointData@$0A@$01$00U?$ProjectiveData@U?$Point3D@M@@M@@@?$Octree@M@@IEAAMPEBU?$DensityEstimator@$01@0@PEAV?$OctNode@VTreeNodeData@@@@U?$Point3D@M@@U?$ProjectiveData@U?$Point3D@M@@M@@AEAU?$SparseNodeData@U?$ProjectiveData@U?$Point3D@M@@M@@$00@@AEAU?$PointSupportKey@$01@@AEAU?$PointSupportKey@$00@@H@Z
	??$_setFullDepth@$01$0A@@?$Octree@M@@IEAAXH@Z
	??$_setFullDepth@$01$0A@@?$Octree@M@@IEBAXPEAV?$OctNode@VTreeNodeData@@@@H@Z
	??$_setInterpolationInfoFromChildren@$0A@@?$Octree@M@@QEBA_NPEAV?$OctNode@VTreeNodeData@@@@AEAU?$SparseNodeData@U?$SinglePointData@M$0A@@@$0A@@@@Z
	??$_setIsoSurface@V?$PlyColorAndValueVertex@M@@@?$Octree@M@@IEAAXHHAEBU?$_SliceValues@V?$PlyColorAndValueVertex@M@@@0@0AEBU?$_XSliceValues@V?$PlyColorAndValueVertex@M@@@0@AEAV?$CoredMeshData@V?$PlyColorAndValueVertex@M@@@@_N3AEAHH@Z
	??$_setMatrixRow@$01$01U?$FEMSystemFunctor@$01$01@@$0A@@?$Octree@M@@IEBAHAEBU?$FEMSystemFunctor@$01$01@@PEBU?$InterpolationInfo@$0A@@0@AEBU?$Neighbors@$04@?$OctNode@VTreeNodeData@@@@PEAU?$MatrixEntry@M@@HAEBU?$Integrator@$01$01@FunctionIntegrator@?$BSplineIntegrationData@$01$01$01$01@@AEBU?$Stencil@N$04@@AEBU?$BSplineData@$01$01@@@Z
	??$_setMultiColorIndices@$01@?$Octree@M@@IEBAXHHAEAV?$vector@V?$vector@HV?$allocator@H@std@@@std@@V?$allocator@V?$vector@HV?$allocator@H@std@@@std@@@2@@std@@@Z
	??$_setPointValuesFromCoarser@$01$01$0A@@?$Octree@M@@IEAAXAEAU?$InterpolationInfo@$0A@@0@HAEBU?$BSplineData@$01$01@@AEBU?$DenseNodeData@M$01@@@Z
	??$_setSliceIsoCorners@V?$PlyColorAndValueVertex@M@@$01$01@?$Octree@M@@IEAAXAEBU?$DenseNodeData@M$01@@0MHHAEAV?$vector@U?$_SlabValues@V?$PlyColorAndValueVertex@M@@@?$Octree@M@@V?$allocator@U?$_SlabValues@V?$PlyColorAndValueVertex@M@@@?$Octree@M@@@std@@@std@@AEBU?$_Evaluator@$01$01@0@H@Z
	??$_setSliceIsoCorners@V?$PlyColorAndValueVertex@M@@$01$01@?$Octree@M@@IEAAXAEBU?$DenseNodeData@M$01@@0MHHHAEAV?$vector@U?$_SlabValues@V?$PlyColorAndValueVertex@M@@@?$Octree@M@@V?$allocator@U?$_SlabValues@V?$PlyColorAndValueVertex@M@@@?$Octree@M@@@std@@@std@@AEBU?$_Evaluator@$01$01@0@H@Z
	??$_setSliceIsoEdges@V?$PlyColorAndValueVertex@M@@@?$Octree@M@@IEAAXHHAEAV?$vector@U?$_SlabValues@V?$PlyColorAndValueVertex@M@@@?$Octree@M@@V?$allocator@U?$_SlabValues@V?$PlyColorAndValueVertex@M@@@?$Octree@M@@@std@@@std@@H@Z
	??$_setSliceIsoEdges@V?$PlyColorAndValueVertex@M@@@?$Octree@M@@IEAAXHHHAEAV?$vector@U?$_SlabValues@V?$PlyColorAndValueVertex@M@@@?$Octree@M@@V?$allocator@U?$_SlabValues@V?$PlyColorAndValueVertex@M@@@?$Octree@M@@@std@@@std@@H@Z
	??$_setSliceIsoVertices@$01$00$01V?$PlyColorAndValueVertex@M@@@?$Octree@M@@IEAAXPEBU?$BSplineData@$00$01@@PEBU?$DensityEstimator@$01@0@PEBU?$SparseNodeData@U?$ProjectiveData@U?$Point3D@M@@M@@$00@@MHHAEAHAEAV?$CoredMeshData@V?$PlyColorAndValueVertex@M@@@@AEAV?$vector@U?$_SlabValues@V?$PlyColorAndValueVertex@M@@@?$Octree@M@@V?$allocator@U?$_SlabValues@V?$PlyColorAndValueVertex@M@@@?$Octree@M@@@std@@@std@@H@Z
	??$_setSliceIsoVertices@$01$00$01V?$PlyColorAndValueVertex@M@@@?$Octree@M@@IEAAXPEBU?$BSplineData@$00$01@@PEBU?$DensityEstimator@$01@0@PEBU?$SparseNodeData@U?$ProjectiveData@U?$Point3D@M@@M@@$00@@MHHHAEAHAEAV?$CoredMeshData@V?$PlyColorAndValueVertex@M@@@@AEAV?$vector@U?$_SlabValues@V?$PlyColorAndValueVertex@M@@@?$Octree@M@@V?$allocator@U?$_SlabValues@V?$PlyColorAndValueVertex@M@@@?$Octree@M@@@std@@@std@@H@Z
	??$_setValidityFlags@$01$01@?$Octree@M@@QEAAXXZ
	??$_setXSliceIsoEdges@V?$PlyColorAndValueVertex@M@@@?$Octree@M@@IEAAXHHAEAV?$vector@U?$_SlabValues@V?$PlyColorAndValueVertex@M@@@?$Octree@M@@V?$allocator@U?$_SlabValues@V?$PlyColorAndValueVertex@M@@@?$Octree@M@@@std@@@std@@H@Z
	??$_setXSliceIsoVertices@$01$00$01V?$PlyColorAndValueVertex@M@@@?$Octree@M@@IEAAXPEBU?$BSplineData@$00$01@@PEBU?$DensityEstimator@$01@0@PEBU?$SparseNodeData@U?$ProjectiveData@U?$Point3D@M@@M@@$00@@MHHAEAHAEAV?$CoredMeshData@V?$PlyColorAndValueVertex@M@@@@AEAV?$vector@U?$_SlabValues@V?$PlyColorAndValueVertex@M@@@?$Octree@M@@V?$allocator@U?$_SlabValues@V?$PlyColorAndValueVertex@M@@@?$Octree@M@@@std@@@std@@H@Z
	??$_solveSystemCG@$01$01U?$FEMSystemFunctor@$01$01@@$0A@@?$Octree@M@@IEAAHAEBU?$FEMSystemFunctor@$01$01@@AEBU?$BSplineData@$01$01@@PEAU?$InterpolationInfo@$0A@@0@HAEAU?$DenseNodeData@M$01@@33H_NAEAU_SolverStats@0@4N@Z
	??$_solveSystemGS@$01$01U?$FEMSystemFunctor@$01$01@@$0A@@?$Octree@M@@IEAAHAEBU?$FEMSystemFunctor@$01$01@@AEBU?$BSplineData@$01$01@@PEAU?$InterpolationInfo@$0A@@0@HAEAU?$DenseNodeData@M$01@@33H_NAEAU_SolverStats@0@4@Z
	??$_solve_impl@V?$Matrix@N$0?0$00$0A@$0?0$00@Eigen@@V12@@?$SimplicialCholeskyBase@V?$SimplicialLDLT@V?$SparseMatrix@N$0A@H@Eigen@@$00V?$AMDOrdering@H@2@@Eigen@@@Eigen@@QEBAXAEBV?$MatrixBase@V?$Matrix@N$0?0$00$0A@$0?0$00@Eigen@@@1@AEAV21@@Z
	??$_solve_impl@V?$Matrix@N$0?0$0?0$0A@$0?0$0?0@Eigen@@V12@@?$SimplicialCholeskyBase@V?$SimplicialLDLT@V?$SparseMatrix@N$0A@H@Eigen@@$00V?$AMDOrdering@H@2@@Eigen@@@Eigen@@QEBAXAEBV?$MatrixBase@V?$Matrix@N$0?0$0?0$0A@$0?0$0?0@Eigen@@@1@AEAV21@@Z
	??$_splatPointData@$00$01$01U?$Point3D@M@@@?$Octree@M@@IEAAMAEBU?$DensityEstimator@$01@0@U?$Point3D@M@@1AEAU?$SparseNodeData@U?$Point3D@M@@$01@@AEAU?$PointSupportKey@$01@@3HHH@Z
	??$_splatPointData@$00$01U?$Point3D@M@@@?$Octree@M@@IEAAXPEAV?$OctNode@VTreeNodeData@@@@U?$Point3D@M@@1AEAU?$SparseNodeData@U?$Point3D@M@@$01@@AEAU?$PointSupportKey@$01@@@Z
	??$_upSample@M$01$01@?$Octree@M@@IEBAXHAEAU?$DenseNodeData@M$01@@@Z
	??$_upSample@U?$Point3D@M@@$01$01@?$Octree@M@@IEBAXHAEAU?$DenseNodeData@U?$Point3D@M@@$01@@@Z
	??$_updateConstraintsFromCoarser@$01$01U?$FEMSystemFunctor@$01$01@@$0A@@?$Octree@M@@IEBAXAEBU?$FEMSystemFunctor@$01$01@@PEBU?$InterpolationInfo@$0A@@0@AEBU?$Neighbors@$04@?$OctNode@VTreeNodeData@@@@2PEAV4@AEAU?$DenseNodeData@M$01@@AEBU5@AEBU?$ChildIntegrator@$01$01@FunctionIntegrator@?$BSplineIntegrationData@$01$01$01$01@@AEBU?$Stencil@N$04@@AEBU?$BSplineData@$01$01@@@Z
	??$_updateCumulativeIntegralConstraintsFromFiner@$01$01U?$FEMSystemFunctor@$01$01@@@?$Octree@M@@IEBAXAEBU?$FEMSystemFunctor@$01$01@@AEBU?$BSplineData@$01$01@@HAEBU?$DenseNodeData@M$01@@AEAU3@@Z
	??$_updateCumulativeInterpolationConstraintsFromFiner@$01$01$0A@@?$Octree@M@@IEBAXAEBU?$InterpolationInfo@$0A@@0@AEBU?$BSplineData@$01$01@@HAEBU?$DenseNodeData@M$01@@AEAU3@@Z
	??$add@D@PropertyContainer@easy3d@@QEAA?AV?$Property@D@1@AEBV?$basic_string@DU?$char_traits@D@std@@V?$allocator@D@2@@std@@D@Z
	??$add@E@PropertyContainer@easy3d@@QEAA?AV?$Property@E@1@AEBV?$basic_string@DU?$char_traits@D@std@@V?$allocator@D@2@@std@@E@Z
	??$add@H@PropertyContainer@easy3d@@QEAA?AV?$Property@H@1@AEBV?$basic_string@DU?$char_traits@D@std@@V?$allocator@D@2@@std@@H@Z
	??$add@I@PropertyContainer@easy3d@@QEAA?AV?$Property@I@1@AEBV?$basic_string@DU?$char_traits@D@std@@V?$allocator@D@2@@std@@I@Z
	??$add@M@?$PrincipalAxes@$02N@easy3d@@QEAAXAEBV?$Vec@$02M@1@M@Z
	??$add@M@PropertyContainer@easy3d@@QEAA?AV?$Property@M@1@AEBV?$basic_string@DU?$char_traits@D@std@@V?$allocator@D@2@@std@@M@Z
	??$add@N@PropertyContainer@easy3d@@QEAA?AV?$Property@N@1@AEBV?$basic_string@DU?$char_traits@D@std@@V?$allocator@D@2@@std@@N@Z
	??$add@UFace@SurfaceMesh@easy3d@@@PropertyContainer@easy3d@@QEAA?AV?$Property@UFace@SurfaceMesh@easy3d@@@1@AEBV?$basic_string@DU?$char_traits@D@std@@V?$allocator@D@2@@std@@UFace@SurfaceMesh@1@@Z
	??$add@UHalfedge@SurfaceMesh@easy3d@@@PropertyContainer@easy3d@@QEAA?AV?$Property@UHalfedge@SurfaceMesh@easy3d@@@1@AEBV?$basic_string@DU?$char_traits@D@std@@V?$allocator@D@2@@std@@UHalfedge@SurfaceMesh@1@@Z
	??$add@UVertex@SurfaceMesh@easy3d@@@PropertyContainer@easy3d@@QEAA?AV?$Property@UVertex@SurfaceMesh@easy3d@@@1@AEBV?$basic_string@DU?$char_traits@D@std@@V?$allocator@D@2@@std@@UVertex@SurfaceMesh@1@@Z
	??$add@V?$Vec@$01M@easy3d@@@PropertyContainer@easy3d@@QEAA?AV?$Property@V?$Vec@$01M@easy3d@@@1@AEBV?$basic_string@DU?$char_traits@D@std@@V?$allocator@D@2@@std@@V?$Vec@$01M@1@@Z
	??$add@V?$Vec@$01N@easy3d@@@PropertyContainer@easy3d@@QEAA?AV?$Property@V?$Vec@$01N@easy3d@@@1@AEBV?$basic_string@DU?$char_traits@D@std@@V?$allocator@D@2@@std@@V?$Vec@$01N@1@@Z
	??$add@V?$Vec@$02M@easy3d@@@PropertyContainer@easy3d@@QEAA?AV?$Property@V?$Vec@$02M@easy3d@@@1@AEBV?$basic_string@DU?$char_traits@D@std@@V?$allocator@D@2@@std@@V?$Vec@$02M@1@@Z
	??$add@V?$Vec@$02N@easy3d@@@PropertyContainer@easy3d@@QEAA?AV?$Property@V?$Vec@$02N@easy3d@@@1@AEBV?$basic_string@DU?$char_traits@D@std@@V?$allocator@D@2@@std@@V?$Vec@$02N@1@@Z
	??$add@V?$vector@V?$Vec@$02M@easy3d@@V?$allocator@V?$Vec@$02M@easy3d@@@std@@@std@@@PropertyContainer@easy3d@@QEAA?AV?$Property@V?$vector@V?$Vec@$02M@easy3d@@V?$allocator@V?$Vec@$02M@easy3d@@@std@@@std@@@1@AEBV?$basic_string@DU?$char_traits@D@std@@V?$allocator@D@2@@std@@V?$vector@V?$Vec@$02M@easy3d@@V?$allocator@V?$Vec@$02M@easy3d@@@std@@@4@@Z
	??$add@VNormalCone@easy3d@@@PropertyContainer@easy3d@@QEAA?AV?$Property@VNormalCone@easy3d@@@1@AEBV?$basic_string@DU?$char_traits@D@std@@V?$allocator@D@2@@std@@VNormalCone@1@@Z
	??$add@VQuadric@easy3d@@@PropertyContainer@easy3d@@QEAA?AV?$Property@VQuadric@easy3d@@@1@AEBV?$basic_string@DU?$char_traits@D@std@@V?$allocator@D@2@@std@@VQuadric@1@@Z
	??$add@_K@PropertyContainer@easy3d@@QEAA?AV?$Property@_K@1@AEBV?$basic_string@DU?$char_traits@D@std@@V?$allocator@D@2@@std@@_K@Z
	??$add@_N@PropertyContainer@easy3d@@QEAA?AV?$Property@_N@1@AEBV?$basic_string@DU?$char_traits@D@std@@V?$allocator@D@2@@std@@_N@Z
	??$addInterpolationConstraints@$01$01$0A@@?$Octree@M@@QEAAXAEBU?$InterpolationInfo@$0A@@0@AEAU?$DenseNodeData@M$01@@H@Z
	??$add_face_property@H@SurfaceMesh@easy3d@@QEAA?AV?$FaceProperty@H@01@AEBV?$basic_string@DU?$char_traits@D@std@@V?$allocator@D@2@@std@@H@Z
	??$add_face_property@UFace@SurfaceMesh@easy3d@@@SurfaceMesh@easy3d@@QEAA?AV?$FaceProperty@UFace@SurfaceMesh@easy3d@@@01@AEBV?$basic_string@DU?$char_traits@D@std@@V?$allocator@D@2@@std@@UFace@01@@Z
	??$add_vertex_property@H@SurfaceMesh@easy3d@@QEAA?AV?$VertexProperty@H@01@AEBV?$basic_string@DU?$char_traits@D@std@@V?$allocator@D@2@@std@@H@Z
	??$add_vertex_property@UVertex@SurfaceMesh@easy3d@@@SurfaceMesh@easy3d@@QEAA?AV?$VertexProperty@UVertex@SurfaceMesh@easy3d@@@01@AEBV?$basic_string@DU?$char_traits@D@std@@V?$allocator@D@2@@std@@UVertex@01@@Z
	??$append@V?$Vec@$01M@easy3d@@@Vertex@Tessellator@easy3d@@QEAAXAEBV?$Vec@$01M@2@@Z
	??$append@V?$Vec@$02M@easy3d@@@Vertex@Tessellator@easy3d@@QEAAXAEBV?$Vec@$02M@2@@Z
	??$assign_sparse_to_sparse@V?$SparseMatrix@N$0A@H@Eigen@@V12@@internal@Eigen@@YAXAEAV?$SparseMatrix@N$0A@H@1@AEBV21@@Z
	??$assign_sparse_to_sparse@V?$SparseMatrix@N$0A@H@Eigen@@V?$CwiseBinaryOp@U?$scalar_sum_op@NN@internal@Eigen@@$$CBV?$SparseMatrix@N$0A@H@3@$$CBV43@@2@@internal@Eigen@@YAXAEAV?$SparseMatrix@N$0A@H@1@AEBV?$CwiseBinaryOp@U?$scalar_sum_op@NN@internal@Eigen@@$$CBV?$SparseMatrix@N$0A@H@3@$$CBV43@@1@@Z
	??$assign_sparse_to_sparse@V?$SparseMatrix@N$0A@H@Eigen@@V?$SparseMatrix@N$00H@2@@internal@Eigen@@YAXAEAV?$SparseMatrix@N$0A@H@1@AEBV?$SparseMatrix@N$00H@1@@Z
	??$assign_sparse_to_sparse@V?$SparseMatrix@N$0A@H@Eigen@@V?$Transpose@$$CBV?$SparseMatrix@N$0A@H@Eigen@@@2@@internal@Eigen@@YAXAEAV?$SparseMatrix@N$0A@H@1@AEBV?$Transpose@$$CBV?$SparseMatrix@N$0A@H@Eigen@@@1@@Z
	??$axis@M@?$PrincipalAxes@$02N@easy3d@@QEBA?AV?$Vec@$02M@1@H@Z
	??$barycentric_coordinates@M@geom@easy3d@@YA?AV?$Vec@$02M@1@AEBV21@000@Z
	??$bfs_helper@VMST_Graph@internal@easy3d@@U?$two_bit_color_map@U?$vec_adj_list_vertex_id_map@UMST_VertexProperty@internal@easy3d@@_K@boost@@@boost@@V?$BfsVisitor@VMST_Graph@internal@easy3d@@@23@V623@W4graph_visitor_t@5@Uno_property@5@@detail@boost@@YAXAEAVMST_Graph@internal@easy3d@@_KU?$two_bit_color_map@U?$vec_adj_list_vertex_id_map@UMST_VertexProperty@internal@easy3d@@_K@boost@@@1@V?$BfsVisitor@VMST_Graph@internal@easy3d@@@34@AEBU?$bgl_named_params@V?$BfsVisitor@VMST_Graph@internal@easy3d@@@internal@easy3d@@W4graph_visitor_t@boost@@Uno_property@5@@1@U?$bool_@$0A@@mpl@1@@Z
	??$breadth_first_search@VMST_Graph@internal@easy3d@@PEA_KV?$queue@_KV?$deque@_KV?$allocator@_K@std@@@std@@@boost@@V?$BfsVisitor@VMST_Graph@internal@easy3d@@@23@U?$two_bit_color_map@U?$vec_adj_list_vertex_id_map@UMST_VertexProperty@internal@easy3d@@_K@boost@@@5@@boost@@YAXAEBVMST_Graph@internal@easy3d@@PEA_K1AEAV?$queue@_KV?$deque@_KV?$allocator@_K@std@@@std@@@0@V?$BfsVisitor@VMST_Graph@internal@easy3d@@@23@U?$two_bit_color_map@U?$vec_adj_list_vertex_id_map@UMST_VertexProperty@internal@easy3d@@_K@boost@@@0@@Z
	??$breadth_first_search@VMST_Graph@internal@easy3d@@V?$BfsVisitor@VMST_Graph@internal@easy3d@@@23@W4graph_visitor_t@boost@@Uno_property@6@@boost@@YAXAEBVMST_Graph@internal@easy3d@@_KAEBU?$bgl_named_params@V?$BfsVisitor@VMST_Graph@internal@easy3d@@@internal@easy3d@@W4graph_visitor_t@boost@@Uno_property@5@@0@@Z
	??$breadth_first_search@VMST_Graph@internal@easy3d@@V?$queue@_KV?$deque@_KV?$allocator@_K@std@@@std@@@boost@@V?$BfsVisitor@VMST_Graph@internal@easy3d@@@23@U?$two_bit_color_map@U?$vec_adj_list_vertex_id_map@UMST_VertexProperty@internal@easy3d@@_K@boost@@@5@@boost@@YAXAEBVMST_Graph@internal@easy3d@@_KAEAV?$queue@_KV?$deque@_KV?$allocator@_K@std@@@std@@@0@V?$BfsVisitor@VMST_Graph@internal@easy3d@@@23@U?$two_bit_color_map@U?$vec_adj_list_vertex_id_map@UMST_VertexProperty@internal@easy3d@@_K@boost@@@0@@Z
	??$breadth_first_visit@VMST_Graph@internal@easy3d@@V?$queue@_KV?$deque@_KV?$allocator@_K@std@@@std@@@boost@@V?$BfsVisitor@VMST_Graph@internal@easy3d@@@23@U?$two_bit_color_map@U?$vec_adj_list_vertex_id_map@UMST_VertexProperty@internal@easy3d@@_K@boost@@@5@PEA_K@boost@@YAXAEBVMST_Graph@internal@easy3d@@PEA_K1AEAV?$queue@_KV?$deque@_KV?$allocator@_K@std@@@std@@@0@V?$BfsVisitor@VMST_Graph@internal@easy3d@@@23@U?$two_bit_color_map@U?$vec_adj_list_vertex_id_map@UMST_VertexProperty@internal@easy3d@@_K@boost@@@0@@Z
	??$breadth_first_visit@VRiemannianGraph@internal@easy3d@@V?$d_ary_heap_indirect@_K$03V?$iterator_property_map@PEA_KU?$vec_adj_list_vertex_id_map@UVertexProperty@internal@easy3d@@_K@boost@@_KAEA_K@boost@@V?$iterator_property_map@V?$_Vector_iterator@V?$_Vector_val@U?$_Simple_types@M@std@@@std@@@std@@U?$vec_adj_list_vertex_id_map@UVertexProperty@internal@easy3d@@_K@boost@@MAEAM@2@U?$less@M@std@@V?$vector@_KV?$allocator@_K@std@@@5@@boost@@U?$dijkstra_bfs_visitor@V?$dijkstra_visitor@Unull_visitor@boost@@@boost@@V?$d_ary_heap_indirect@_K$03V?$iterator_property_map@PEA_KU?$vec_adj_list_vertex_id_map@UVertexProperty@internal@easy3d@@_K@boost@@_KAEA_K@boost@@V?$iterator_property_map@V?$_Vector_iterator@V?$_Vector_val@U?$_Simple_types@M@std@@@std@@@std@@U?$vec_adj_list_vertex_id_map@UVertexProperty@internal@easy3d@@_K@boost@@MAEAM@2@U?$less@M@std@@V?$vector@_KV?$allocator@_K@std@@@5@@2@U?$adj_list_edge_property_map@Uundirected_tag@boost@@MAEBM_K$$CBUEdgeProperty@internal@easy3d@@PEQ345@M@2@PEA_KV?$iterator_property_map@V?$_Vector_iterator@V?$_Vector_val@U?$_Simple_types@M@std@@@std@@@std@@U?$vec_adj_list_vertex_id_map@UVertexProperty@internal@easy3d@@_K@boost@@MAEAM@2@U?$_project2nd@MM@detail@2@U?$less@M@std@@@detail@5@U?$two_bit_color_map@U?$vec_adj_list_vertex_id_map@UVertexProperty@internal@easy3d@@_K@boost@@@5@PEA_K@boost@@YAXAEBVRiemannianGraph@internal@easy3d@@PEA_K1AEAV?$d_ary_heap_indirect@_K$03V?$iterator_property_map@PEA_KU?$vec_adj_list_vertex_id_map@UVertexProperty@internal@easy3d@@_K@boost@@_KAEA_K@boost@@V?$iterator_property_map@V?$_Vector_iterator@V?$_Vector_val@U?$_Simple_types@M@std@@@std@@@std@@U?$vec_adj_list_vertex_id_map@UVertexProperty@internal@easy3d@@_K@boost@@MAEAM@2@U?$less@M@std@@V?$vector@_KV?$allocator@_K@std@@@5@@0@U?$dijkstra_bfs_visitor@V?$dijkstra_visitor@Unull_visitor@boost@@@boost@@V?$d_ary_heap_indirect@_K$03V?$iterator_property_map@PEA_KU?$vec_adj_list_vertex_id_map@UVertexProperty@internal@easy3d@@_K@boost@@_KAEA_K@boost@@V?$iterator_property_map@V?$_Vector_iterator@V?$_Vector_val@U?$_Simple_types@M@std@@@std@@@std@@U?$vec_adj_list_vertex_id_map@UVertexProperty@internal@easy3d@@_K@boost@@MAEAM@2@U?$less@M@std@@V?$vector@_KV?$allocator@_K@std@@@5@@2@U?$adj_list_edge_property_map@Uundirected_tag@boost@@MAEBM_K$$CBUEdgeProperty@internal@easy3d@@PEQ345@M@2@PEA_KV?$iterator_property_map@V?$_Vector_iterator@V?$_Vector_val@U?$_Simple_types@M@std@@@std@@@std@@U?$vec_adj_list_vertex_id_map@UVertexProperty@internal@easy3d@@_K@boost@@MAEAM@2@U?$_project2nd@MM@detail@2@U?$less@M@std@@@detail@0@U?$two_bit_color_map@U?$vec_adj_list_vertex_id_map@UVertexProperty@internal@easy3d@@_K@boost@@@0@@Z
	??$call_finish_edge@V?$edge_desc_impl@Uundirected_tag@boost@@_K@detail@boost@@VRiemannianGraph@internal@easy3d@@V?$components_recorder@PEA_K@23@@detail@boost@@YAXAEAV?$components_recorder@PEA_K@01@V?$edge_desc_impl@Uundirected_tag@boost@@_K@01@AEBVRiemannianGraph@internal@easy3d@@@Z
	??$check_static_allocation_size@N$01@internal@Eigen@@YAXXZ
	??$check_static_allocation_size@N$02@internal@Eigen@@YAXXZ
	??$choose_const_pmap@U?$adj_list_edge_property_map@Uundirected_tag@boost@@MAEBM_K$$CBUEdgeProperty@internal@easy3d@@PEQ345@M@boost@@VRiemannianGraph@internal@easy3d@@W4edge_weight_t@2@@boost@@YA?AU?$adj_list_edge_property_map@Uundirected_tag@boost@@MAEBM_K$$CBUEdgeProperty@internal@easy3d@@PEQ345@M@0@AEBU10@AEBVRiemannianGraph@internal@easy3d@@W4edge_weight_t@0@@Z
	??$choose_const_pmap@Uparam_not_found@boost@@VMST_Graph@internal@easy3d@@W4vertex_index_t@2@@boost@@YA?AU?$vec_adj_list_vertex_id_map@UMST_VertexProperty@internal@easy3d@@_K@0@AEBUparam_not_found@0@AEBVMST_Graph@internal@easy3d@@W4vertex_index_t@0@@Z
	??$choose_const_pmap@Uparam_not_found@boost@@VRiemannianGraph@internal@easy3d@@W4vertex_index_t@2@@boost@@YA?AU?$vec_adj_list_vertex_id_map@UVertexProperty@internal@easy3d@@_K@0@AEBUparam_not_found@0@AEBVRiemannianGraph@internal@easy3d@@W4vertex_index_t@0@@Z
	??$choose_param@M@boost@@YAMAEBUparam_not_found@0@AEBM@Z
	??$choose_param@PEA_KVdummy_property_map@boost@@@boost@@YAAEBQEA_KAEBQEA_KAEBVdummy_property_map@0@@Z
	??$choose_param@U?$_project2nd@MM@detail@boost@@U?$plus@M@std@@@boost@@YAAEBU?$_project2nd@MM@detail@0@AEBU120@AEBU?$plus@M@std@@@Z
	??$choose_param@U?$less@M@std@@U12@@boost@@YAAEBU?$less@M@std@@AEBU12@0@Z
	??$choose_param@V?$BfsVisitor@VMST_Graph@internal@easy3d@@@internal@easy3d@@V?$bfs_visitor@Unull_visitor@boost@@@boost@@@boost@@YAAEBV?$BfsVisitor@VMST_Graph@internal@easy3d@@@internal@easy3d@@AEBV123@AEBV?$bfs_visitor@Unull_visitor@boost@@@0@@Z
	??$choose_param@V?$dijkstra_visitor@Unull_visitor@boost@@@boost@@@boost@@YA?AV?$dijkstra_visitor@Unull_visitor@boost@@@0@AEBUparam_not_found@0@AEBV10@@Z
	??$choose_param@V?$iterator_property_map@V?$_Vector_iterator@V?$_Vector_val@U?$_Simple_types@M@std@@@std@@@std@@U?$vec_adj_list_vertex_id_map@UVertexProperty@internal@easy3d@@_K@boost@@MAEAM@boost@@@boost@@YA?AV?$iterator_property_map@V?$_Vector_iterator@V?$_Vector_val@U?$_Simple_types@M@std@@@std@@@std@@U?$vec_adj_list_vertex_id_map@UVertexProperty@internal@easy3d@@_K@boost@@MAEAM@0@AEBUparam_not_found@0@AEBV10@@Z
	??$choose_param@V?$reference_wrapper@V?$queue@_KV?$deque@_KV?$allocator@_K@std@@@std@@@boost@@@boost@@@boost@@YA?AV?$reference_wrapper@V?$queue@_KV?$deque@_KV?$allocator@_K@std@@@std@@@boost@@@0@AEBUparam_not_found@0@AEBV10@@Z
	??$choose_param@_K_K@boost@@YAAEB_KAEB_K0@Z
	??$coarseCoefficients@M$01$01@?$Octree@M@@QEBA?AU?$DenseNodeData@M$01@@AEBU1@@Z
	??$collapseDuplicates@U?$scalar_sum_op@NN@internal@Eigen@@@?$SparseMatrix@N$00H@Eigen@@QEAAXU?$scalar_sum_op@NN@internal@1@@Z
	??$compute@$00@?$SimplicialCholeskyBase@V?$SimplicialLDLT@V?$SparseMatrix@N$0A@H@Eigen@@$00V?$AMDOrdering@H@2@@Eigen@@@Eigen@@IEAAXAEBV?$SparseMatrix@N$0A@H@1@@Z
	??$conditional_aligned_new_auto@H$00@internal@Eigen@@YAPEAH_K@Z
	??$conditional_aligned_new_auto@N$00@internal@Eigen@@YAPEAN_K@Z
	??$conditional_aligned_new_auto@_N$00@internal@Eigen@@YAPEA_N_K@Z
	??$conditional_aligned_realloc_new_auto@H$00@internal@Eigen@@YAPEAHPEAH_K1@Z
	??$construct@V?$GenericPolygon@M@easy3d@@AEBV12@@?$_Default_allocator_traits@V?$allocator@V?$GenericPolygon@M@easy3d@@@std@@@std@@SAXAEAV?$allocator@V?$GenericPolygon@M@easy3d@@@1@QEAV?$GenericPolygon@M@easy3d@@AEBV34@@Z
	??$construct@V?$vector@IV?$allocator@I@std@@@std@@AEBV12@@?$_Default_allocator_traits@V?$allocator@V?$vector@IV?$allocator@I@std@@@std@@@std@@@std@@SAXAEAV?$allocator@V?$vector@IV?$allocator@I@std@@@std@@@1@QEAV?$vector@IV?$allocator@I@std@@@1@AEBV31@@Z
	??$construct@V?$vector@UHalfedge@SurfaceMesh@easy3d@@V?$allocator@UHalfedge@SurfaceMesh@easy3d@@@std@@@std@@AEBV12@@?$_Default_allocator_traits@V?$allocator@V?$vector@UHalfedge@SurfaceMesh@easy3d@@V?$allocator@UHalfedge@SurfaceMesh@easy3d@@@std@@@std@@@std@@@std@@SAXAEAV?$allocator@V?$vector@UHalfedge@SurfaceMesh@easy3d@@V?$allocator@UHalfedge@SurfaceMesh@easy3d@@@std@@@std@@@1@QEAV?$vector@UHalfedge@SurfaceMesh@easy3d@@V?$allocator@UHalfedge@SurfaceMesh@easy3d@@@std@@@1@AEBV31@@Z
	??$construct@V?$vector@V?$GenericPolygon@M@easy3d@@V?$allocator@V?$GenericPolygon@M@easy3d@@@std@@@std@@AEBV12@@?$_Default_allocator_traits@V?$allocator@V?$vector@V?$GenericPolygon@M@easy3d@@V?$allocator@V?$GenericPolygon@M@easy3d@@@std@@@std@@@std@@@std@@SAXAEAV?$allocator@V?$vector@V?$GenericPolygon@M@easy3d@@V?$allocator@V?$GenericPolygon@M@easy3d@@@std@@@std@@@1@QEAV?$vector@V?$GenericPolygon@M@easy3d@@V?$allocator@V?$GenericPolygon@M@easy3d@@@std@@@1@AEBV31@@Z
	??$construct@V?$vector@_KV?$allocator@_K@std@@@std@@AEBV12@@?$_Default_allocator_traits@V?$allocator@V?$vector@_KV?$allocator@_K@std@@@std@@@std@@@std@@SAXAEAV?$allocator@V?$vector@_KV?$allocator@_K@std@@@std@@@1@QEAV?$vector@_KV?$allocator@_K@std@@@1@AEBV31@@Z
	??$container_category@U?$list_edge@_KUEdgeProperty@internal@easy3d@@@boost@@V?$allocator@U?$list_edge@_KUEdgeProperty@internal@easy3d@@@boost@@@std@@@graph_detail@boost@@YA?AUlist_tag@01@AEBV?$list@U?$list_edge@_KUEdgeProperty@internal@easy3d@@@boost@@V?$allocator@U?$list_edge@_KUEdgeProperty@internal@easy3d@@@boost@@@std@@@std@@@Z
	??$container_category@V?$stored_edge_iter@_KV?$_List_iterator@V?$_List_val@U?$_List_simple_types@U?$list_edge@_KUEdgeProperty@internal@easy3d@@@boost@@@std@@@std@@@std@@UEdgeProperty@internal@easy3d@@@detail@boost@@V?$allocator@V?$stored_edge_iter@_KV?$_List_iterator@V?$_List_val@U?$_List_simple_types@U?$list_edge@_KUEdgeProperty@internal@easy3d@@@boost@@@std@@@std@@@std@@UEdgeProperty@internal@easy3d@@@detail@boost@@@std@@@graph_detail@boost@@YA?AUvector_tag@01@AEBV?$vector@V?$stored_edge_iter@_KV?$_List_iterator@V?$_List_val@U?$_List_simple_types@U?$list_edge@_KUEdgeProperty@internal@easy3d@@@boost@@@std@@@std@@@std@@UEdgeProperty@internal@easy3d@@@detail@boost@@V?$allocator@V?$stored_edge_iter@_KV?$_List_iterator@V?$_List_val@U?$_List_simple_types@U?$list_edge@_KUEdgeProperty@internal@easy3d@@@boost@@@std@@@std@@@std@@UEdgeProperty@internal@easy3d@@@detail@boost@@@std@@@std@@@Z
	??$container_category@V?$stored_edge_property@_KUno_property@boost@@@detail@boost@@V?$allocator@V?$stored_edge_property@_KUno_property@boost@@@detail@boost@@@std@@@graph_detail@boost@@YA?AUvector_tag@01@AEBV?$vector@V?$stored_edge_property@_KUno_property@boost@@@detail@boost@@V?$allocator@V?$stored_edge_property@_KUno_property@boost@@@detail@boost@@@std@@@std@@@Z
	??$convert_to_mesh@V?$PlyColorAndValueVertex@M@@@internal@easy3d@@YAPEAVSurfaceMesh@1@AEAV?$CoredFileMeshData@V?$PlyColorAndValueVertex@M@@@@AEBU?$XForm4x4@M@@AEBV?$basic_string@DU?$char_traits@D@std@@V?$allocator@D@2@@std@@_N@Z
	??$copy_vertex_property@D@internal@easy3d@@YAXPEAVSurfaceMesh@1@0V?$VertexProperty@UVertex@SurfaceMesh@easy3d@@@21@AEBV?$basic_string@DU?$char_traits@D@std@@V?$allocator@D@2@@std@@@Z
	??$copy_vertex_property@H@internal@easy3d@@YAXPEAVSurfaceMesh@1@0V?$VertexProperty@UVertex@SurfaceMesh@easy3d@@@21@AEBV?$basic_string@DU?$char_traits@D@std@@V?$allocator@D@2@@std@@@Z
	??$copy_vertex_property@I@internal@easy3d@@YAXPEAVSurfaceMesh@1@0V?$VertexProperty@UVertex@SurfaceMesh@easy3d@@@21@AEBV?$basic_string@DU?$char_traits@D@std@@V?$allocator@D@2@@std@@@Z
	??$copy_vertex_property@_K@internal@easy3d@@YAXPEAVSurfaceMesh@1@0V?$VertexProperty@UVertex@SurfaceMesh@easy3d@@@21@AEBV?$basic_string@DU?$char_traits@D@std@@V?$allocator@D@2@@std@@@Z
	??$copy_vertex_property@_N@internal@easy3d@@YAXPEAVSurfaceMesh@1@0V?$VertexProperty@UVertex@SurfaceMesh@easy3d@@@21@AEBV?$basic_string@DU?$char_traits@D@std@@V?$allocator@D@2@@std@@@Z
	??$cs_tdfs@H@internal@Eigen@@YAHHHPEAHPEBH00@Z
	??$depth_first_search@VRiemannianGraph@internal@easy3d@@V?$components_recorder@PEA_K@detail@boost@@V?$shared_array_property_map@W4default_color_type@boost@@U?$vec_adj_list_vertex_id_map@UVertexProperty@internal@easy3d@@_K@2@@6@@boost@@YAXAEBVRiemannianGraph@internal@easy3d@@V?$components_recorder@PEA_K@detail@0@V?$shared_array_property_map@W4default_color_type@boost@@U?$vec_adj_list_vertex_id_map@UVertexProperty@internal@easy3d@@_K@2@@0@_K@Z
	??$depth_first_search@VRiemannianGraph@internal@easy3d@@V?$components_recorder@PEA_K@detail@boost@@W4graph_visitor_t@6@Uno_property@6@@boost@@YAXAEBVRiemannianGraph@internal@easy3d@@AEBU?$bgl_named_params@V?$components_recorder@PEA_K@detail@boost@@W4graph_visitor_t@3@Uno_property@3@@0@@Z
	??$depth_first_search_with_named_params@VRiemannianGraph@internal@easy3d@@V?$arg_list@V?$tagged_argument@Uvisitor@tag@keywords@graph@boost@@$$CBV?$components_recorder@PEA_K@detail@5@@aux@parameter@boost@@Uempty_arg_list@234@U?$integral_constant@_N$00@std@@@aux@parameter@boost@@@graph@boost@@YAXAEBVRiemannianGraph@internal@easy3d@@AEBV?$arg_list@V?$tagged_argument@Uvisitor@tag@keywords@graph@boost@@$$CBV?$components_recorder@PEA_K@detail@5@@aux@parameter@boost@@Uempty_arg_list@234@U?$integral_constant@_N$00@std@@@aux@parameter@1@@Z
	??$depth_first_visit_impl@VRiemannianGraph@internal@easy3d@@V?$components_recorder@PEA_K@detail@boost@@V?$shared_array_property_map@W4default_color_type@boost@@U?$vec_adj_list_vertex_id_map@UVertexProperty@internal@easy3d@@_K@2@@6@Unontruth2@56@@detail@boost@@YAXAEBVRiemannianGraph@internal@easy3d@@_KAEAV?$components_recorder@PEA_K@01@V?$shared_array_property_map@W4default_color_type@boost@@U?$vec_adj_list_vertex_id_map@UVertexProperty@internal@easy3d@@_K@2@@1@Unontruth2@01@@Z
	??$destroy@V?$basic_string@DU?$char_traits@D@std@@V?$allocator@D@2@@std@@@?$_Default_allocator_traits@V?$allocator@V?$basic_string@DU?$char_traits@D@std@@V?$allocator@D@2@@std@@@std@@@std@@SAXAEAV?$allocator@V?$basic_string@DU?$char_traits@D@std@@V?$allocator@D@2@@std@@@1@QEAV?$basic_string@DU?$char_traits@D@std@@V?$allocator@D@2@@1@@Z
	??$differentiate@$00@?$BSplineElements@$01@@QEBAXAEAU?$BSplineElements@$00@@@Z
	??$differentiate@$01@?$BSplineElements@$01@@QEBAXAEAU?$BSplineElements@$0A@@@@Z
	??$differentiate@$0A@@?$BSplineElements@$01@@QEBAXAEAU0@@Z
	??$dijkstra_dispatch1@VRiemannianGraph@internal@easy3d@@Uparam_not_found@boost@@U?$adj_list_edge_property_map@Uundirected_tag@boost@@MAEBM_K$$CBUEdgeProperty@internal@easy3d@@PEQ345@M@5@U?$vec_adj_list_vertex_id_map@UVertexProperty@internal@easy3d@@_K@5@U?$bgl_named_params@U?$_project2nd@MM@detail@boost@@Udistance_combine_t@3@U?$bgl_named_params@U?$less@M@std@@Udistance_compare_t@boost@@U?$bgl_named_params@PEA_KW4vertex_predecessor_t@boost@@U?$bgl_named_params@_KUroot_vertex_t@boost@@U?$bgl_named_params@U?$adj_list_edge_property_map@Uundirected_tag@boost@@MAEBM_K$$CBUEdgeProperty@internal@easy3d@@PEQ345@M@boost@@W4edge_weight_t@2@Uno_property@2@@2@@2@@4@@3@@5@@detail@boost@@YAXAEBVRiemannianGraph@internal@easy3d@@_KUparam_not_found@1@U?$adj_list_edge_property_map@Uundirected_tag@boost@@MAEBM_K$$CBUEdgeProperty@internal@easy3d@@PEQ345@M@1@U?$vec_adj_list_vertex_id_map@UVertexProperty@internal@easy3d@@_K@1@AEBU?$bgl_named_params@U?$_project2nd@MM@detail@boost@@Udistance_combine_t@3@U?$bgl_named_params@U?$less@M@std@@Udistance_compare_t@boost@@U?$bgl_named_params@PEA_KW4vertex_predecessor_t@boost@@U?$bgl_named_params@_KUroot_vertex_t@boost@@U?$bgl_named_params@U?$adj_list_edge_property_map@Uundirected_tag@boost@@MAEBM_K$$CBUEdgeProperty@internal@easy3d@@PEQ345@M@boost@@W4edge_weight_t@2@Uno_property@2@@2@@2@@4@@3@@1@@Z
	??$dijkstra_shortest_paths@VRiemannianGraph@internal@easy3d@@PEA_KV?$dijkstra_visitor@Unull_visitor@boost@@@boost@@PEA_KV?$iterator_property_map@V?$_Vector_iterator@V?$_Vector_val@U?$_Simple_types@M@std@@@std@@@std@@U?$vec_adj_list_vertex_id_map@UVertexProperty@internal@easy3d@@_K@boost@@MAEAM@5@U?$adj_list_edge_property_map@Uundirected_tag@boost@@MAEBM_K$$CBUEdgeProperty@internal@easy3d@@PEQ345@M@5@U?$vec_adj_list_vertex_id_map@UVertexProperty@internal@easy3d@@_K@5@U?$less@M@std@@U?$_project2nd@MM@detail@5@MMDUunused_tag_type@detail@5@Uno_property@5@@boost@@YAXAEBVRiemannianGraph@internal@easy3d@@PEA_K11V?$iterator_property_map@V?$_Vector_iterator@V?$_Vector_val@U?$_Simple_types@M@std@@@std@@@std@@U?$vec_adj_list_vertex_id_map@UVertexProperty@internal@easy3d@@_K@boost@@MAEAM@0@U?$adj_list_edge_property_map@Uundirected_tag@boost@@MAEBM_K$$CBUEdgeProperty@internal@easy3d@@PEQ345@M@0@U?$vec_adj_list_vertex_id_map@UVertexProperty@internal@easy3d@@_K@0@U?$less@M@std@@U?$_project2nd@MM@detail@0@MMV?$dijkstra_visitor@Unull_visitor@boost@@@0@AEBU?$bgl_named_params@DUunused_tag_type@detail@boost@@Uno_property@3@@0@Uno_parameter@detail@graph@0@@Z
	??$dijkstra_shortest_paths_no_init@VRiemannianGraph@internal@easy3d@@PEA_KV?$dijkstra_visitor@Unull_visitor@boost@@@boost@@PEA_KV?$iterator_property_map@V?$_Vector_iterator@V?$_Vector_val@U?$_Simple_types@M@std@@@std@@@std@@U?$vec_adj_list_vertex_id_map@UVertexProperty@internal@easy3d@@_K@boost@@MAEAM@5@U?$adj_list_edge_property_map@Uundirected_tag@boost@@MAEBM_K$$CBUEdgeProperty@internal@easy3d@@PEQ345@M@5@U?$vec_adj_list_vertex_id_map@UVertexProperty@internal@easy3d@@_K@5@U?$less@M@std@@U?$_project2nd@MM@detail@5@MU?$two_bit_color_map@U?$vec_adj_list_vertex_id_map@UVertexProperty@internal@easy3d@@_K@boost@@@5@@boost@@YAXAEBVRiemannianGraph@internal@easy3d@@PEA_K11V?$iterator_property_map@V?$_Vector_iterator@V?$_Vector_val@U?$_Simple_types@M@std@@@std@@@std@@U?$vec_adj_list_vertex_id_map@UVertexProperty@internal@easy3d@@_K@boost@@MAEAM@0@U?$adj_list_edge_property_map@Uundirected_tag@boost@@MAEBM_K$$CBUEdgeProperty@internal@easy3d@@PEQ345@M@0@U?$vec_adj_list_vertex_id_map@UVertexProperty@internal@easy3d@@_K@0@U?$less@M@std@@U?$_project2nd@MM@detail@0@MV?$dijkstra_visitor@Unull_visitor@boost@@@0@U?$two_bit_color_map@U?$vec_adj_list_vertex_id_map@UVertexProperty@internal@easy3d@@_K@boost@@@0@@Z
	??$edge_property@_N@SurfaceMesh@easy3d@@QEAA?AV?$EdgeProperty@_N@01@AEBV?$basic_string@DU?$char_traits@D@std@@V?$allocator@D@2@@std@@_N@Z
	??$endl@DU?$char_traits@D@std@@@std@@YAAEAV?$basic_ostream@DU?$char_traits@D@std@@@0@AEAV10@@Z
	??$factorize_preordered@$00@?$SimplicialCholeskyBase@V?$SimplicialLDLT@V?$SparseMatrix@N$0A@H@Eigen@@$00V?$AMDOrdering@H@2@@Eigen@@@Eigen@@IEAAXAEBV?$SparseMatrix@N$0A@H@1@@Z
	??$fill@PEAHH@std@@YAXQEAH0AEBH@Z
	??$fill@PEAV?$_List_unchecked_iterator@V?$_List_val@U?$_List_simple_types@U?$pair@$$CBHH@std@@@std@@@std@@@std@@V12@@std@@YAXQEAV?$_List_unchecked_iterator@V?$_List_val@U?$_List_simple_types@U?$pair@$$CBHH@std@@@std@@@std@@@0@0AEBV10@@Z
	??$fill@PEAV?$_List_unchecked_iterator@V?$_List_val@U?$_List_simple_types@U?$pair@$$CB_JH@std@@@std@@@std@@@std@@V12@@std@@YAXQEAV?$_List_unchecked_iterator@V?$_List_val@U?$_List_simple_types@U?$pair@$$CB_JH@std@@@std@@@std@@@0@0AEBV10@@Z
	??$fill@PEAV?$_List_unchecked_iterator@V?$_List_val@U?$_List_simple_types@U?$pair@$$CB_JU?$pair@HV?$PlyColorAndValueVertex@M@@@std@@@std@@@std@@@std@@@std@@V12@@std@@YAXQEAV?$_List_unchecked_iterator@V?$_List_val@U?$_List_simple_types@U?$pair@$$CB_JU?$pair@HV?$PlyColorAndValueVertex@M@@@std@@@std@@@std@@@std@@@0@0AEBV10@@Z
	??$fill@PEAV?$_List_unchecked_iterator@V?$_List_val@U?$_List_simple_types@U?$pair@$$CB_JV?$vector@U_IsoEdge@?$Octree@M@@V?$allocator@U_IsoEdge@?$Octree@M@@@std@@@std@@@std@@@std@@@std@@@std@@V12@@std@@YAXQEAV?$_List_unchecked_iterator@V?$_List_val@U?$_List_simple_types@U?$pair@$$CB_JV?$vector@U_IsoEdge@?$Octree@M@@V?$allocator@U_IsoEdge@?$Octree@M@@@std@@@std@@@std@@@std@@@std@@@0@0AEBV10@@Z
	??$fill@PEAV?$_List_unchecked_iterator@V?$_List_val@U?$_List_simple_types@U?$pair@$$CB_J_J@std@@@std@@@std@@@std@@V12@@std@@YAXQEAV?$_List_unchecked_iterator@V?$_List_val@U?$_List_simple_types@U?$pair@$$CB_J_J@std@@@std@@@std@@@0@0AEBV10@@Z
	??$fill@PEAV?$_List_unchecked_iterator@V?$_List_val@U?$_List_simple_types@U?$pair@$$CB_KUVertex@SurfaceMesh@easy3d@@@std@@@std@@@std@@@std@@V12@@std@@YAXQEAV?$_List_unchecked_iterator@V?$_List_val@U?$_List_simple_types@U?$pair@$$CB_KUVertex@SurfaceMesh@easy3d@@@std@@@std@@@std@@@0@0AEBV10@@Z
	??$fill@PEAV?$_List_unchecked_iterator@V?$_List_val@U?$_List_simple_types@U?$pair@$$CB_K_K@std@@@std@@@std@@@std@@V12@@std@@YAXQEAV?$_List_unchecked_iterator@V?$_List_val@U?$_List_simple_types@U?$pair@$$CB_K_K@std@@@std@@@std@@@0@0AEBV10@@Z
	??$find@V?$vector@V?$stored_edge_iter@_KV?$_List_iterator@V?$_List_val@U?$_List_simple_types@U?$list_edge@_KUEdgeProperty@internal@easy3d@@@boost@@@std@@@std@@@std@@UEdgeProperty@internal@easy3d@@@detail@boost@@V?$allocator@V?$stored_edge_iter@_KV?$_List_iterator@V?$_List_val@U?$_List_simple_types@U?$list_edge@_KUEdgeProperty@internal@easy3d@@@boost@@@std@@@std@@@std@@UEdgeProperty@internal@easy3d@@@detail@boost@@@std@@@std@@V?$stored_edge_iter@_KV?$_List_iterator@V?$_List_val@U?$_List_simple_types@U?$list_edge@_KUEdgeProperty@internal@easy3d@@@boost@@@std@@@std@@@std@@UEdgeProperty@internal@easy3d@@@detail@boost@@@graph_detail@boost@@YA?AV?$_Vector_const_iterator@V?$_Vector_val@U?$_Simple_types@V?$stored_edge_iter@_KV?$_List_iterator@V?$_List_val@U?$_List_simple_types@U?$list_edge@_KUEdgeProperty@internal@easy3d@@@boost@@@std@@@std@@@std@@UEdgeProperty@internal@easy3d@@@detail@boost@@@std@@@std@@@std@@AEBV?$vector@V?$stored_edge_iter@_KV?$_List_iterator@V?$_List_val@U?$_List_simple_types@U?$list_edge@_KUEdgeProperty@internal@easy3d@@@boost@@@std@@@std@@@std@@UEdgeProperty@internal@easy3d@@@detail@boost@@V?$allocator@V?$stored_edge_iter@_KV?$_List_iterator@V?$_List_val@U?$_List_simple_types@U?$list_edge@_KUEdgeProperty@internal@easy3d@@@boost@@@std@@@std@@@std@@UEdgeProperty@internal@easy3d@@@detail@boost@@@std@@@3@AEBV?$stored_edge_iter@_KV?$_List_iterator@V?$_List_val@U?$_List_simple_types@U?$list_edge@_KUEdgeProperty@internal@easy3d@@@boost@@@std@@@std@@@std@@UEdgeProperty@internal@easy3d@@@detail@1@@Z
	??$find@X@?$_Hash@V?$_Umap_traits@_JV?$vector@U_IsoEdge@?$Octree@M@@V?$allocator@U_IsoEdge@?$Octree@M@@@std@@@std@@V?$_Uhash_compare@_JU?$hash@_J@std@@U?$equal_to@_J@2@@2@V?$allocator@U?$pair@$$CB_JV?$vector@U_IsoEdge@?$Octree@M@@V?$allocator@U_IsoEdge@?$Octree@M@@@std@@@std@@@std@@@2@$0A@@std@@@std@@QEBA?AV?$_List_const_iterator@V?$_List_val@U?$_List_simple_types@U?$pair@$$CB_JV?$vector@U_IsoEdge@?$Octree@M@@V?$allocator@U_IsoEdge@?$Octree@M@@@std@@@std@@@std@@@std@@@std@@@1@AEB_J@Z
	??$find_dispatch@V?$vector@V?$stored_edge_iter@_KV?$_List_iterator@V?$_List_val@U?$_List_simple_types@U?$list_edge@_KUEdgeProperty@internal@easy3d@@@boost@@@std@@@std@@@std@@UEdgeProperty@internal@easy3d@@@detail@boost@@V?$allocator@V?$stored_edge_iter@_KV?$_List_iterator@V?$_List_val@U?$_List_simple_types@U?$list_edge@_KUEdgeProperty@internal@easy3d@@@boost@@@std@@@std@@@std@@UEdgeProperty@internal@easy3d@@@detail@boost@@@std@@@std@@V?$stored_edge_iter@_KV?$_List_iterator@V?$_List_val@U?$_List_simple_types@U?$list_edge@_KUEdgeProperty@internal@easy3d@@@boost@@@std@@@std@@@std@@UEdgeProperty@internal@easy3d@@@detail@boost@@@graph_detail@boost@@YA?AV?$_Vector_const_iterator@V?$_Vector_val@U?$_Simple_types@V?$stored_edge_iter@_KV?$_List_iterator@V?$_List_val@U?$_List_simple_types@U?$list_edge@_KUEdgeProperty@internal@easy3d@@@boost@@@std@@@std@@@std@@UEdgeProperty@internal@easy3d@@@detail@boost@@@std@@@std@@@std@@AEBV?$vector@V?$stored_edge_iter@_KV?$_List_iterator@V?$_List_val@U?$_List_simple_types@U?$list_edge@_KUEdgeProperty@internal@easy3d@@@boost@@@std@@@std@@@std@@UEdgeProperty@internal@easy3d@@@detail@boost@@V?$allocator@V?$stored_edge_iter@_KV?$_List_iterator@V?$_List_val@U?$_List_simple_types@U?$list_edge@_KUEdgeProperty@internal@easy3d@@@boost@@@std@@@std@@@std@@UEdgeProperty@internal@easy3d@@@detail@boost@@@std@@@3@AEBV?$stored_edge_iter@_KV?$_List_iterator@V?$_List_val@U?$_List_simple_types@U?$list_edge@_KUEdgeProperty@internal@easy3d@@@boost@@@std@@@std@@@std@@UEdgeProperty@internal@easy3d@@@detail@1@Ucontainer_tag@01@@Z
	??$forward@U?$pair@U?$out_edge_iter@V?$_Vector_iterator@V?$_Vector_val@U?$_Simple_types@V?$stored_edge_property@_KUno_property@boost@@@detail@boost@@@std@@@std@@@std@@_KV?$edge_desc_impl@Udirected_tag@boost@@_K@detail@boost@@_J@detail@boost@@U123@@std@@@boost@@YA$$QEAU?$pair@U?$out_edge_iter@V?$_Vector_iterator@V?$_Vector_val@U?$_Simple_types@V?$stored_edge_property@_KUno_property@boost@@@detail@boost@@@std@@@std@@@std@@_KV?$edge_desc_impl@Udirected_tag@boost@@_K@detail@boost@@_J@detail@boost@@U123@@std@@AEAU12@@Z
	??$forward@V?$edge_desc_impl@Uundirected_tag@boost@@_K@detail@boost@@@boost@@YA$$QEAV?$edge_desc_impl@Uundirected_tag@boost@@_K@detail@0@AEAV120@@Z
	??$functionIndex@$00$01@?$Octree@M@@QEBAXPEBV?$OctNode@VTreeNodeData@@@@QEAH@Z
	??$functionIndex@$01$01@?$Octree@M@@QEBAXPEBV?$OctNode@VTreeNodeData@@@@QEAH@Z
	??$generate_canonical@N$0DF@V?$mersenne_twister_engine@I$0CA@$0CHA@$0BIN@$0BP@$0JJAILANP@$0L@$0PPPPPPPP@$06$0JNCMFGIA@$0P@$0OPMGAAAA@$0BC@$0GMAHIJGF@@std@@@std@@YANAEAV?$mersenne_twister_engine@I$0CA@$0CHA@$0BIN@$0BP@$0JJAILANP@$0L@$0PPPPPPPP@$06$0JNCMFGIA@$0P@$0OPMGAAAA@$0BC@$0GMAHIJGF@@0@@Z
	??$get@D@PropertyContainer@easy3d@@QEBA?AV?$Property@D@1@AEBV?$basic_string@DU?$char_traits@D@std@@V?$allocator@D@2@@std@@@Z
	??$get@E@PropertyContainer@easy3d@@QEBA?AV?$Property@E@1@AEBV?$basic_string@DU?$char_traits@D@std@@V?$allocator@D@2@@std@@@Z
	??$get@H@PropertyContainer@easy3d@@QEBA?AV?$Property@H@1@AEBV?$basic_string@DU?$char_traits@D@std@@V?$allocator@D@2@@std@@@Z
	??$get@I@PropertyContainer@easy3d@@QEBA?AV?$Property@I@1@AEBV?$basic_string@DU?$char_traits@D@std@@V?$allocator@D@2@@std@@@Z
	??$get@M@PropertyContainer@easy3d@@QEBA?AV?$Property@M@1@AEBV?$basic_string@DU?$char_traits@D@std@@V?$allocator@D@2@@std@@@Z
	??$get@N@PropertyContainer@easy3d@@QEBA?AV?$Property@N@1@AEBV?$basic_string@DU?$char_traits@D@std@@V?$allocator@D@2@@std@@@Z
	??$get@V?$Vec@$01M@easy3d@@@PropertyContainer@easy3d@@QEBA?AV?$Property@V?$Vec@$01M@easy3d@@@1@AEBV?$basic_string@DU?$char_traits@D@std@@V?$allocator@D@2@@std@@@Z
	??$get@V?$Vec@$02M@easy3d@@@PropertyContainer@easy3d@@QEBA?AV?$Property@V?$Vec@$02M@easy3d@@@1@AEBV?$basic_string@DU?$char_traits@D@std@@V?$allocator@D@2@@std@@@Z
	??$get@_K@PropertyContainer@easy3d@@QEBA?AV?$Property@_K@1@AEBV?$basic_string@DU?$char_traits@D@std@@V?$allocator@D@2@@std@@@Z
	??$get@_N@PropertyContainer@easy3d@@QEBA?AV?$Property@_N@1@AEBV?$basic_string@DU?$char_traits@D@std@@V?$allocator@D@2@@std@@@Z
	??$getChildNeighbors@$0A@@?$NeighborKey@$00$00@?$OctNode@VTreeNodeData@@@@QEBA_NHHAEAU?$Neighbors@$02@1@P6AXAEAV1@@Z@Z
	??$getChildNeighbors@$0A@@?$NeighborKey@$00$01@?$OctNode@VTreeNodeData@@@@QEBA_NHHAEAU?$Neighbors@$03@1@P6AXAEAV1@@Z@Z
	??$getMCIsoSurface@$01$01$01$00V?$PlyColorAndValueVertex@M@@@?$Octree@M@@QEAAXPEBU?$DensityEstimator@$01@0@PEBU?$SparseNodeData@U?$ProjectiveData@U?$Point3D@M@@M@@$00@@AEBU?$DenseNodeData@M$01@@MAEAV?$CoredMeshData@V?$PlyColorAndValueVertex@M@@@@_N44@Z
	??$getNeighbors@$00@?$NeighborKey@$00$00@?$OctNode@VTreeNodeData@@@@QEAAAEAU?$Neighbors@$02@1@PEAV1@P6AXAEAV1@@Z@Z
	??$getNeighbors@$00@?$NeighborKey@$01$01@?$OctNode@VTreeNodeData@@@@QEAAAEAU?$Neighbors@$04@1@PEAV1@P6AXAEAV1@@Z@Z
	??$getNeighbors@$0A@$00$00@?$NeighborKey@$00$00@?$OctNode@VTreeNodeData@@@@QEAAXPEAV1@AEAU?$Neighbors@$02@1@P6AXAEAV1@@Z@Z
	??$getNeighbors@$0A@$01$01@?$NeighborKey@$00$00@?$OctNode@VTreeNodeData@@@@QEAAXPEAV1@AEAU?$Neighbors@$04@1@P6AXAEAV1@@Z@Z
	??$getNeighbors@$0A@@?$NeighborKey@$00$00@?$OctNode@VTreeNodeData@@@@QEAAAEAU?$Neighbors@$02@1@PEAV1@P6AXAEAV1@@Z@Z
	??$getNeighbors@$0A@@?$NeighborKey@$00$01@?$OctNode@VTreeNodeData@@@@QEAAAEAU?$Neighbors@$03@1@PEAV1@P6AXAEAV1@@Z@Z
	??$getNeighbors@$0A@@?$NeighborKey@$0A@$00@?$OctNode@VTreeNodeData@@@@QEAAAEAU?$Neighbors@$01@1@PEAV1@P6AXAEAV1@@Z@Z
	??$get_default_starting_vertex@VRiemannianGraph@internal@easy3d@@@detail@boost@@YA_KAEBVRiemannianGraph@internal@easy3d@@@Z
	??$get_local_deleter@U?$checked_array_deleter@E@checked_deleters@boost@@@detail@boost@@YAPEAU?$checked_array_deleter@E@checked_deleters@1@PEAU231@@Z
	??$get_local_deleter@U?$checked_array_deleter@W4default_color_type@boost@@@checked_deleters@boost@@@detail@boost@@YAPEAU?$checked_array_deleter@W4default_color_type@boost@@@checked_deleters@1@PEAU231@@Z
	??$get_or_add@_N@PropertyContainer@easy3d@@QEAA?AV?$Property@_N@1@AEBV?$basic_string@DU?$char_traits@D@std@@V?$allocator@D@2@@std@@_N@Z
	??$get_runtime_value@_J@internal@Eigen@@YA_JAEB_J@Z
	??$get_vertex_property@V?$Vec@$02M@easy3d@@@PointCloud@easy3d@@QEBA?AV?$VertexProperty@V?$Vec@$02M@easy3d@@@01@AEBV?$basic_string@DU?$char_traits@D@std@@V?$allocator@D@2@@std@@@Z
	??$get_vertex_property@V?$Vec@$02M@easy3d@@@SurfaceMesh@easy3d@@QEBA?AV?$VertexProperty@V?$Vec@$02M@easy3d@@@01@AEBV?$basic_string@DU?$char_traits@D@std@@V?$allocator@D@2@@std@@@Z
	??$hash@V?$_Vector_const_iterator@V?$_Vector_val@U?$_Simple_types@N@std@@@std@@@std@@@easy3d@@YA_KV?$_Vector_const_iterator@V?$_Vector_val@U?$_Simple_types@N@std@@@std@@@std@@0@Z
	??$inalizeForBroodedMultigrid@$01$01$01U?$HasNormalDataFunctor@$01@?$Octree@M@@@?$Octree@M@@QEAAXHAEBU?$HasNormalDataFunctor@$01@0@PEAV?$vector@HV?$allocator@H@std@@@std@@@Z
	??$init@U?$Point3D@M@@@?$Octree@M@@QEAAH_KPEBM11AEBU?$XForm4x4@M@@H_NAEAV?$vector@UPointSample@?$Octree@M@@V?$allocator@UPointSample@?$Octree@M@@@std@@@std@@PEAV?$vector@U?$ProjectiveData@U?$Point3D@M@@M@@V?$allocator@U?$ProjectiveData@U?$Point3D@M@@M@@@std@@@3@@Z
	??$initDenseNodeData@$01@?$Octree@M@@QEAA?AU?$DenseNodeData@M$01@@XZ
	??$isValidFEMNode@$00$01@?$Octree@M@@QEBA_NPEBV?$OctNode@VTreeNodeData@@@@@Z
	??$isValidFEMNode@$01$01@?$Octree@M@@QEBA_NPEBV?$OctNode@VTreeNodeData@@@@@Z
	??$is_same_dense@V?$Matrix@N$0?0$00$0A@$0?0$00@Eigen@@V12@@internal@Eigen@@YA_NAEBV?$Matrix@N$0?0$00$0A@$0?0$00@1@0PEAX@Z
	??$is_same_dense@V?$Matrix@N$0?0$0?0$0A@$0?0$0?0@Eigen@@V12@@internal@Eigen@@YA_NAEBV?$Matrix@N$0?0$0?0$0A@$0?0$0?0@1@0PEAX@Z
	??$make_bfs_visitor@Unull_visitor@boost@@@boost@@YA?AV?$bfs_visitor@Unull_visitor@boost@@@0@Unull_visitor@0@@Z
	??$make_dfs_visitor@Unull_visitor@boost@@@boost@@YA?AV?$dfs_visitor@Unull_visitor@boost@@@0@Unull_visitor@0@@Z
	??$make_dijkstra_visitor@Unull_visitor@boost@@@boost@@YA?AV?$dijkstra_visitor@Unull_visitor@boost@@@0@Unull_visitor@0@@Z
	??$make_shared_array_property_map@W4default_color_type@boost@@U?$vec_adj_list_vertex_id_map@UVertexProperty@internal@easy3d@@_K@2@@boost@@YA?AV?$shared_array_property_map@W4default_color_type@boost@@U?$vec_adj_list_vertex_id_map@UVertexProperty@internal@easy3d@@_K@2@@0@_KAEBW4default_color_type@0@AEBU?$vec_adj_list_vertex_id_map@UVertexProperty@internal@easy3d@@_K@0@@Z
	??$minimum_degree_ordering@NH@internal@Eigen@@YAXAEAV?$SparseMatrix@N$0A@H@1@AEAV?$PermutationMatrix@$0?0$0?0H@1@@Z
	??$move@AEAU?$pair@U?$out_edge_iter@V?$_Vector_iterator@V?$_Vector_val@U?$_Simple_types@V?$stored_edge_property@_KUno_property@boost@@@detail@boost@@@std@@@std@@@std@@_KV?$edge_desc_impl@Udirected_tag@boost@@_K@detail@boost@@_J@detail@boost@@U123@@std@@@boost@@YA$$QEAU?$pair@U?$out_edge_iter@V?$_Vector_iterator@V?$_Vector_val@U?$_Simple_types@V?$stored_edge_property@_KUno_property@boost@@@detail@boost@@@std@@@std@@@std@@_KV?$edge_desc_impl@Udirected_tag@boost@@_K@detail@boost@@_J@detail@boost@@U123@@std@@AEAU12@@Z
	??$move@AEAV?$edge_desc_impl@Uundirected_tag@boost@@_K@detail@boost@@@boost@@YA$$QEAV?$edge_desc_impl@Uundirected_tag@boost@@_K@detail@0@AEAV120@@Z
	??$normalize@$02M@easy3d@@YA?AV?$Vec@$02M@0@AEBV10@@Z
	??$ordering_helper_at_plus_a@V?$SparseMatrix@N$0A@H@Eigen@@@internal@Eigen@@YAXAEBV?$SparseMatrix@N$0A@H@1@AEAV21@@Z
	??$override_const_property@V?$arg_list@V?$tagged_argument@Uvisitor@tag@keywords@graph@boost@@$$CBV?$components_recorder@PEA_K@detail@5@@aux@parameter@boost@@Uempty_arg_list@234@U?$integral_constant@_N$00@std@@@aux@parameter@boost@@Uvertex_index_map@tag@keywords@graph@4@W4vertex_index_t@4@VRiemannianGraph@internal@easy3d@@@detail@boost@@YA?AU?$vec_adj_list_vertex_id_map@UVertexProperty@internal@easy3d@@_K@1@AEBV?$arg_list@V?$tagged_argument@Uvisitor@tag@keywords@graph@boost@@$$CBV?$components_recorder@PEA_K@detail@5@@aux@parameter@boost@@Uempty_arg_list@234@U?$integral_constant@_N$00@std@@@aux@parameter@1@AEBU?$keyword@Uvertex_index_map@tag@keywords@graph@boost@@@51@AEBVRiemannianGraph@internal@easy3d@@W4vertex_index_t@1@@Z
	??$permute_symm_to_fullsymm@$00V?$SparseMatrix@N$0A@H@Eigen@@$0A@@internal@Eigen@@YAXAEBV?$SparseMatrix@N$0A@H@1@AEAV21@PEBH@Z
	??$permute_symm_to_symm@$00$01V?$SparseMatrix@N$0A@H@Eigen@@$0A@@internal@Eigen@@YAXAEBV?$SparseMatrix@N$0A@H@1@AEAV21@PEBH@Z
	??$pow@HH$0A@@@YANHH@Z
	??$pow@MH$0A@@@YANMH@Z
	??$pow@NH$0A@@@YANNH@Z
	??$push@V?$list@U?$list_edge@_KUEdgeProperty@internal@easy3d@@@boost@@V?$allocator@U?$list_edge@_KUEdgeProperty@internal@easy3d@@@boost@@@std@@@std@@AEAU?$list_edge@_KUEdgeProperty@internal@easy3d@@@boost@@@graph_detail@boost@@YA?AU?$pair@V?$_List_iterator@V?$_List_val@U?$_List_simple_types@U?$list_edge@_KUEdgeProperty@internal@easy3d@@@boost@@@std@@@std@@@std@@_N@std@@AEAV?$list@U?$list_edge@_KUEdgeProperty@internal@easy3d@@@boost@@V?$allocator@U?$list_edge@_KUEdgeProperty@internal@easy3d@@@boost@@@std@@@3@AEAU?$list_edge@_KUEdgeProperty@internal@easy3d@@@1@@Z
	??$push@V?$vector@V?$stored_edge_iter@_KV?$_List_iterator@V?$_List_val@U?$_List_simple_types@U?$list_edge@_KUEdgeProperty@internal@easy3d@@@boost@@@std@@@std@@@std@@UEdgeProperty@internal@easy3d@@@detail@boost@@V?$allocator@V?$stored_edge_iter@_KV?$_List_iterator@V?$_List_val@U?$_List_simple_types@U?$list_edge@_KUEdgeProperty@internal@easy3d@@@boost@@@std@@@std@@@std@@UEdgeProperty@internal@easy3d@@@detail@boost@@@std@@@std@@V?$stored_edge_iter@_KV?$_List_iterator@V?$_List_val@U?$_List_simple_types@U?$list_edge@_KUEdgeProperty@internal@easy3d@@@boost@@@std@@@std@@@std@@UEdgeProperty@internal@easy3d@@@detail@boost@@@graph_detail@boost@@YA?AU?$pair@V?$_Vector_iterator@V?$_Vector_val@U?$_Simple_types@V?$stored_edge_iter@_KV?$_List_iterator@V?$_List_val@U?$_List_simple_types@U?$list_edge@_KUEdgeProperty@internal@easy3d@@@boost@@@std@@@std@@@std@@UEdgeProperty@internal@easy3d@@@detail@boost@@@std@@@std@@@std@@_N@std@@AEAV?$vector@V?$stored_edge_iter@_KV?$_List_iterator@V?$_List_val@U?$_List_simple_types@U?$list_edge@_KUEdgeProperty@internal@easy3d@@@boost@@@std@@@std@@@std@@UEdgeProperty@internal@easy3d@@@detail@boost@@V?$allocator@V?$stored_edge_iter@_KV?$_List_iterator@V?$_List_val@U?$_List_simple_types@U?$list_edge@_KUEdgeProperty@internal@easy3d@@@boost@@@std@@@std@@@std@@UEdgeProperty@internal@easy3d@@@detail@boost@@@std@@@3@$$QEAV?$stored_edge_iter@_KV?$_List_iterator@V?$_List_val@U?$_List_simple_types@U?$list_edge@_KUEdgeProperty@internal@easy3d@@@boost@@@std@@@std@@@std@@UEdgeProperty@internal@easy3d@@@detail@1@@Z
	??$push@V?$vector@V?$stored_edge_property@_KUno_property@boost@@@detail@boost@@V?$allocator@V?$stored_edge_property@_KUno_property@boost@@@detail@boost@@@std@@@std@@V?$stored_edge_property@_KUno_property@boost@@@detail@boost@@@graph_detail@boost@@YA?AU?$pair@V?$_Vector_iterator@V?$_Vector_val@U?$_Simple_types@V?$stored_edge_property@_KUno_property@boost@@@detail@boost@@@std@@@std@@@std@@_N@std@@AEAV?$vector@V?$stored_edge_property@_KUno_property@boost@@@detail@boost@@V?$allocator@V?$stored_edge_property@_KUno_property@boost@@@detail@boost@@@std@@@3@$$QEAV?$stored_edge_property@_KUno_property@boost@@@detail@1@@Z
	??$push_dispatch@V?$list@U?$list_edge@_KUEdgeProperty@internal@easy3d@@@boost@@V?$allocator@U?$list_edge@_KUEdgeProperty@internal@easy3d@@@boost@@@std@@@std@@AEAU?$list_edge@_KUEdgeProperty@internal@easy3d@@@boost@@@graph_detail@boost@@YA?AU?$pair@V?$_List_iterator@V?$_List_val@U?$_List_simple_types@U?$list_edge@_KUEdgeProperty@internal@easy3d@@@boost@@@std@@@std@@@std@@_N@std@@AEAV?$list@U?$list_edge@_KUEdgeProperty@internal@easy3d@@@boost@@V?$allocator@U?$list_edge@_KUEdgeProperty@internal@easy3d@@@boost@@@std@@@3@AEAU?$list_edge@_KUEdgeProperty@internal@easy3d@@@1@Uback_insertion_sequence_tag@01@@Z
	??$push_dispatch@V?$vector@V?$stored_edge_iter@_KV?$_List_iterator@V?$_List_val@U?$_List_simple_types@U?$list_edge@_KUEdgeProperty@internal@easy3d@@@boost@@@std@@@std@@@std@@UEdgeProperty@internal@easy3d@@@detail@boost@@V?$allocator@V?$stored_edge_iter@_KV?$_List_iterator@V?$_List_val@U?$_List_simple_types@U?$list_edge@_KUEdgeProperty@internal@easy3d@@@boost@@@std@@@std@@@std@@UEdgeProperty@internal@easy3d@@@detail@boost@@@std@@@std@@V?$stored_edge_iter@_KV?$_List_iterator@V?$_List_val@U?$_List_simple_types@U?$list_edge@_KUEdgeProperty@internal@easy3d@@@boost@@@std@@@std@@@std@@UEdgeProperty@internal@easy3d@@@detail@boost@@@graph_detail@boost@@YA?AU?$pair@V?$_Vector_iterator@V?$_Vector_val@U?$_Simple_types@V?$stored_edge_iter@_KV?$_List_iterator@V?$_List_val@U?$_List_simple_types@U?$list_edge@_KUEdgeProperty@internal@easy3d@@@boost@@@std@@@std@@@std@@UEdgeProperty@internal@easy3d@@@detail@boost@@@std@@@std@@@std@@_N@std@@AEAV?$vector@V?$stored_edge_iter@_KV?$_List_iterator@V?$_List_val@U?$_List_simple_types@U?$list_edge@_KUEdgeProperty@internal@easy3d@@@boost@@@std@@@std@@@std@@UEdgeProperty@internal@easy3d@@@detail@boost@@V?$allocator@V?$stored_edge_iter@_KV?$_List_iterator@V?$_List_val@U?$_List_simple_types@U?$list_edge@_KUEdgeProperty@internal@easy3d@@@boost@@@std@@@std@@@std@@UEdgeProperty@internal@easy3d@@@detail@boost@@@std@@@3@$$QEAV?$stored_edge_iter@_KV?$_List_iterator@V?$_List_val@U?$_List_simple_types@U?$list_edge@_KUEdgeProperty@internal@easy3d@@@boost@@@std@@@std@@@std@@UEdgeProperty@internal@easy3d@@@detail@1@Uback_insertion_sequence_tag@01@@Z
	??$push_dispatch@V?$vector@V?$stored_edge_property@_KUno_property@boost@@@detail@boost@@V?$allocator@V?$stored_edge_property@_KUno_property@boost@@@detail@boost@@@std@@@std@@V?$stored_edge_property@_KUno_property@boost@@@detail@boost@@@graph_detail@boost@@YA?AU?$pair@V?$_Vector_iterator@V?$_Vector_val@U?$_Simple_types@V?$stored_edge_property@_KUno_property@boost@@@detail@boost@@@std@@@std@@@std@@_N@std@@AEAV?$vector@V?$stored_edge_property@_KUno_property@boost@@@detail@boost@@V?$allocator@V?$stored_edge_property@_KUno_property@boost@@@detail@boost@@@std@@@3@$$QEAV?$stored_edge_property@_KUno_property@boost@@@detail@1@Uback_insertion_sequence_tag@01@@Z
	??$redux@U?$scalar_sum_op@HH@internal@Eigen@@@?$DenseBase@V?$Map@$$CBV?$Matrix@H$0?0$00$0A@$0?0$00@Eigen@@$0A@V?$Stride@$0A@$0A@@2@@Eigen@@@Eigen@@QEBAHAEBU?$scalar_sum_op@HH@internal@1@@Z
	??$redux@U?$scalar_sum_op@HH@internal@Eigen@@@?$DenseBase@V?$Matrix@H$0?0$00$0A@$0?0$00@Eigen@@@Eigen@@QEBAHAEBU?$scalar_sum_op@HH@internal@1@@Z
	??$relax_target@VRiemannianGraph@internal@easy3d@@U?$adj_list_edge_property_map@Uundirected_tag@boost@@MAEBM_K$$CBUEdgeProperty@internal@easy3d@@PEQ345@M@boost@@PEA_KV?$iterator_property_map@V?$_Vector_iterator@V?$_Vector_val@U?$_Simple_types@M@std@@@std@@@std@@U?$vec_adj_list_vertex_id_map@UVertexProperty@internal@easy3d@@_K@boost@@MAEAM@5@U?$_project2nd@MM@detail@5@U?$less@M@std@@@boost@@YA_NV?$edge_desc_impl@Uundirected_tag@boost@@_K@detail@0@AEBVRiemannianGraph@internal@easy3d@@AEBU?$adj_list_edge_property_map@Uundirected_tag@boost@@MAEBM_K$$CBUEdgeProperty@internal@easy3d@@PEQ345@M@0@AEAPEA_KAEAV?$iterator_property_map@V?$_Vector_iterator@V?$_Vector_val@U?$_Simple_types@M@std@@@std@@@std@@U?$vec_adj_list_vertex_id_map@UVertexProperty@internal@easy3d@@_K@boost@@MAEAM@0@AEBU?$_project2nd@MM@20@AEBU?$less@M@std@@@Z
	??$remove@N@PropertyContainer@easy3d@@QEAA_NAEAV?$Property@N@1@@Z
	??$remove@_N@PropertyContainer@easy3d@@QEAA_NAEAV?$Property@_N@1@@Z
	??$remove_face_property@V?$vector@V?$Vec@$02M@easy3d@@V?$allocator@V?$Vec@$02M@easy3d@@@std@@@std@@@SurfaceMesh@easy3d@@QEAA_NAEAV?$FaceProperty@V?$vector@V?$Vec@$02M@easy3d@@V?$allocator@V?$Vec@$02M@easy3d@@@std@@@std@@@01@@Z
	??$remove_face_property@VNormalCone@easy3d@@@SurfaceMesh@easy3d@@QEAA_NAEAV?$FaceProperty@VNormalCone@easy3d@@@01@@Z
	??$remove_vertex_property@H@SurfaceMesh@easy3d@@QEAA_NAEAV?$VertexProperty@H@01@@Z
	??$reserveInnerVectors@V?$Matrix@H$0?0$00$0A@$0?0$00@Eigen@@@?$SparseMatrix@N$00H@Eigen@@IEAAXAEBV?$Matrix@H$0?0$00$0A@$0?0$00@1@@Z
	??$run@V?$Map@$$CBV?$Matrix@H$0?0$00$0A@$0?0$00@Eigen@@$0A@V?$Stride@$0A@$0A@@2@@Eigen@@@?$redux_impl@U?$scalar_sum_op@HH@internal@Eigen@@V?$redux_evaluator@V?$Map@$$CBV?$Matrix@H$0?0$00$0A@$0?0$00@Eigen@@$0A@V?$Stride@$0A@$0A@@2@@Eigen@@@23@$02$0A@@internal@Eigen@@SAHAEBV?$redux_evaluator@V?$Map@$$CBV?$Matrix@H$0?0$00$0A@$0?0$00@Eigen@@$0A@V?$Stride@$0A@$0A@@2@@Eigen@@@12@AEBU?$scalar_sum_op@HH@12@AEBV?$Map@$$CBV?$Matrix@H$0?0$00$0A@$0?0$00@Eigen@@$0A@V?$Stride@$0A@$0A@@2@@2@@Z
	??$run@V?$Matrix@H$0?0$00$0A@$0?0$00@Eigen@@@?$redux_impl@U?$scalar_sum_op@HH@internal@Eigen@@V?$redux_evaluator@V?$Matrix@H$0?0$00$0A@$0?0$00@Eigen@@@23@$02$0A@@internal@Eigen@@SAHAEBV?$redux_evaluator@V?$Matrix@H$0?0$00$0A@$0?0$00@Eigen@@@12@AEBU?$scalar_sum_op@HH@12@AEBV?$Matrix@H$0?0$00$0A@$0?0$00@2@@Z
	??$run@V?$Matrix@N$0?0$00$0A@$0?0$00@Eigen@@V?$PermutationMatrix@$0?0$0?0H@2@@?$permutation_matrix_product@V?$Matrix@N$0?0$00$0A@$0?0$00@Eigen@@$00$0A@UDenseShape@2@@internal@Eigen@@SAXAEAV?$Matrix@N$0?0$00$0A@$0?0$00@2@AEBV?$PermutationMatrix@$0?0$0?0H@2@AEBV32@@Z
	??$run@V?$Matrix@N$0?0$0?0$0A@$0?0$0?0@Eigen@@V?$PermutationMatrix@$0?0$0?0H@2@@?$permutation_matrix_product@V?$Matrix@N$0?0$0?0$0A@$0?0$0?0@Eigen@@$00$0A@UDenseShape@2@@internal@Eigen@@SAXAEAV?$Matrix@N$0?0$0?0$0A@$0?0$0?0@2@AEBV?$PermutationMatrix@$0?0$0?0H@2@AEBV32@@Z
	??$run@V?$generic_dense_assignment_kernel@U?$evaluator@V?$Map@V?$Matrix@H$0?0$00$0A@$0?0$00@Eigen@@$0A@V?$Stride@$0A@$0A@@2@@Eigen@@@internal@Eigen@@U?$evaluator@V?$CwiseNullaryOp@U?$scalar_constant_op@H@internal@Eigen@@V?$Matrix@H$0?0$00$0A@$0?0$00@3@@Eigen@@@23@U?$assign_op@HH@23@$0A@@internal@Eigen@@@?$unaligned_dense_assignment_loop@$0A@@internal@Eigen@@SAXAEAV?$generic_dense_assignment_kernel@U?$evaluator@V?$Map@V?$Matrix@H$0?0$00$0A@$0?0$00@Eigen@@$0A@V?$Stride@$0A@$0A@@2@@Eigen@@@internal@Eigen@@U?$evaluator@V?$CwiseNullaryOp@U?$scalar_constant_op@H@internal@Eigen@@V?$Matrix@H$0?0$00$0A@$0?0$00@3@@Eigen@@@23@U?$assign_op@HH@23@$0A@@12@_J1@Z
	??$run@V?$generic_dense_assignment_kernel@U?$evaluator@V?$Matrix@H$0?0$00$0A@$0?0$00@Eigen@@@internal@Eigen@@U?$evaluator@V?$CwiseNullaryOp@U?$scalar_constant_op@H@internal@Eigen@@V?$Matrix@H$0?0$00$0A@$0?0$00@3@@Eigen@@@23@U?$assign_op@HH@23@$0A@@internal@Eigen@@@?$unaligned_dense_assignment_loop@$0A@@internal@Eigen@@SAXAEAV?$generic_dense_assignment_kernel@U?$evaluator@V?$Matrix@H$0?0$00$0A@$0?0$00@Eigen@@@internal@Eigen@@U?$evaluator@V?$CwiseNullaryOp@U?$scalar_constant_op@H@internal@Eigen@@V?$Matrix@H$0?0$00$0A@$0?0$00@3@@Eigen@@@23@U?$assign_op@HH@23@$0A@@12@_J1@Z
	??$run@V?$generic_dense_assignment_kernel@U?$evaluator@V?$Matrix@N$0?0$00$0A@$0?0$00@Eigen@@@internal@Eigen@@U123@U?$assign_op@NN@23@$0A@@internal@Eigen@@@?$unaligned_dense_assignment_loop@$0A@@internal@Eigen@@SAXAEAV?$generic_dense_assignment_kernel@U?$evaluator@V?$Matrix@N$0?0$00$0A@$0?0$00@Eigen@@@internal@Eigen@@U123@U?$assign_op@NN@23@$0A@@12@_J1@Z
	??$run@V?$generic_dense_assignment_kernel@U?$evaluator@V?$Matrix@N$0?0$00$0A@$0?0$00@Eigen@@@internal@Eigen@@U?$evaluator@V?$CwiseNullaryOp@U?$scalar_constant_op@N@internal@Eigen@@V?$Matrix@N$0?0$00$0A@$0?0$00@3@@Eigen@@@23@U?$assign_op@NN@23@$0A@@internal@Eigen@@@?$unaligned_dense_assignment_loop@$0A@@internal@Eigen@@SAXAEAV?$generic_dense_assignment_kernel@U?$evaluator@V?$Matrix@N$0?0$00$0A@$0?0$00@Eigen@@@internal@Eigen@@U?$evaluator@V?$CwiseNullaryOp@U?$scalar_constant_op@N@internal@Eigen@@V?$Matrix@N$0?0$00$0A@$0?0$00@3@@Eigen@@@23@U?$assign_op@NN@23@$0A@@12@_J1@Z
	??$run@V?$generic_dense_assignment_kernel@U?$evaluator@V?$Matrix@N$0?0$00$0A@$0?0$00@Eigen@@@internal@Eigen@@U?$evaluator@V?$Product@V?$DiagonalWrapper@$$CBV?$CwiseUnaryOp@U?$scalar_inverse_op@N@internal@Eigen@@$$CBV?$Matrix@N$0?0$00$0A@$0?0$00@3@@Eigen@@@Eigen@@V?$Matrix@N$0?0$00$0A@$0?0$00@2@$00@Eigen@@@23@U?$assign_op@NN@23@$0A@@internal@Eigen@@@?$unaligned_dense_assignment_loop@$0A@@internal@Eigen@@SAXAEAV?$generic_dense_assignment_kernel@U?$evaluator@V?$Matrix@N$0?0$00$0A@$0?0$00@Eigen@@@internal@Eigen@@U?$evaluator@V?$Product@V?$DiagonalWrapper@$$CBV?$CwiseUnaryOp@U?$scalar_inverse_op@N@internal@Eigen@@$$CBV?$Matrix@N$0?0$00$0A@$0?0$00@3@@Eigen@@@Eigen@@V?$Matrix@N$0?0$00$0A@$0?0$00@2@$00@Eigen@@@23@U?$assign_op@NN@23@$0A@@12@_J1@Z
	??$run@V?$generic_dense_assignment_kernel@U?$evaluator@V?$Matrix@N$0?0$0?0$0A@$0?0$0?0@Eigen@@@internal@Eigen@@U123@U?$assign_op@NN@23@$0A@@internal@Eigen@@@?$unaligned_dense_assignment_loop@$0A@@internal@Eigen@@SAXAEAV?$generic_dense_assignment_kernel@U?$evaluator@V?$Matrix@N$0?0$0?0$0A@$0?0$0?0@Eigen@@@internal@Eigen@@U123@U?$assign_op@NN@23@$0A@@12@_J1@Z
	??$setDataField@$00$0A@$01U?$Point3D@M@@@?$Octree@M@@QEAA?AU?$SparseNodeData@U?$ProjectiveData@U?$Point3D@M@@M@@$00@@AEBV?$vector@UPointSample@?$Octree@M@@V?$allocator@UPointSample@?$Octree@M@@@std@@@std@@AEAV?$vector@U?$ProjectiveData@U?$Point3D@M@@M@@V?$allocator@U?$ProjectiveData@U?$Point3D@M@@M@@@std@@@3@PEBU?$DensityEstimator@$01@0@@Z
	??$setDensityEstimator@$01@?$Octree@M@@QEAAPEAU?$DensityEstimator@$01@0@AEBV?$vector@UPointSample@?$Octree@M@@V?$allocator@UPointSample@?$Octree@M@@@std@@@std@@HM@Z
	??$setFromTriplets@V?$_Vector_iterator@V?$_Vector_val@U?$_Simple_types@V?$Triplet@NH@Eigen@@@std@@@std@@@std@@@?$SparseMatrix@N$0A@H@Eigen@@QEAAXAEBV?$_Vector_iterator@V?$_Vector_val@U?$_Simple_types@V?$Triplet@NH@Eigen@@@std@@@std@@@std@@0@Z
	??$setNormalField@$01$01@?$Octree@M@@QEAA?AU?$SparseNodeData@U?$Point3D@M@@$01@@AEBV?$vector@UPointSample@?$Octree@M@@V?$allocator@UPointSample@?$Octree@M@@@std@@@std@@AEBU?$DensityEstimator@$01@0@AEAM_N@Z
	??$set_from_triplets@V?$_Vector_iterator@V?$_Vector_val@U?$_Simple_types@V?$Triplet@NH@Eigen@@@std@@@std@@@std@@V?$SparseMatrix@N$0A@H@Eigen@@U?$scalar_sum_op@NN@internal@4@@internal@Eigen@@YAXAEBV?$_Vector_iterator@V?$_Vector_val@U?$_Simple_types@V?$Triplet@NH@Eigen@@@std@@@std@@@std@@0AEAV?$SparseMatrix@N$0A@H@1@U?$scalar_sum_op@NN@01@@Z
	??$smart_copy@H@internal@Eigen@@YAXPEBH0PEAH@Z
	??$smart_copy@N@internal@Eigen@@YAXPEBN0PEAN@Z
	??$solveInPlace@V?$Matrix@N$0?0$00$0A@$0?0$00@Eigen@@@?$TriangularViewImpl@$$CBV?$SparseMatrix@N$0A@H@Eigen@@$04USparse@2@@Eigen@@QEBAXAEAV?$MatrixBase@V?$Matrix@N$0?0$00$0A@$0?0$00@Eigen@@@1@@Z
	??$solveInPlace@V?$Matrix@N$0?0$00$0A@$0?0$00@Eigen@@@?$TriangularViewImpl@$$CBV?$Transpose@$$CBV?$SparseMatrix@N$0A@H@Eigen@@@Eigen@@$05USparse@2@@Eigen@@QEBAXAEAV?$MatrixBase@V?$Matrix@N$0?0$00$0A@$0?0$00@Eigen@@@1@@Z
	??$solveInPlace@V?$Matrix@N$0?0$0?0$0A@$0?0$0?0@Eigen@@@?$TriangularViewImpl@$$CBV?$SparseMatrix@N$0A@H@Eigen@@$04USparse@2@@Eigen@@QEBAXAEAV?$MatrixBase@V?$Matrix@N$0?0$0?0$0A@$0?0$0?0@Eigen@@@1@@Z
	??$solveInPlace@V?$Matrix@N$0?0$0?0$0A@$0?0$0?0@Eigen@@@?$TriangularViewImpl@$$CBV?$Transpose@$$CBV?$SparseMatrix@N$0A@H@Eigen@@@Eigen@@$05USparse@2@@Eigen@@QEBAXAEAV?$MatrixBase@V?$Matrix@N$0?0$0?0$0A@$0?0$0?0@Eigen@@@1@@Z
	??$solveSystem@$01$01U?$FEMSystemFunctor@$01$01@@$0A@@?$Octree@M@@QEAA?AU?$DenseNodeData@M$01@@AEBU?$FEMSystemFunctor@$01$01@@PEAU?$InterpolationInfo@$0A@@0@AEAU1@HAEBUSolverInfo@0@@Z
	??$squared_distance@M@internal@easy3d@@YAMIPEBM0@Z
	??$swap@VSurfaceMeshComponent@easy3d@@$0A@@std@@YAXAEAVSurfaceMeshComponent@easy3d@@0@Z
	??$throw_exception@Unegative_edge@boost@@@boost@@YAXAEBUnegative_edge@0@@Z
	??$trim_mesh@V?$PlyColorAndValueVertex@M@@@@YAXAEAV?$vector@V?$PlyColorAndValueVertex@M@@V?$allocator@V?$PlyColorAndValueVertex@M@@@std@@@std@@AEAV?$vector@V?$vector@HV?$allocator@H@std@@@std@@V?$allocator@V?$vector@HV?$allocator@H@std@@@std@@@2@@1@MM_NH@Z
	??$uninitialized_copy@PEAPEAUFace@SurfaceMesh@easy3d@@PEAPEAU123@@std@@YAPEAPEAUFace@SurfaceMesh@easy3d@@QEAPEAU123@0PEAPEAU123@@Z
	??$uninitialized_copy@PEAPEAUVertex@SurfaceMesh@easy3d@@PEAPEAU123@@std@@YAPEAPEAUVertex@SurfaceMesh@easy3d@@QEAPEAU123@0PEAPEAU123@@Z
	??$uninitialized_copy@PEAPEA_KPEAPEA_K@std@@YAPEAPEA_KQEAPEA_K0PEAPEA_K@Z
	??$uninitialized_fill@PEAV?$_List_unchecked_iterator@V?$_List_val@U?$_List_simple_types@U?$pair@$$CBHH@std@@@std@@@std@@@std@@V12@@std@@YAXQEAV?$_List_unchecked_iterator@V?$_List_val@U?$_List_simple_types@U?$pair@$$CBHH@std@@@std@@@std@@@0@0AEBV10@@Z
	??$uninitialized_fill@PEAV?$_List_unchecked_iterator@V?$_List_val@U?$_List_simple_types@U?$pair@$$CB_JH@std@@@std@@@std@@@std@@V12@@std@@YAXQEAV?$_List_unchecked_iterator@V?$_List_val@U?$_List_simple_types@U?$pair@$$CB_JH@std@@@std@@@std@@@0@0AEBV10@@Z
	??$uninitialized_fill@PEAV?$_List_unchecked_iterator@V?$_List_val@U?$_List_simple_types@U?$pair@$$CB_JU?$pair@HV?$PlyColorAndValueVertex@M@@@std@@@std@@@std@@@std@@@std@@V12@@std@@YAXQEAV?$_List_unchecked_iterator@V?$_List_val@U?$_List_simple_types@U?$pair@$$CB_JU?$pair@HV?$PlyColorAndValueVertex@M@@@std@@@std@@@std@@@std@@@0@0AEBV10@@Z
	??$uninitialized_fill@PEAV?$_List_unchecked_iterator@V?$_List_val@U?$_List_simple_types@U?$pair@$$CB_JV?$vector@U_IsoEdge@?$Octree@M@@V?$allocator@U_IsoEdge@?$Octree@M@@@std@@@std@@@std@@@std@@@std@@@std@@V12@@std@@YAXQEAV?$_List_unchecked_iterator@V?$_List_val@U?$_List_simple_types@U?$pair@$$CB_JV?$vector@U_IsoEdge@?$Octree@M@@V?$allocator@U_IsoEdge@?$Octree@M@@@std@@@std@@@std@@@std@@@std@@@0@0AEBV10@@Z
	??$uninitialized_fill@PEAV?$_List_unchecked_iterator@V?$_List_val@U?$_List_simple_types@U?$pair@$$CB_J_J@std@@@std@@@std@@@std@@V12@@std@@YAXQEAV?$_List_unchecked_iterator@V?$_List_val@U?$_List_simple_types@U?$pair@$$CB_J_J@std@@@std@@@std@@@0@0AEBV10@@Z
	??$uninitialized_fill@PEAV?$_List_unchecked_iterator@V?$_List_val@U?$_List_simple_types@U?$pair@$$CB_KUVertex@SurfaceMesh@easy3d@@@std@@@std@@@std@@@std@@V12@@std@@YAXQEAV?$_List_unchecked_iterator@V?$_List_val@U?$_List_simple_types@U?$pair@$$CB_KUVertex@SurfaceMesh@easy3d@@@std@@@std@@@std@@@0@0AEBV10@@Z
	??$uninitialized_fill@PEAV?$_List_unchecked_iterator@V?$_List_val@U?$_List_simple_types@U?$pair@$$CB_K_K@std@@@std@@@std@@@std@@V12@@std@@YAXQEAV?$_List_unchecked_iterator@V?$_List_val@U?$_List_simple_types@U?$pair@$$CB_K_K@std@@@std@@@std@@@0@0AEBV10@@Z
	??$vertex_property@V?$Vec@$01M@easy3d@@@SurfaceMesh@easy3d@@QEAA?AV?$VertexProperty@V?$Vec@$01M@easy3d@@@01@AEBV?$basic_string@DU?$char_traits@D@std@@V?$allocator@D@2@@std@@V?$Vec@$01M@1@@Z
	??$vertex_property@V?$Vec@$02M@easy3d@@@SurfaceMesh@easy3d@@QEAA?AV?$VertexProperty@V?$Vec@$02M@easy3d@@@01@AEBV?$basic_string@DU?$char_traits@D@std@@V?$allocator@D@2@@std@@V?$Vec@$02M@1@@Z
	??$vertex_property@_K@PointCloud@easy3d@@QEAA?AV?$VertexProperty@_K@01@AEBV?$basic_string@DU?$char_traits@D@std@@V?$allocator@D@2@@std@@_K@Z
	??$vertex_property@_N@SurfaceMesh@easy3d@@QEAA?AV?$VertexProperty@_N@01@AEBV?$basic_string@DU?$char_traits@D@std@@V?$allocator@D@2@@std@@_N@Z
	??$visitor@V?$BfsVisitor@VMST_Graph@internal@easy3d@@@internal@easy3d@@@boost@@YA?AU?$bgl_named_params@V?$BfsVisitor@VMST_Graph@internal@easy3d@@@internal@easy3d@@W4graph_visitor_t@boost@@Uno_property@5@@0@AEBV?$BfsVisitor@VMST_Graph@internal@easy3d@@@internal@easy3d@@@Z
	??$visitor@V?$components_recorder@PEA_K@detail@boost@@@boost@@YA?AU?$bgl_named_params@V?$components_recorder@PEA_K@detail@boost@@W4graph_visitor_t@3@Uno_property@3@@0@AEBV?$components_recorder@PEA_K@detail@0@@Z
	??$weight_map@U?$adj_list_edge_property_map@Uundirected_tag@boost@@MAEBM_K$$CBUEdgeProperty@internal@easy3d@@PEQ345@M@boost@@@boost@@YA?AU?$bgl_named_params@U?$adj_list_edge_property_map@Uundirected_tag@boost@@MAEBM_K$$CBUEdgeProperty@internal@easy3d@@PEQ345@M@boost@@W4edge_weight_t@2@Uno_property@2@@0@AEBU?$adj_list_edge_property_map@Uundirected_tag@boost@@MAEBM_K$$CBUEdgeProperty@internal@easy3d@@PEQ345@M@0@@Z
	??0?$BSplineData@$00$01@@QEAA@H@Z
	??0?$BSplineData@$01$01@@QEAA@H@Z
	??0?$BSplineElements@$00@@QEAA@HHW4BoundaryType@@@Z
	??0?$BSplineElements@$01@@QEAA@HHW4BoundaryType@@@Z
	??0?$ConstNeighborKey@$00$00@?$OctNode@VTreeNodeData@@@@QEAA@AEBV01@@Z
	??0?$ConstNeighborKey@$00$00@?$OctNode@VTreeNodeData@@@@QEAA@XZ
	??0?$ConstNeighborKey@$0A@$00@?$OctNode@VTreeNodeData@@@@QEAA@XZ
	??0?$ConstNeighbors@$01@?$OctNode@VTreeNodeData@@@@QEAA@XZ
	??0?$ConstNeighbors@$02@?$OctNode@VTreeNodeData@@@@QEAA@XZ
	??0?$CoredFileMeshData@V?$PlyColorAndValueVertex@M@@@@QEAA@PEBD@Z
	??0?$EigenSolver@N@easy3d@@QEAA@H@Z
	??0?$GenericPlane@M@easy3d@@QEAA@AEBV?$Vec@$02M@1@0@Z
	??0?$GenericPolygon@M@easy3d@@QEAA@AEBV01@@Z
	??0?$InterpolationInfo@$0A@@?$Octree@M@@QEAA@AEBV1@AEBV?$vector@UPointSample@?$Octree@M@@V?$allocator@UPointSample@?$Octree@M@@@std@@@std@@MHMM@Z
	??0?$MinimalAreaTriangulation@M@@QEAA@XZ
	??0?$MultiThreadedEvaluator@$01$01@?$Octree@M@@QEAA@PEBV1@AEBU?$DenseNodeData@M$01@@H@Z
	??0?$NeighborKey@$00$00@?$OctNode@VTreeNodeData@@@@QEAA@XZ
	??0?$NeighborKey@$00$01@?$OctNode@VTreeNodeData@@@@QEAA@XZ
	??0?$NeighborKey@$01$01@?$OctNode@VTreeNodeData@@@@QEAA@XZ
	??0?$NeighborKey@$0A@$00@?$OctNode@VTreeNodeData@@@@QEAA@XZ
	??0?$Neighbors@$01@?$OctNode@VTreeNodeData@@@@QEAA@XZ
	??0?$Neighbors@$02@?$OctNode@VTreeNodeData@@@@QEAA@XZ
	??0?$Neighbors@$03@?$OctNode@VTreeNodeData@@@@QEAA@XZ
	??0?$Neighbors@$04@?$OctNode@VTreeNodeData@@@@QEAA@XZ
	??0?$OctNode@VTreeNodeData@@@@QEAA@P6AXAEAV0@@Z@Z
	??0?$Octree@M@@QEAA@XZ
	??0?$PPolynomial@$0A@@@QEAA@AEBV0@@Z
	??0?$PPolynomial@$0A@@@QEAA@XZ
	??0?$Point3D@M@@QEAA@XZ
	??0?$Point3D@N@@QEAA@XZ
	??0?$Polynomial@$00@@QEAA@XZ
	??0?$Polynomial@$01@@QEAA@XZ
	??0?$Polynomial@$02@@QEAA@XZ
	??0?$Polynomial@$03@@QEAA@XZ
	??0?$Polynomial@$0A@@@QEAA@XZ
	??0?$PrincipalAxes@$02N@easy3d@@QEAA@XZ
	??0?$PropertyArray@V?$vector@V?$Vec@$02M@easy3d@@V?$allocator@V?$Vec@$02M@easy3d@@@std@@@std@@@easy3d@@QEAA@AEBV?$basic_string@DU?$char_traits@D@std@@V?$allocator@D@2@@std@@V?$vector@V?$Vec@$02M@easy3d@@V?$allocator@V?$Vec@$02M@easy3d@@@std@@@3@@Z
	??0?$SparseMatrix@M@@QEAA@XZ
	??0?$SparseMatrix@N$0A@H@Eigen@@QEAA@XZ
	??0?$SparseMatrix@N$0A@H@Eigen@@QEAA@_J0@Z
	??0?$Stencil@N$01@@QEAA@XZ
	??0?$Stencil@N$02@@QEAA@XZ
	??0?$Stencil@N$04@@QEAA@XZ
	??0?$Stencil@U?$Point3D@N@@$02@@QEAA@XZ
	??0?$Stencil@U?$Point3D@N@@$04@@QEAA@XZ
	??0?$Vec@$02M@easy3d@@QEAA@XZ
	??0?$_Evaluator@$01$01@?$Octree@M@@QEAA@XZ
	??0?$_Indices@$00@SortedTreeNodes@@QEAA@XZ
	??0?$_Indices@$03@SortedTreeNodes@@QEAA@XZ
	??0?$_SliceValues@V?$PlyColorAndValueVertex@M@@@?$Octree@M@@QEAA@XZ
	??0?$_XSliceValues@V?$PlyColorAndValueVertex@M@@@?$Octree@M@@QEAA@XZ
	??0?$adjacency_list@UvecS@boost@@U12@UdirectedS@2@UMST_VertexProperty@internal@easy3d@@Uno_property@2@U72@UlistS@2@@boost@@QEAA@AEBV01@@Z
	??0?$basic_string@DU?$char_traits@D@std@@V?$allocator@D@2@@std@@QEAA@AEBV01@@Z
	??0?$basic_string@DU?$char_traits@D@std@@V?$allocator@D@2@@std@@QEAA@QEBD@Z
	??0?$unordered_map@_JHU?$hash@_J@std@@U?$equal_to@_J@2@V?$allocator@U?$pair@$$CB_JH@std@@@2@@std@@QEAA@XZ
	??0?$unordered_map@_JU?$pair@HV?$PlyColorAndValueVertex@M@@@std@@U?$hash@_J@2@U?$equal_to@_J@2@V?$allocator@U?$pair@$$CB_JU?$pair@HV?$PlyColorAndValueVertex@M@@@std@@@std@@@2@@std@@QEAA@XZ
	??0?$unordered_map@_JV?$vector@U_IsoEdge@?$Octree@M@@V?$allocator@U_IsoEdge@?$Octree@M@@@std@@@std@@U?$hash@_J@2@U?$equal_to@_J@2@V?$allocator@U?$pair@$$CB_JV?$vector@U_IsoEdge@?$Octree@M@@V?$allocator@U_IsoEdge@?$Octree@M@@@std@@@std@@@std@@@2@@std@@QEAA@XZ
	??0?$unordered_map@_J_JU?$hash@_J@std@@U?$equal_to@_J@2@V?$allocator@U?$pair@$$CB_J_J@std@@@2@@std@@QEAA@XZ
	??0?$unordered_map@_KUVertex@SurfaceMesh@easy3d@@U?$hash@_K@std@@U?$equal_to@_K@5@V?$allocator@U?$pair@$$CB_KUVertex@SurfaceMesh@easy3d@@@std@@@5@@std@@QEAA@XZ
	??0?$vector@HV?$allocator@H@std@@@std@@QEAA@AEBV01@@Z
	??0?$vector@IV?$allocator@I@std@@@std@@QEAA@AEBV01@@Z
	??0?$vector@NV?$allocator@N@std@@@std@@QEAA@_KAEBNAEBV?$allocator@N@1@@Z
	??0?$vector@U?$ConstPointSupportKey@$00@@V?$allocator@U?$ConstPointSupportKey@$00@@@std@@@std@@QEAA@_KAEBV?$allocator@U?$ConstPointSupportKey@$00@@@1@@Z
	??0?$vector@U?$PointSupportKey@$01@@V?$allocator@U?$PointSupportKey@$01@@@std@@@std@@QEAA@_KAEBV?$allocator@U?$PointSupportKey@$01@@@1@@Z
	??0?$vector@UVertex@SurfaceMesh@easy3d@@V?$allocator@UVertex@SurfaceMesh@easy3d@@@std@@@std@@QEAA@AEBV01@@Z
	??0?$vector@V?$ConstNeighborKey@$00$00@?$OctNode@VTreeNodeData@@@@V?$allocator@V?$ConstNeighborKey@$00$00@?$OctNode@VTreeNodeData@@@@@std@@@std@@QEAA@_KAEBV?$allocator@V?$ConstNeighborKey@$00$00@?$OctNode@VTreeNodeData@@@@@1@@Z
	??0?$vector@V?$NeighborKey@$00$00@?$OctNode@VTreeNodeData@@@@V?$allocator@V?$NeighborKey@$00$00@?$OctNode@VTreeNodeData@@@@@std@@@std@@QEAA@_KAEBV?$allocator@V?$NeighborKey@$00$00@?$OctNode@VTreeNodeData@@@@@1@@Z
	??0?$vector@V?$Vec@$02M@easy3d@@V?$allocator@V?$Vec@$02M@easy3d@@@std@@@std@@QEAA@AEBV01@@Z
	??0?$vector@_KV?$allocator@_K@std@@@std@@QEAA@AEBV01@@Z
	??0?$vector@_KV?$allocator@_K@std@@@std@@QEAA@_KAEBV?$allocator@_K@1@@Z
	??0?$wrapexcept@Unegative_edge@boost@@@boost@@QEAA@AEBU01@@Z
	??0?$wrapexcept@Unegative_edge@boost@@@boost@@QEAA@AEBUnegative_edge@1@@Z
	??0BSplineComponents@?$BSplineEvaluationData@$00$01@@QEAA@HH@Z
	??0BSplineComponents@?$BSplineEvaluationData@$00$01@@QEAA@XZ
	??0BSplineComponents@?$BSplineEvaluationData@$01$01@@QEAA@HH@Z
	??0BSplineComponents@?$BSplineEvaluationData@$01$01@@QEAA@XZ
	??0BSplineUpSamplingCoefficients@?$BSplineEvaluationData@$01$01@@QEAA@HH@Z
	??0CollapseData@SurfaceMeshSimplification@easy3d@@QEAA@PEAVSurfaceMesh@2@UHalfedge@32@@Z
	??0Collider@easy3d@@QEAA@PEAVSurfaceMesh@1@0@Z
	??0ColliderImpl@internal@@QEAA@PEAVSurfaceMesh@easy3d@@0@Z
	??0Delaunay2@easy3d@@QEAA@XZ
	??0Delaunay3@easy3d@@QEAA@XZ
	??0Delaunay@easy3d@@QEAA@I@Z
	??0IndexedTriangle@IceMaths@@QEAA@XZ
	??0Point@IceMaths@@QEAA@XZ
	??0PoissonReconstruction@easy3d@@QEAA@XZ
	??0RiemannianGraph@internal@easy3d@@QEAA@XZ
	??0SortedTreeNodes@@QEAA@XZ
	??0SurfaceMesh@easy3d@@QEAA@AEBV01@@Z
	??0SurfaceMeshComponent@easy3d@@QEAA@$$QEAV01@@Z
	??0SurfaceMeshCurvature@easy3d@@QEAA@PEAVSurfaceMesh@1@@Z
	??0SurfaceMeshFairing@easy3d@@QEAA@PEAVSurfaceMesh@1@@Z
	??0SurfaceMeshFeatures@easy3d@@QEAA@PEAVSurfaceMesh@1@@Z
	??0SurfaceMeshGeodesic@easy3d@@QEAA@PEAVSurfaceMesh@1@_N@Z
	??0SurfaceMeshHoleFilling@easy3d@@QEAA@PEAVSurfaceMesh@1@@Z
	??0SurfaceMeshParameterization@easy3d@@QEAA@PEAVSurfaceMesh@1@@Z
	??0SurfaceMeshRemeshing@easy3d@@QEAA@PEAVSurfaceMesh@1@@Z
	??0SurfaceMeshSimplification@easy3d@@QEAA@PEAVSurfaceMesh@1@@Z
	??0SurfaceMeshSmoothing@easy3d@@QEAA@PEAVSurfaceMesh@1@@Z
	??0SurfaceMeshStitching@easy3d@@QEAA@PEAVSurfaceMesh@1@@Z
	??0SurfaceMeshTetrehedralization@easy3d@@QEAA@XZ
	??0SurfaceMeshTopology@easy3d@@QEAA@PEBVSurfaceMeshComponent@1@@Z
	??0SurfaceMeshTriangulation@easy3d@@QEAA@PEAVSurfaceMesh@1@@Z
	??0Tessellator@easy3d@@QEAA@XZ
	??0TextMesher@easy3d@@QEAA@AEBV?$basic_string@DU?$char_traits@D@std@@V?$allocator@D@2@@std@@G@Z
	??0TreeNodeData@@QEAA@XZ
	??0TriangleMeshKdTree@easy3d@@QEAA@PEBVSurfaceMesh@1@II@Z
	??0_IsoEdge@?$Octree@M@@QEAA@XZ
	??0bad_alloc@std@@QEAA@AEBV01@@Z
	??0bad_alloc@std@@QEAA@XZ
	??0bad_array_new_length@std@@QEAA@AEBV01@@Z
	??0bad_array_new_length@std@@QEAA@XZ
	??0bad_graph@boost@@QEAA@AEBU01@@Z
	??0clone_base@exception_detail@boost@@QEAA@AEBV012@@Z
	??0exception@boost@@QEAA@AEBV01@@Z
	??0exception@std@@QEAA@AEBV01@@Z
	??0invalid_argument@std@@QEAA@AEBV01@@Z
	??0logic_error@std@@QEAA@AEBV01@@Z
	??0negative_edge@boost@@QEAA@AEBU01@@Z
	??0negative_edge@boost@@QEAA@XZ
	??0runtime_error@std@@QEAA@AEBV01@@Z
	??0runtime_error@std@@QEAA@AEBV?$basic_string@DU?$char_traits@D@std@@V?$allocator@D@2@@1@@Z
	??0tetgenio@@QEAA@XZ
	??1?$BSplineData@$00$01@@QEAA@XZ
	??1?$BSplineData@$01$01@@QEAA@XZ
	??1?$BSplineElements@$00@@QEAA@XZ
	??1?$BSplineElements@$01@@QEAA@XZ
	??1?$BSplineElements@$0A@@@QEAA@XZ
	??1?$BfsVisitor@VMST_Graph@internal@easy3d@@@internal@easy3d@@QEAA@XZ
	??1?$CompressedStorage@NH@internal@Eigen@@QEAA@XZ
	??1?$ConstNeighborKey@$00$00@?$OctNode@VTreeNodeData@@@@QEAA@XZ
	??1?$ConstNeighborKey@$0A@$00@?$OctNode@VTreeNodeData@@@@QEAA@XZ
	??1?$CoredFileMeshData@V?$PlyColorAndValueVertex@M@@@@QEAA@XZ
	??1?$CoredMeshData@V?$PlyColorAndValueVertex@M@@@@QEAA@XZ
	??1?$DenseNodeData@M$01@@QEAA@XZ
	??1?$DenseNodeData@U?$Point3D@M@@$01@@QEAA@XZ
	??1?$DenseStorage@N$0?0$0?0$00$0A@@Eigen@@QEAA@XZ
	??1?$DenseStorage@N$0?0$0?0$0?0$0A@@Eigen@@QEAA@XZ
	??1?$EigenSolver@N@easy3d@@QEAA@XZ
	??1?$GenericPolygon@M@easy3d@@QEAA@XZ
	??1?$Matrix@H$0?0$00$0A@$0?0$00@Eigen@@QEAA@XZ
	??1?$Matrix@N$0?0$00$0A@$0?0$00@Eigen@@QEAA@XZ
	??1?$Matrix@N$0?0$0?0$0A@$0?0$0?0@Eigen@@QEAA@XZ
	??1?$Matrix@_N$0?0$00$0A@$0?0$00@Eigen@@QEAA@XZ
	??1?$MinimalAreaTriangulation@M@@QEAA@XZ
	??1?$MultiThreadedEvaluator@$01$01@?$Octree@M@@QEAA@XZ
	??1?$NeighborKey@$00$00@?$OctNode@VTreeNodeData@@@@QEAA@XZ
	??1?$NeighborKey@$00$01@?$OctNode@VTreeNodeData@@@@QEAA@XZ
	??1?$NeighborKey@$01$01@?$OctNode@VTreeNodeData@@@@QEAA@XZ
	??1?$NeighborKey@$0A@$00@?$OctNode@VTreeNodeData@@@@QEAA@XZ
	??1?$OctNode@VTreeNodeData@@@@QEAA@XZ
	??1?$Octree@M@@QEAA@XZ
	??1?$PPolynomial@$0A@@@QEAA@XZ
	??1?$PermutationMatrix@$0?0$0?0H@Eigen@@QEAA@XZ
	??1?$PlainObjectBase@V?$Matrix@H$0?0$00$0A@$0?0$00@Eigen@@@Eigen@@QEAA@XZ
	??1?$PlainObjectBase@V?$Matrix@N$0?0$0?0$0A@$0?0$0?0@Eigen@@@Eigen@@QEAA@XZ
	??1?$PlainObjectBase@V?$Matrix@_N$0?0$00$0A@$0?0$00@Eigen@@@Eigen@@QEAA@XZ
	??1?$PointSupportKey@$00@@QEAA@XZ
	??1?$PointSupportKey@$01@@QEAA@XZ
	??1?$PrincipalAxes@$02N@easy3d@@QEAA@XZ
	??1?$SimplicialCholeskyBase@V?$SimplicialLDLT@V?$SparseMatrix@N$0A@H@Eigen@@$00V?$AMDOrdering@H@2@@Eigen@@@Eigen@@QEAA@XZ
	??1?$SimplicialLDLT@V?$SparseMatrix@N$0A@H@Eigen@@$00V?$AMDOrdering@H@2@@Eigen@@QEAA@XZ
	??1?$SparseMatrix@M@@QEAA@XZ
	??1?$SparseMatrix@N$00H@Eigen@@QEAA@XZ
	??1?$SparseMatrix@N$0A@H@Eigen@@QEAA@XZ
	??1?$SparseNodeData@M$01@@QEAA@XZ
	??1?$SparseNodeData@U?$Point3D@M@@$01@@QEAA@XZ
	??1?$SparseNodeData@U?$ProjectiveData@U?$Point3D@M@@M@@$00@@QEAA@XZ
	??1?$SparseNodeData@U?$SinglePointData@M$0A@@@$0A@@@QEAA@XZ
	??1?$Stencil@N$01@@QEAA@XZ
	??1?$Stencil@N$02@@QEAA@XZ
	??1?$Stencil@N$03@@QEAA@XZ
	??1?$Stencil@N$04@@QEAA@XZ
	??1?$Stencil@U?$Point3D@N@@$02@@QEAA@XZ
	??1?$Stencil@U?$Point3D@N@@$04@@QEAA@XZ
	??1?$Vector@U?$pair@V?$RefCountPtr@VPrimitiveShape@@@MiscLib@@_K@std@@V?$AlignedAllocator@U?$pair@V?$RefCountPtr@VPrimitiveShape@@@MiscLib@@_K@std@@$07@MiscLib@@@MiscLib@@QEAA@XZ
	??1?$_Alloc_construct_ptr@V?$allocator@U?$_List_node@U?$list_edge@_KUEdgeProperty@internal@easy3d@@@boost@@PEAX@std@@@std@@@std@@QEAA@XZ
	??1?$_Alloc_construct_ptr@V?$allocator@U?$_List_node@U?$pair@$$CBHH@std@@PEAX@std@@@std@@@std@@QEAA@XZ
	??1?$_Alloc_construct_ptr@V?$allocator@U?$_List_node@U?$pair@$$CB_JH@std@@PEAX@std@@@std@@@std@@QEAA@XZ
	??1?$_Alloc_construct_ptr@V?$allocator@U?$_List_node@U?$pair@$$CB_JU?$pair@HV?$PlyColorAndValueVertex@M@@@std@@@std@@PEAX@std@@@std@@@std@@QEAA@XZ
	??1?$_Alloc_construct_ptr@V?$allocator@U?$_List_node@U?$pair@$$CB_JV?$vector@U_IsoEdge@?$Octree@M@@V?$allocator@U_IsoEdge@?$Octree@M@@@std@@@std@@@std@@PEAX@std@@@std@@@std@@QEAA@XZ
	??1?$_Alloc_construct_ptr@V?$allocator@U?$_List_node@U?$pair@$$CB_J_J@std@@PEAX@std@@@std@@@std@@QEAA@XZ
	??1?$_Alloc_construct_ptr@V?$allocator@U?$_List_node@U?$pair@$$CB_KUVertex@SurfaceMesh@easy3d@@@std@@PEAX@std@@@std@@@std@@QEAA@XZ
	??1?$_Alloc_construct_ptr@V?$allocator@U?$_List_node@U?$pair@$$CB_K_K@std@@PEAX@std@@@std@@@std@@QEAA@XZ
	??1?$_Alloc_construct_ptr@V?$allocator@U?$_List_node@VTPPLPoly@@PEAX@std@@@std@@@std@@QEAA@XZ
	??1?$_Alloc_construct_ptr@V?$allocator@U?$_Tree_node@U?$pair@$$CBUHalfedge@SurfaceMesh@easy3d@@UVirtualEdge@SurfaceMeshGeodesic@3@@std@@PEAX@std@@@std@@@std@@QEAA@XZ
	??1?$_Alloc_construct_ptr@V?$allocator@U?$_Tree_node@U?$pair@$$CBUVertex@SurfaceMesh@easy3d@@N@std@@PEAX@std@@@std@@@std@@QEAA@XZ
	??1?$_Alloc_construct_ptr@V?$allocator@U?$_Tree_node@UHalfedge@SurfaceMesh@easy3d@@PEAX@std@@@std@@@std@@QEAA@XZ
	??1?$_Alloc_construct_ptr@V?$allocator@U?$_Tree_node@UPointPair@internal@easy3d@@PEAX@std@@@std@@@std@@QEAA@XZ
	??1?$_Alloc_construct_ptr@V?$allocator@U?$_Tree_node@UVertex@SurfaceMesh@easy3d@@PEAX@std@@@std@@@std@@QEAA@XZ
	??1?$_Alloc_construct_ptr@V?$allocator@U?$_Tree_node@W4PrimType@PrimitivesRansac@easy3d@@PEAX@std@@@std@@@std@@QEAA@XZ
	??1?$_Evaluator@$01$01@?$Octree@M@@QEAA@XZ
	??1?$_Func_class@U?$ProjectiveData@U?$OrientedPoint3D@M@@M@@PEAV?$OctNode@VTreeNodeData@@@@@std@@QEAA@XZ
	??1?$_Func_class@XV?$edge_desc_impl@Udirected_tag@boost@@_K@detail@boost@@AEAVMST_Graph@internal@easy3d@@@std@@QEAA@XZ
	??1?$_Hash@V?$_Umap_traits@HHV?$_Uhash_compare@HU?$hash@H@std@@U?$equal_to@H@2@@std@@V?$allocator@U?$pair@$$CBHH@std@@@2@$0A@@std@@@std@@QEAA@XZ
	??1?$_Hash@V?$_Umap_traits@_JHV?$_Uhash_compare@_JU?$hash@_J@std@@U?$equal_to@_J@2@@std@@V?$allocator@U?$pair@$$CB_JH@std@@@2@$0A@@std@@@std@@QEAA@XZ
	??1?$_Hash@V?$_Umap_traits@_JU?$pair@HV?$PlyColorAndValueVertex@M@@@std@@V?$_Uhash_compare@_JU?$hash@_J@std@@U?$equal_to@_J@2@@2@V?$allocator@U?$pair@$$CB_JU?$pair@HV?$PlyColorAndValueVertex@M@@@std@@@std@@@2@$0A@@std@@@std@@QEAA@XZ
	??1?$_Hash@V?$_Umap_traits@_JV?$vector@U_IsoEdge@?$Octree@M@@V?$allocator@U_IsoEdge@?$Octree@M@@@std@@@std@@V?$_Uhash_compare@_JU?$hash@_J@std@@U?$equal_to@_J@2@@2@V?$allocator@U?$pair@$$CB_JV?$vector@U_IsoEdge@?$Octree@M@@V?$allocator@U_IsoEdge@?$Octree@M@@@std@@@std@@@std@@@2@$0A@@std@@@std@@QEAA@XZ
	??1?$_Hash@V?$_Umap_traits@_J_JV?$_Uhash_compare@_JU?$hash@_J@std@@U?$equal_to@_J@2@@std@@V?$allocator@U?$pair@$$CB_J_J@std@@@2@$0A@@std@@@std@@QEAA@XZ
	??1?$_Hash@V?$_Umap_traits@_KUVertex@SurfaceMesh@easy3d@@V?$_Uhash_compare@_KU?$hash@_K@std@@U?$equal_to@_K@2@@std@@V?$allocator@U?$pair@$$CB_KUVertex@SurfaceMesh@easy3d@@@std@@@5@$0A@@std@@@std@@QEAA@XZ
	??1?$_Hash@V?$_Umap_traits@_K_KV?$_Uhash_compare@_KU?$hash@_K@std@@U?$equal_to@_K@2@@std@@V?$allocator@U?$pair@$$CB_K_K@std@@@2@$0A@@std@@@std@@QEAA@XZ
	??1?$_Hash_vec@V?$allocator@V?$_List_unchecked_iterator@V?$_List_val@U?$_List_simple_types@U?$pair@$$CBHH@std@@@std@@@std@@@std@@@std@@@std@@QEAA@XZ
	??1?$_Hash_vec@V?$allocator@V?$_List_unchecked_iterator@V?$_List_val@U?$_List_simple_types@U?$pair@$$CB_JH@std@@@std@@@std@@@std@@@std@@@std@@QEAA@XZ
	??1?$_Hash_vec@V?$allocator@V?$_List_unchecked_iterator@V?$_List_val@U?$_List_simple_types@U?$pair@$$CB_JU?$pair@HV?$PlyColorAndValueVertex@M@@@std@@@std@@@std@@@std@@@std@@@std@@@std@@QEAA@XZ
	??1?$_Hash_vec@V?$allocator@V?$_List_unchecked_iterator@V?$_List_val@U?$_List_simple_types@U?$pair@$$CB_JV?$vector@U_IsoEdge@?$Octree@M@@V?$allocator@U_IsoEdge@?$Octree@M@@@std@@@std@@@std@@@std@@@std@@@std@@@std@@@std@@QEAA@XZ
	??1?$_Hash_vec@V?$allocator@V?$_List_unchecked_iterator@V?$_List_val@U?$_List_simple_types@U?$pair@$$CB_J_J@std@@@std@@@std@@@std@@@std@@@std@@QEAA@XZ
	??1?$_Hash_vec@V?$allocator@V?$_List_unchecked_iterator@V?$_List_val@U?$_List_simple_types@U?$pair@$$CB_KUVertex@SurfaceMesh@easy3d@@@std@@@std@@@std@@@std@@@std@@@std@@QEAA@XZ
	??1?$_Hash_vec@V?$allocator@V?$_List_unchecked_iterator@V?$_List_val@U?$_List_simple_types@U?$pair@$$CB_K_K@std@@@std@@@std@@@std@@@std@@@std@@QEAA@XZ
	??1?$_List_node_emplace_op2@V?$allocator@U?$_List_node@U?$pair@$$CBHH@std@@PEAX@std@@@std@@@std@@QEAA@XZ
	??1?$_List_node_emplace_op2@V?$allocator@U?$_List_node@U?$pair@$$CB_JH@std@@PEAX@std@@@std@@@std@@QEAA@XZ
	??1?$_List_node_emplace_op2@V?$allocator@U?$_List_node@U?$pair@$$CB_JU?$pair@HV?$PlyColorAndValueVertex@M@@@std@@@std@@PEAX@std@@@std@@@std@@QEAA@XZ
	??1?$_List_node_emplace_op2@V?$allocator@U?$_List_node@U?$pair@$$CB_JV?$vector@U_IsoEdge@?$Octree@M@@V?$allocator@U_IsoEdge@?$Octree@M@@@std@@@std@@@std@@PEAX@std@@@std@@@std@@QEAA@XZ
	??1?$_List_node_emplace_op2@V?$allocator@U?$_List_node@U?$pair@$$CB_J_J@std@@PEAX@std@@@std@@@std@@QEAA@XZ
	??1?$_List_node_emplace_op2@V?$allocator@U?$_List_node@U?$pair@$$CB_KUVertex@SurfaceMesh@easy3d@@@std@@PEAX@std@@@std@@@std@@QEAA@XZ
	??1?$_List_node_emplace_op2@V?$allocator@U?$_List_node@U?$pair@$$CB_K_K@std@@PEAX@std@@@std@@@std@@QEAA@XZ
	??1?$_SliceValues@V?$PlyColorAndValueVertex@M@@@?$Octree@M@@QEAA@XZ
	??1?$_Tidy_guard@V?$vector@U?$_Evaluator@$01$01@?$Octree@M@@V?$allocator@U?$_Evaluator@$01$01@?$Octree@M@@@std@@@std@@@std@@QEAA@XZ
	??1?$_Tidy_guard@V?$vector@U?$_SlabValues@V?$PlyColorAndValueVertex@M@@@?$Octree@M@@V?$allocator@U?$_SlabValues@V?$PlyColorAndValueVertex@M@@@?$Octree@M@@@std@@@std@@@std@@QEAA@XZ
	??1?$_Tidy_guard@V?$vector@V?$GenericPolygon@M@easy3d@@V?$allocator@V?$GenericPolygon@M@easy3d@@@std@@@std@@@std@@QEAA@XZ
	??1?$_Tidy_guard@V?$vector@V?$set@UHalfedge@SurfaceMesh@easy3d@@U?$less@UHalfedge@SurfaceMesh@easy3d@@@std@@V?$allocator@UHalfedge@SurfaceMesh@easy3d@@@5@@std@@V?$allocator@V?$set@UHalfedge@SurfaceMesh@easy3d@@U?$less@UHalfedge@SurfaceMesh@easy3d@@@std@@V?$allocator@UHalfedge@SurfaceMesh@easy3d@@@5@@std@@@2@@std@@@std@@QEAA@XZ
	??1?$_Tidy_guard@V?$vector@V?$vector@HV?$allocator@H@std@@@std@@V?$allocator@V?$vector@HV?$allocator@H@std@@@std@@@2@@std@@@std@@QEAA@XZ
	??1?$_Tidy_guard@V?$vector@V?$vector@UVertex@SurfaceMesh@easy3d@@V?$allocator@UVertex@SurfaceMesh@easy3d@@@std@@@std@@V?$allocator@V?$vector@UVertex@SurfaceMesh@easy3d@@V?$allocator@UVertex@SurfaceMesh@easy3d@@@std@@@std@@@2@@std@@@std@@QEAA@XZ
	??1?$_Tidy_guard@V?$vector@V?$vector@V?$Vec@$02M@easy3d@@V?$allocator@V?$Vec@$02M@easy3d@@@std@@@std@@V?$allocator@V?$vector@V?$Vec@$02M@easy3d@@V?$allocator@V?$Vec@$02M@easy3d@@@std@@@std@@@2@@std@@@std@@QEAA@XZ
	??1?$_Tidy_guard@V?$vector@VRiemannianGraph@internal@easy3d@@V?$allocator@VRiemannianGraph@internal@easy3d@@@std@@@std@@@std@@QEAA@XZ
	??1?$_Uninitialized_backout_al@V?$allocator@U?$ConstPointSupportKey@$01@@@std@@@std@@QEAA@XZ
	??1?$_Uninitialized_backout_al@V?$allocator@U?$_Evaluator@$01$01@?$Octree@M@@@std@@@std@@QEAA@XZ
	??1?$_Uninitialized_backout_al@V?$allocator@U?$_SlabValues@V?$PlyColorAndValueVertex@M@@@?$Octree@M@@@std@@@std@@QEAA@XZ
	??1?$_Uninitialized_backout_al@V?$allocator@V?$GenericPolygon@M@easy3d@@@std@@@std@@QEAA@XZ
	??1?$_Uninitialized_backout_al@V?$allocator@V?$set@UHalfedge@SurfaceMesh@easy3d@@U?$less@UHalfedge@SurfaceMesh@easy3d@@@std@@V?$allocator@UHalfedge@SurfaceMesh@easy3d@@@5@@std@@@std@@@std@@QEAA@XZ
	??1?$_Uninitialized_backout_al@V?$allocator@V?$vector@HV?$allocator@H@std@@@std@@@std@@@std@@QEAA@XZ
	??1?$_Uninitialized_backout_al@V?$allocator@V?$vector@MV?$allocator@M@std@@@std@@@std@@@std@@QEAA@XZ
	??1?$_Uninitialized_backout_al@V?$allocator@V?$vector@UVertex@SurfaceMesh@easy3d@@V?$allocator@UVertex@SurfaceMesh@easy3d@@@std@@@std@@@std@@@std@@QEAA@XZ
	??1?$_Uninitialized_backout_al@V?$allocator@V?$vector@UWeight@SurfaceMeshHoleFilling@easy3d@@V?$allocator@UWeight@SurfaceMeshHoleFilling@easy3d@@@std@@@std@@@std@@@std@@QEAA@XZ
	??1?$_Uninitialized_backout_al@V?$allocator@V?$vector@V?$Vec@$02M@easy3d@@V?$allocator@V?$Vec@$02M@easy3d@@@std@@@std@@@std@@@std@@QEAA@XZ
	??1?$_Uninitialized_backout_al@V?$allocator@VMST_Graph@internal@easy3d@@@std@@@std@@QEAA@XZ
	??1?$_Uninitialized_backout_al@V?$allocator@VRiemannianGraph@internal@easy3d@@@std@@@std@@QEAA@XZ
	??1?$_Vb_val@V?$allocator@_N@std@@@std@@QEAA@XZ
	??1?$_XSliceValues@V?$PlyColorAndValueVertex@M@@@?$Octree@M@@QEAA@XZ
	??1?$adj_list_edge_iterator@V?$integer_iterator@_K@range_detail@boost@@U?$out_edge_iter@V?$_Vector_iterator@V?$_Vector_val@U?$_Simple_types@V?$stored_edge_property@_KUno_property@boost@@@detail@boost@@@std@@@std@@@std@@_KV?$edge_desc_impl@Udirected_tag@boost@@_K@detail@boost@@_J@detail@3@V?$adjacency_list@UvecS@boost@@U12@UdirectedS@2@UMST_VertexProperty@internal@easy3d@@Uno_property@2@U72@UlistS@2@@3@@detail@boost@@QEAA@XZ
	??1?$adjacency_list@UvecS@boost@@U12@UdirectedS@2@UMST_VertexProperty@internal@easy3d@@Uno_property@2@U72@UlistS@2@@boost@@QEAA@XZ
	??1?$adjacency_list@UvecS@boost@@U12@UundirectedS@2@UVertexProperty@internal@easy3d@@UEdgeProperty@56@Uno_property@2@UlistS@2@@boost@@QEAA@XZ
	??1?$aligned_stack_memory_handler@H@internal@Eigen@@QEAA@XZ
	??1?$aligned_stack_memory_handler@N@internal@Eigen@@QEAA@XZ
	??1?$basic_ostringstream@DU?$char_traits@D@std@@V?$allocator@D@2@@std@@UEAA@XZ
	??1?$basic_string@DU?$char_traits@D@std@@V?$allocator@D@2@@std@@QEAA@XZ
	??1?$basic_string@_WU?$char_traits@_W@std@@V?$allocator@_W@2@@std@@QEAA@XZ
	??1?$basic_stringbuf@DU?$char_traits@D@std@@V?$allocator@D@2@@std@@UEAA@XZ
	??1?$bgl_named_params@V?$BfsVisitor@VMST_Graph@internal@easy3d@@@internal@easy3d@@W4graph_visitor_t@boost@@Uno_property@5@@boost@@QEAA@XZ
	??1?$d_ary_heap_indirect@_K$03V?$iterator_property_map@PEA_KU?$vec_adj_list_vertex_id_map@UVertexProperty@internal@easy3d@@_K@boost@@_KAEA_K@boost@@V?$iterator_property_map@V?$_Vector_iterator@V?$_Vector_val@U?$_Simple_types@M@std@@@std@@@std@@U?$vec_adj_list_vertex_id_map@UVertexProperty@internal@easy3d@@_K@boost@@MAEAM@2@U?$less@M@std@@V?$vector@_KV?$allocator@_K@std@@@5@@boost@@QEAA@XZ
	??1?$deque@UFace@SurfaceMesh@easy3d@@V?$allocator@UFace@SurfaceMesh@easy3d@@@std@@@std@@QEAA@XZ
	??1?$deque@UVertex@SurfaceMesh@easy3d@@V?$allocator@UVertex@SurfaceMesh@easy3d@@@std@@@std@@QEAA@XZ
	??1?$deque@_KV?$allocator@_K@std@@@std@@QEAA@XZ
	??1?$function@$$A6A?AU?$ProjectiveData@U?$OrientedPoint3D@M@@M@@PEAV?$OctNode@VTreeNodeData@@@@@Z@std@@QEAA@XZ
	??1?$function@$$A6APEAV?$OctNode@VTreeNodeData@@@@PEAV1@AEAHPEAH@Z@std@@QEAA@XZ
	??1?$function@$$A6AXV?$edge_desc_impl@Udirected_tag@boost@@_K@detail@boost@@AEAVMST_Graph@internal@easy3d@@@Z@std@@QEAA@XZ
	??1?$list@U?$list_edge@_KUno_property@boost@@@boost@@V?$allocator@U?$list_edge@_KUno_property@boost@@@boost@@@std@@@std@@QEAA@XZ
	??1?$list@U?$pair@$$CBHH@std@@V?$allocator@U?$pair@$$CBHH@std@@@2@@std@@QEAA@XZ
	??1?$list@U?$pair@$$CB_JH@std@@V?$allocator@U?$pair@$$CB_JH@std@@@2@@std@@QEAA@XZ
	??1?$list@U?$pair@$$CB_JU?$pair@HV?$PlyColorAndValueVertex@M@@@std@@@std@@V?$allocator@U?$pair@$$CB_JU?$pair@HV?$PlyColorAndValueVertex@M@@@std@@@std@@@2@@std@@QEAA@XZ
	??1?$list@U?$pair@$$CB_JV?$vector@U_IsoEdge@?$Octree@M@@V?$allocator@U_IsoEdge@?$Octree@M@@@std@@@std@@@std@@V?$allocator@U?$pair@$$CB_JV?$vector@U_IsoEdge@?$Octree@M@@V?$allocator@U_IsoEdge@?$Octree@M@@@std@@@std@@@std@@@2@@std@@QEAA@XZ
	??1?$list@U?$pair@$$CB_J_J@std@@V?$allocator@U?$pair@$$CB_J_J@std@@@2@@std@@QEAA@XZ
	??1?$list@U?$pair@$$CB_KUVertex@SurfaceMesh@easy3d@@@std@@V?$allocator@U?$pair@$$CB_KUVertex@SurfaceMesh@easy3d@@@std@@@2@@std@@QEAA@XZ
	??1?$list@U?$pair@$$CB_K_K@std@@V?$allocator@U?$pair@$$CB_K_K@std@@@2@@std@@QEAA@XZ
	??1?$list@VTPPLPoly@@V?$allocator@VTPPLPoly@@@std@@@std@@QEAA@XZ
	??1?$lock_guard@Vrecursive_mutex@std@@@std@@QEAA@XZ
	??1?$map@UHalfedge@SurfaceMesh@easy3d@@UVirtualEdge@SurfaceMeshGeodesic@3@U?$less@UHalfedge@SurfaceMesh@easy3d@@@std@@V?$allocator@U?$pair@$$CBUHalfedge@SurfaceMesh@easy3d@@UVirtualEdge@SurfaceMeshGeodesic@3@@std@@@7@@std@@QEAA@XZ
	??1?$map@UVertex@SurfaceMesh@easy3d@@NU?$less@UVertex@SurfaceMesh@easy3d@@@std@@V?$allocator@U?$pair@$$CBUVertex@SurfaceMesh@easy3d@@N@std@@@5@@std@@QEAA@XZ
	??1?$optional@V?$edge_desc_impl@Uundirected_tag@boost@@_K@detail@boost@@@boost@@QEAA@XZ
	??1?$pair@V?$optional@V?$edge_desc_impl@Uundirected_tag@boost@@_K@detail@boost@@@boost@@U?$pair@U?$out_edge_iter@V?$_Vector_iterator@V?$_Vector_val@U?$_Simple_types@V?$stored_edge_iter@_KV?$_List_iterator@V?$_List_val@U?$_List_simple_types@U?$list_edge@_KUEdgeProperty@internal@easy3d@@@boost@@@std@@@std@@@std@@UEdgeProperty@internal@easy3d@@@detail@boost@@@std@@@std@@@std@@_KV?$edge_desc_impl@Uundirected_tag@boost@@_K@detail@boost@@_J@detail@boost@@U123@@std@@@std@@QEAA@XZ
	??1?$pair@_KU?$pair@V?$optional@V?$edge_desc_impl@Uundirected_tag@boost@@_K@detail@boost@@@boost@@U?$pair@U?$out_edge_iter@V?$_Vector_iterator@V?$_Vector_val@U?$_Simple_types@V?$stored_edge_iter@_KV?$_List_iterator@V?$_List_val@U?$_List_simple_types@U?$list_edge@_KUEdgeProperty@internal@easy3d@@@boost@@@std@@@std@@@std@@UEdgeProperty@internal@easy3d@@@detail@boost@@@std@@@std@@@std@@_KV?$edge_desc_impl@Uundirected_tag@boost@@_K@detail@boost@@_J@detail@boost@@U123@@std@@@std@@@std@@QEAA@XZ
	??1?$queue@_KV?$deque@_KV?$allocator@_K@std@@@std@@@boost@@QEAA@XZ
	??1?$refcount_ptr@Uerror_info_container@exception_detail@boost@@@exception_detail@boost@@QEAA@XZ
	??1?$scoped_array@N@internal@Eigen@@QEAA@XZ
	??1?$scoped_array@_K@boost@@QEAA@XZ
	??1?$set@UPointPair@internal@easy3d@@VLessDistPointPair@23@V?$allocator@UPointPair@internal@easy3d@@@std@@@std@@QEAA@XZ
	??1?$shared_array_property_map@W4default_color_type@boost@@U?$vec_adj_list_vertex_id_map@UVertexProperty@internal@easy3d@@_K@2@@boost@@QEAA@XZ
	??1?$stack@UFace@SurfaceMesh@easy3d@@V?$deque@UFace@SurfaceMesh@easy3d@@V?$allocator@UFace@SurfaceMesh@easy3d@@@std@@@std@@@std@@QEAA@XZ
	??1?$stack@UVertex@SurfaceMesh@easy3d@@V?$deque@UVertex@SurfaceMesh@easy3d@@V?$allocator@UVertex@SurfaceMesh@easy3d@@@std@@@std@@@std@@QEAA@XZ
	??1?$stored_edge_property@_KUno_property@boost@@@detail@boost@@QEAA@XZ
	??1?$two_bit_color_map@U?$vec_adj_list_vertex_id_map@UMST_VertexProperty@internal@easy3d@@_K@boost@@@boost@@QEAA@XZ
	??1?$two_bit_color_map@U?$vec_adj_list_vertex_id_map@UVertexProperty@internal@easy3d@@_K@boost@@@boost@@QEAA@XZ
	??1?$unordered_map@HHU?$hash@H@std@@U?$equal_to@H@2@V?$allocator@U?$pair@$$CBHH@std@@@2@@std@@QEAA@XZ
	??1?$unordered_map@_JHU?$hash@_J@std@@U?$equal_to@_J@2@V?$allocator@U?$pair@$$CB_JH@std@@@2@@std@@QEAA@XZ
	??1?$unordered_map@_JU?$pair@HV?$PlyColorAndValueVertex@M@@@std@@U?$hash@_J@2@U?$equal_to@_J@2@V?$allocator@U?$pair@$$CB_JU?$pair@HV?$PlyColorAndValueVertex@M@@@std@@@std@@@2@@std@@QEAA@XZ
	??1?$unordered_map@_JV?$vector@U_IsoEdge@?$Octree@M@@V?$allocator@U_IsoEdge@?$Octree@M@@@std@@@std@@U?$hash@_J@2@U?$equal_to@_J@2@V?$allocator@U?$pair@$$CB_JV?$vector@U_IsoEdge@?$Octree@M@@V?$allocator@U_IsoEdge@?$Octree@M@@@std@@@std@@@std@@@2@@std@@QEAA@XZ
	??1?$unordered_map@_KUVertex@SurfaceMesh@easy3d@@U?$hash@_K@std@@U?$equal_to@_K@5@V?$allocator@U?$pair@$$CB_KUVertex@SurfaceMesh@easy3d@@@std@@@5@@std@@QEAA@XZ
	??1?$vec_adj_list_impl@V?$adjacency_list@UvecS@boost@@U12@UdirectedS@2@UMST_VertexProperty@internal@easy3d@@Uno_property@2@U72@UlistS@2@@boost@@Uconfig@?$adj_list_gen@V?$adjacency_list@UvecS@boost@@U12@UdirectedS@2@UMST_VertexProperty@internal@easy3d@@Uno_property@2@U72@UlistS@2@@boost@@UvecS@2@U32@UdirectedS@2@UMST_VertexProperty@internal@easy3d@@Uno_property@2@U82@UlistS@2@@detail@2@U?$directed_graph_helper@Uconfig@?$adj_list_gen@V?$adjacency_list@UvecS@boost@@U12@UdirectedS@2@UMST_VertexProperty@internal@easy3d@@Uno_property@2@U72@UlistS@2@@boost@@UvecS@2@U32@UdirectedS@2@UMST_VertexProperty@internal@easy3d@@Uno_property@2@U82@UlistS@2@@detail@boost@@@2@@boost@@QEAA@XZ
	??1?$vec_adj_list_impl@V?$adjacency_list@UvecS@boost@@U12@UundirectedS@2@UVertexProperty@internal@easy3d@@UEdgeProperty@56@Uno_property@2@UlistS@2@@boost@@Uconfig@?$adj_list_gen@V?$adjacency_list@UvecS@boost@@U12@UundirectedS@2@UVertexProperty@internal@easy3d@@UEdgeProperty@56@Uno_property@2@UlistS@2@@boost@@UvecS@2@U32@UundirectedS@2@UVertexProperty@internal@easy3d@@UEdgeProperty@67@Uno_property@2@UlistS@2@@detail@2@U?$undirected_graph_helper@Uconfig@?$adj_list_gen@V?$adjacency_list@UvecS@boost@@U12@UundirectedS@2@UVertexProperty@internal@easy3d@@UEdgeProperty@56@Uno_property@2@UlistS@2@@boost@@UvecS@2@U32@UundirectedS@2@UVertexProperty@internal@easy3d@@UEdgeProperty@67@Uno_property@2@UlistS@2@@detail@boost@@@2@@boost@@QEAA@XZ
	??1?$vector@EV?$allocator@E@std@@@std@@QEAA@XZ
	??1?$vector@HV?$allocator@H@std@@@std@@QEAA@XZ
	??1?$vector@IV?$allocator@I@std@@@std@@QEAA@XZ
	??1?$vector@MV?$allocator@M@std@@@std@@QEAA@XZ
	??1?$vector@NV?$allocator@N@std@@@std@@QEAA@XZ
	??1?$vector@PEAUVertex@Tessellator@easy3d@@V?$allocator@PEAUVertex@Tessellator@easy3d@@@std@@@std@@QEAA@XZ
	??1?$vector@U?$BSplineElementCoefficients@$00@@V?$allocator@U?$BSplineElementCoefficients@$00@@@std@@@std@@QEAA@XZ
	??1?$vector@U?$BSplineElementCoefficients@$01@@V?$allocator@U?$BSplineElementCoefficients@$01@@@std@@@std@@QEAA@XZ
	??1?$vector@U?$ConstPointSupportKey@$00@@V?$allocator@U?$ConstPointSupportKey@$00@@@std@@@std@@QEAA@XZ
	??1?$vector@U?$ConstPointSupportKey@$01@@V?$allocator@U?$ConstPointSupportKey@$01@@@std@@@std@@QEAA@XZ
	??1?$vector@U?$Point3D@M@@V?$allocator@U?$Point3D@M@@@std@@@std@@QEAA@XZ
	??1?$vector@U?$PointSupportKey@$01@@V?$allocator@U?$PointSupportKey@$01@@@std@@@std@@QEAA@XZ
	??1?$vector@U?$_Evaluator@$01$01@?$Octree@M@@V?$allocator@U?$_Evaluator@$01$01@?$Octree@M@@@std@@@std@@QEAA@XZ
	??1?$vector@U?$_SlabValues@V?$PlyColorAndValueVertex@M@@@?$Octree@M@@V?$allocator@U?$_SlabValues@V?$PlyColorAndValueVertex@M@@@?$Octree@M@@@std@@@std@@QEAA@XZ
	??1?$vector@U?$pair@HV?$PlyColorAndValueVertex@M@@@std@@V?$allocator@U?$pair@HV?$PlyColorAndValueVertex@M@@@std@@@2@@std@@QEAA@XZ
	??1?$vector@U?$pair@UFace@SurfaceMesh@easy3d@@U123@@std@@V?$allocator@U?$pair@UFace@SurfaceMesh@easy3d@@U123@@std@@@2@@std@@QEAA@XZ
	??1?$vector@U?$pair@UHalfedge@SurfaceMesh@easy3d@@U123@@std@@V?$allocator@U?$pair@UHalfedge@SurfaceMesh@easy3d@@U123@@std@@@2@@std@@QEAA@XZ
	??1?$vector@U?$pair@_KU?$pair@V?$optional@V?$edge_desc_impl@Uundirected_tag@boost@@_K@detail@boost@@@boost@@U?$pair@U?$out_edge_iter@V?$_Vector_iterator@V?$_Vector_val@U?$_Simple_types@V?$stored_edge_iter@_KV?$_List_iterator@V?$_List_val@U?$_List_simple_types@U?$list_edge@_KUEdgeProperty@internal@easy3d@@@boost@@@std@@@std@@@std@@UEdgeProperty@internal@easy3d@@@detail@boost@@@std@@@std@@@std@@_KV?$edge_desc_impl@Uundirected_tag@boost@@_K@detail@boost@@_J@detail@boost@@U123@@std@@@std@@@std@@V?$allocator@U?$pair@_KU?$pair@V?$optional@V?$edge_desc_impl@Uundirected_tag@boost@@_K@detail@boost@@@boost@@U?$pair@U?$out_edge_iter@V?$_Vector_iterator@V?$_Vector_val@U?$_Simple_types@V?$stored_edge_iter@_KV?$_List_iterator@V?$_List_val@U?$_List_simple_types@U?$list_edge@_KUEdgeProperty@internal@easy3d@@@boost@@@std@@@std@@@std@@UEdgeProperty@internal@easy3d@@@detail@boost@@@std@@@std@@@std@@_KV?$edge_desc_impl@Uundirected_tag@boost@@_K@detail@boost@@_J@detail@boost@@U123@@std@@@std@@@std@@@2@@std@@QEAA@XZ
	??1?$vector@UCoredVertexIndex@@V?$allocator@UCoredVertexIndex@@@std@@@std@@QEAA@XZ
	??1?$vector@UHalfedge@SurfaceMesh@easy3d@@V?$allocator@UHalfedge@SurfaceMesh@easy3d@@@std@@@std@@QEAA@XZ
	??1?$vector@UVertex@PointCloud@easy3d@@V?$allocator@UVertex@PointCloud@easy3d@@@std@@@std@@QEAA@XZ
	??1?$vector@UVertex@SurfaceMesh@easy3d@@V?$allocator@UVertex@SurfaceMesh@easy3d@@@std@@@std@@QEAA@XZ
	??1?$vector@UWeight@SurfaceMeshHoleFilling@easy3d@@V?$allocator@UWeight@SurfaceMeshHoleFilling@easy3d@@@std@@@std@@QEAA@XZ
	??1?$vector@U_IsoEdge@?$Octree@M@@V?$allocator@U_IsoEdge@?$Octree@M@@@std@@@std@@QEAA@XZ
	??1?$vector@Ustored_vertex@config@?$adj_list_gen@V?$adjacency_list@UvecS@boost@@U12@UdirectedS@2@UMST_VertexProperty@internal@easy3d@@Uno_property@2@U72@UlistS@2@@boost@@UvecS@2@U32@UdirectedS@2@UMST_VertexProperty@internal@easy3d@@Uno_property@2@U82@UlistS@2@@detail@boost@@V?$allocator@Ustored_vertex@config@?$adj_list_gen@V?$adjacency_list@UvecS@boost@@U12@UdirectedS@2@UMST_VertexProperty@internal@easy3d@@Uno_property@2@U72@UlistS@2@@boost@@UvecS@2@U32@UdirectedS@2@UMST_VertexProperty@internal@easy3d@@Uno_property@2@U82@UlistS@2@@detail@boost@@@std@@@std@@QEAA@XZ
	??1?$vector@Ustored_vertex@config@?$adj_list_gen@V?$adjacency_list@UvecS@boost@@U12@UundirectedS@2@UVertexProperty@internal@easy3d@@UEdgeProperty@56@Uno_property@2@UlistS@2@@boost@@UvecS@2@U32@UundirectedS@2@UVertexProperty@internal@easy3d@@UEdgeProperty@67@Uno_property@2@UlistS@2@@detail@boost@@V?$allocator@Ustored_vertex@config@?$adj_list_gen@V?$adjacency_list@UvecS@boost@@U12@UundirectedS@2@UVertexProperty@internal@easy3d@@UEdgeProperty@56@Uno_property@2@UlistS@2@@boost@@UvecS@2@U32@UundirectedS@2@UVertexProperty@internal@easy3d@@UEdgeProperty@67@Uno_property@2@UlistS@2@@detail@boost@@@std@@@std@@QEAA@XZ
	??1?$vector@V?$ConstNeighborKey@$00$00@?$OctNode@VTreeNodeData@@@@V?$allocator@V?$ConstNeighborKey@$00$00@?$OctNode@VTreeNodeData@@@@@std@@@std@@QEAA@XZ
	??1?$vector@V?$GenericPolygon@M@easy3d@@V?$allocator@V?$GenericPolygon@M@easy3d@@@std@@@std@@QEAA@XZ
	??1?$vector@V?$NeighborKey@$00$00@?$OctNode@VTreeNodeData@@@@V?$allocator@V?$NeighborKey@$00$00@?$OctNode@VTreeNodeData@@@@@std@@@std@@QEAA@XZ
	??1?$vector@V?$NeighborKey@$00$01@?$OctNode@VTreeNodeData@@@@V?$allocator@V?$NeighborKey@$00$01@?$OctNode@VTreeNodeData@@@@@std@@@std@@QEAA@XZ
	??1?$vector@V?$PlyColorAndValueVertex@M@@V?$allocator@V?$PlyColorAndValueVertex@M@@@std@@@std@@QEAA@XZ
	??1?$vector@V?$SparseMatrix@M@@V?$allocator@V?$SparseMatrix@M@@@std@@@std@@QEAA@XZ
	??1?$vector@V?$Triplet@NH@Eigen@@V?$allocator@V?$Triplet@NH@Eigen@@@std@@@std@@QEAA@XZ
	??1?$vector@V?$Vec@$01H@easy3d@@V?$allocator@V?$Vec@$01H@easy3d@@@std@@@std@@QEAA@XZ
	??1?$vector@V?$Vec@$01M@easy3d@@V?$allocator@V?$Vec@$01M@easy3d@@@std@@@std@@QEAA@XZ
	??1?$vector@V?$Vec@$02M@easy3d@@V?$allocator@V?$Vec@$02M@easy3d@@@std@@@std@@QEAA@XZ
	??1?$vector@V?$basic_string@DU?$char_traits@D@std@@V?$allocator@D@2@@std@@V?$allocator@V?$basic_string@DU?$char_traits@D@std@@V?$allocator@D@2@@std@@@2@@std@@QEAA@XZ
	??1?$vector@V?$set@UHalfedge@SurfaceMesh@easy3d@@U?$less@UHalfedge@SurfaceMesh@easy3d@@@std@@V?$allocator@UHalfedge@SurfaceMesh@easy3d@@@5@@std@@V?$allocator@V?$set@UHalfedge@SurfaceMesh@easy3d@@U?$less@UHalfedge@SurfaceMesh@easy3d@@@std@@V?$allocator@UHalfedge@SurfaceMesh@easy3d@@@5@@std@@@2@@std@@QEAA@XZ
	??1?$vector@V?$stored_edge_property@_KUno_property@boost@@@detail@boost@@V?$allocator@V?$stored_edge_property@_KUno_property@boost@@@detail@boost@@@std@@@std@@QEAA@XZ
	??1?$vector@V?$vector@HV?$allocator@H@std@@@std@@V?$allocator@V?$vector@HV?$allocator@H@std@@@std@@@2@@std@@QEAA@XZ
	??1?$vector@V?$vector@IV?$allocator@I@std@@@std@@V?$allocator@V?$vector@IV?$allocator@I@std@@@std@@@2@@std@@QEAA@XZ
	??1?$vector@V?$vector@MV?$allocator@M@std@@@std@@V?$allocator@V?$vector@MV?$allocator@M@std@@@std@@@2@@std@@QEAA@XZ
	??1?$vector@V?$vector@UHalfedge@SurfaceMesh@easy3d@@V?$allocator@UHalfedge@SurfaceMesh@easy3d@@@std@@@std@@V?$allocator@V?$vector@UHalfedge@SurfaceMesh@easy3d@@V?$allocator@UHalfedge@SurfaceMesh@easy3d@@@std@@@std@@@2@@std@@QEAA@XZ
	??1?$vector@V?$vector@UVertex@SurfaceMesh@easy3d@@V?$allocator@UVertex@SurfaceMesh@easy3d@@@std@@@std@@V?$allocator@V?$vector@UVertex@SurfaceMesh@easy3d@@V?$allocator@UVertex@SurfaceMesh@easy3d@@@std@@@std@@@2@@std@@QEAA@XZ
	??1?$vector@V?$vector@UWeight@SurfaceMeshHoleFilling@easy3d@@V?$allocator@UWeight@SurfaceMeshHoleFilling@easy3d@@@std@@@std@@V?$allocator@V?$vector@UWeight@SurfaceMeshHoleFilling@easy3d@@V?$allocator@UWeight@SurfaceMeshHoleFilling@easy3d@@@std@@@std@@@2@@std@@QEAA@XZ
	??1?$vector@V?$vector@U_IsoEdge@?$Octree@M@@V?$allocator@U_IsoEdge@?$Octree@M@@@std@@@std@@V?$allocator@V?$vector@U_IsoEdge@?$Octree@M@@V?$allocator@U_IsoEdge@?$Octree@M@@@std@@@std@@@2@@std@@QEAA@XZ
	??1?$vector@V?$vector@V?$GenericPolygon@M@easy3d@@V?$allocator@V?$GenericPolygon@M@easy3d@@@std@@@std@@V?$allocator@V?$vector@V?$GenericPolygon@M@easy3d@@V?$allocator@V?$GenericPolygon@M@easy3d@@@std@@@std@@@2@@std@@QEAA@XZ
	??1?$vector@V?$vector@V?$Vec@$02M@easy3d@@V?$allocator@V?$Vec@$02M@easy3d@@@std@@@std@@V?$allocator@V?$vector@V?$Vec@$02M@easy3d@@V?$allocator@V?$Vec@$02M@easy3d@@@std@@@std@@@2@@std@@QEAA@XZ
	??1?$vector@V?$vector@V?$vector@HV?$allocator@H@std@@@std@@V?$allocator@V?$vector@HV?$allocator@H@std@@@std@@@2@@std@@V?$allocator@V?$vector@V?$vector@HV?$allocator@H@std@@@std@@V?$allocator@V?$vector@HV?$allocator@H@std@@@std@@@2@@std@@@2@@std@@QEAA@XZ
	??1?$vector@V?$vector@_JV?$allocator@_J@std@@@std@@V?$allocator@V?$vector@_JV?$allocator@_J@std@@@std@@@2@@std@@QEAA@XZ
	??1?$vector@V?$vector@_KV?$allocator@_K@std@@@std@@V?$allocator@V?$vector@_KV?$allocator@_K@std@@@std@@@2@@std@@QEAA@XZ
	??1?$vector@VMST_Graph@internal@easy3d@@V?$allocator@VMST_Graph@internal@easy3d@@@std@@@std@@QEAA@XZ
	??1?$vector@VRiemannianGraph@internal@easy3d@@V?$allocator@VRiemannianGraph@internal@easy3d@@@std@@@std@@QEAA@XZ
	??1?$vector@VSurfaceMeshComponent@easy3d@@V?$allocator@VSurfaceMeshComponent@easy3d@@@std@@@std@@QEAA@XZ
	??1?$vector@VTriangleIndex@@V?$allocator@VTriangleIndex@@@std@@@std@@QEAA@XZ
	??1?$vector@_KV?$allocator@_K@std@@@std@@QEAA@XZ
	??1?$vector@_NV?$allocator@_N@std@@@std@@QEAA@XZ
	??1?$wrapexcept@Unegative_edge@boost@@@boost@@UEAA@XZ
	??1BasePropertyArray@easy3d@@UEAA@XZ
	??1Collider@easy3d@@QEAA@XZ
	??1ColliderImpl@internal@@QEAA@XZ
	??1CylinderPrim@PrimitivesRansac@easy3d@@QEAA@XZ
	??1Delaunay2@easy3d@@UEAA@XZ
	??1Delaunay3@easy3d@@UEAA@XZ
	??1Delaunay@easy3d@@UEAA@XZ
	??1IndexedTriangle@IceMaths@@QEAA@XZ
	??1Model@easy3d@@UEAA@XZ
	??1Node@TriangleMeshKdTree@easy3d@@QEAA@XZ
	??1PlanePrim@PrimitivesRansac@easy3d@@QEAA@XZ
	??1Point@IceMaths@@QEAA@XZ
	??1PointCloud@@QEAA@XZ
	??1PoissonReconstruction@easy3d@@QEAA@XZ
	??1PropertyContainer@easy3d@@UEAA@XZ
	??1RiemannianGraph@internal@easy3d@@QEAA@XZ
	??1SliceTableData@SortedTreeNodes@@QEAA@XZ
	??1SortedTreeNodes@@QEAA@XZ
	??1SurfaceMesh@easy3d@@UEAA@XZ
	??1SurfaceMeshComponent@easy3d@@QEAA@XZ
	??1SurfaceMeshCurvature@easy3d@@QEAA@XZ
	??1SurfaceMeshFairing@easy3d@@QEAA@XZ
	??1SurfaceMeshGeodesic@easy3d@@QEAA@XZ
	??1SurfaceMeshRemeshing@easy3d@@QEAA@XZ
	??1SurfaceMeshSimplification@easy3d@@QEAA@XZ
	??1SurfaceMeshSmoothing@easy3d@@QEAA@XZ
	??1SurfaceMeshStitching@easy3d@@UEAA@XZ
	??1SurfaceMeshTriangulation@easy3d@@QEAA@XZ
	??1Tessellator@easy3d@@QEAA@XZ
	??1TextMesher@easy3d@@QEAA@XZ
	??1TreeNodeData@@QEAA@XZ
	??1Vertex@Tessellator@easy3d@@QEAA@XZ
	??1Writer@base@el@@UEAA@XZ
	??1XSliceTableData@SortedTreeNodes@@QEAA@XZ
	??1_Sentry_base@?$basic_ostream@DU?$char_traits@D@std@@@std@@QEAA@XZ
	??1bad_alloc@std@@UEAA@XZ
	??1bad_array_new_length@std@@UEAA@XZ
	??1clone_base@exception_detail@boost@@UEAA@XZ
	??1deleter@?$wrapexcept@Unegative_edge@boost@@@boost@@QEAA@XZ
	??1exception@boost@@MEAA@XZ
	??1exception@std@@UEAA@XZ
	??1negative_edge@boost@@UEAA@XZ
	??1runtime_error@std@@UEAA@XZ
	??1sentry@?$basic_ostream@DU?$char_traits@D@std@@@std@@QEAA@XZ
	??1sp_counted_base@detail@boost@@UEAA@XZ
	??1stored_vertex@config@?$adj_list_gen@V?$adjacency_list@UvecS@boost@@U12@UdirectedS@2@UMST_VertexProperty@internal@easy3d@@Uno_property@2@U72@UlistS@2@@boost@@UvecS@2@U32@UdirectedS@2@UMST_VertexProperty@internal@easy3d@@Uno_property@2@U82@UlistS@2@@detail@boost@@QEAA@XZ
	??1stored_vertex@config@?$adj_list_gen@V?$adjacency_list@UvecS@boost@@U12@UundirectedS@2@UVertexProperty@internal@easy3d@@UEdgeProperty@56@Uno_property@2@UlistS@2@@boost@@UvecS@2@U32@UundirectedS@2@UVertexProperty@internal@easy3d@@UEdgeProperty@67@Uno_property@2@UlistS@2@@detail@boost@@QEAA@XZ
	??4?$BSplineElements@$01@@QEAAAEAU0@AEBU0@@Z
	??4?$SparseMatrix@N$0A@H@Eigen@@QEAAAEAV01@AEBV01@@Z
	??4?$basic_string@DU?$char_traits@D@std@@V?$allocator@D@2@@std@@QEAAAEAV01@AEBV01@@Z
	??4?$vector@DV?$allocator@D@std@@@std@@QEAAAEAV01@AEBV01@@Z
	??4?$vector@EV?$allocator@E@std@@@std@@QEAAAEAV01@AEBV01@@Z
	??4?$vector@HV?$allocator@H@std@@@std@@QEAAAEAV01@$$QEAV01@@Z
	??4SurfaceMeshComponent@easy3d@@QEAAAEAV01@$$QEAV01@@Z
	??6MessageBuilder@base@el@@QEAAAEAV012@PEBD@Z
	??A?$Property@D@easy3d@@UEAAAEAD_K@Z
	??A?$Property@D@easy3d@@UEBAAEBD_K@Z
	??A?$Property@E@easy3d@@UEAAAEAE_K@Z
	??A?$Property@E@easy3d@@UEBAAEBE_K@Z
	??A?$Property@H@easy3d@@UEAAAEAH_K@Z
	??A?$Property@H@easy3d@@UEBAAEBH_K@Z
	??A?$Property@I@easy3d@@UEAAAEAI_K@Z
	??A?$Property@I@easy3d@@UEBAAEBI_K@Z
	??A?$Property@M@easy3d@@UEAAAEAM_K@Z
	??A?$Property@M@easy3d@@UEBAAEBM_K@Z
	??A?$Property@N@easy3d@@UEAAAEAN_K@Z
	??A?$Property@N@easy3d@@UEBAAEBN_K@Z
	??A?$Property@UFace@SurfaceMesh@easy3d@@@easy3d@@UEAAAEAUFace@SurfaceMesh@1@_K@Z
	??A?$Property@UFace@SurfaceMesh@easy3d@@@easy3d@@UEBAAEBUFace@SurfaceMesh@1@_K@Z
	??A?$Property@UFaceConnectivity@SurfaceMesh@easy3d@@@easy3d@@UEAAAEAUFaceConnectivity@SurfaceMesh@1@_K@Z
	??A?$Property@UFaceConnectivity@SurfaceMesh@easy3d@@@easy3d@@UEBAAEBUFaceConnectivity@SurfaceMesh@1@_K@Z
	??A?$Property@UHalfedge@SurfaceMesh@easy3d@@@easy3d@@UEAAAEAUHalfedge@SurfaceMesh@1@_K@Z
	??A?$Property@UHalfedge@SurfaceMesh@easy3d@@@easy3d@@UEBAAEBUHalfedge@SurfaceMesh@1@_K@Z
	??A?$Property@UHalfedgeConnectivity@SurfaceMesh@easy3d@@@easy3d@@UEAAAEAUHalfedgeConnectivity@SurfaceMesh@1@_K@Z
	??A?$Property@UHalfedgeConnectivity@SurfaceMesh@easy3d@@@easy3d@@UEBAAEBUHalfedgeConnectivity@SurfaceMesh@1@_K@Z
	??A?$Property@UVertex@SurfaceMesh@easy3d@@@easy3d@@UEAAAEAUVertex@SurfaceMesh@1@_K@Z
	??A?$Property@UVertex@SurfaceMesh@easy3d@@@easy3d@@UEBAAEBUVertex@SurfaceMesh@1@_K@Z
	??A?$Property@UVertexConnectivity@SurfaceMesh@easy3d@@@easy3d@@UEAAAEAUVertexConnectivity@SurfaceMesh@1@_K@Z
	??A?$Property@UVertexConnectivity@SurfaceMesh@easy3d@@@easy3d@@UEBAAEBUVertexConnectivity@SurfaceMesh@1@_K@Z
	??A?$Property@V?$Vec@$01M@easy3d@@@easy3d@@UEAAAEAV?$Vec@$01M@1@_K@Z
	??A?$Property@V?$Vec@$01M@easy3d@@@easy3d@@UEBAAEBV?$Vec@$01M@1@_K@Z
	??A?$Property@V?$Vec@$01N@easy3d@@@easy3d@@UEAAAEAV?$Vec@$01N@1@_K@Z
	??A?$Property@V?$Vec@$01N@easy3d@@@easy3d@@UEBAAEBV?$Vec@$01N@1@_K@Z
	??A?$Property@V?$Vec@$02M@easy3d@@@easy3d@@UEAAAEAV?$Vec@$02M@1@_K@Z
	??A?$Property@V?$Vec@$02M@easy3d@@@easy3d@@UEBAAEBV?$Vec@$02M@1@_K@Z
	??A?$Property@V?$Vec@$02N@easy3d@@@easy3d@@UEAAAEAV?$Vec@$02N@1@_K@Z
	??A?$Property@V?$Vec@$02N@easy3d@@@easy3d@@UEBAAEBV?$Vec@$02N@1@_K@Z
	??A?$Property@V?$vector@V?$Vec@$02M@easy3d@@V?$allocator@V?$Vec@$02M@easy3d@@@std@@@std@@@easy3d@@UEAAAEAV?$vector@V?$Vec@$02M@easy3d@@V?$allocator@V?$Vec@$02M@easy3d@@@std@@@std@@_K@Z
	??A?$Property@V?$vector@V?$Vec@$02M@easy3d@@V?$allocator@V?$Vec@$02M@easy3d@@@std@@@std@@@easy3d@@UEBAAEBV?$vector@V?$Vec@$02M@easy3d@@V?$allocator@V?$Vec@$02M@easy3d@@@std@@@std@@_K@Z
	??A?$Property@VNormalCone@easy3d@@@easy3d@@UEAAAEAVNormalCone@1@_K@Z
	??A?$Property@VNormalCone@easy3d@@@easy3d@@UEBAAEBVNormalCone@1@_K@Z
	??A?$Property@VQuadric@easy3d@@@easy3d@@UEAAAEAVQuadric@1@_K@Z
	??A?$Property@VQuadric@easy3d@@@easy3d@@UEBAAEBVQuadric@1@_K@Z
	??A?$Property@_K@easy3d@@UEAAAEA_K_K@Z
	??A?$Property@_K@easy3d@@UEBAAEB_K_K@Z
	??A?$Property@_N@easy3d@@UEAA?AV?$_Vb_reference@U?$_Wrap_alloc@V?$allocator@I@std@@@std@@@std@@_K@Z
	??A?$Property@_N@easy3d@@UEBA_N_K@Z
	??A?$SparseNodeData@U?$SinglePointData@M$0A@@@$0A@@@QEAAAEAU?$SinglePointData@M$0A@@@PEBV?$OctNode@VTreeNodeData@@@@@Z
	??A?$VertexProperty@H@SurfaceMesh@easy3d@@QEAAAEAHUVertex@12@@Z
	??A?$VertexProperty@N@SurfaceMesh@easy3d@@QEAAAEANUVertex@12@@Z
	??A?$VertexProperty@UVertex@SurfaceMesh@easy3d@@@SurfaceMesh@easy3d@@QEAAAEAUVertex@12@U312@@Z
	??A?$VertexProperty@V?$Vec@$02M@easy3d@@@SurfaceMesh@easy3d@@QEAAAEAV?$Vec@$02M@2@UVertex@12@@Z
	??D?$Polynomial@$00@@QEBA?AV0@N@Z
	??D?$Polynomial@$01@@QEBA?AV0@N@Z
	??D?$XForm4x4@M@@QEBA?AU0@AEBU0@@Z
	??EVertexIterator@SurfaceMesh@easy3d@@QEAAAEAV012@XZ
	??H?$_Vb_iterator@U?$_Wrap_alloc@V?$allocator@I@std@@@std@@@std@@QEBA?AV01@_J@Z
	??K?$Polynomial@$00@@QEBA?AV0@N@Z
	??K?$Polynomial@$01@@QEBA?AV0@N@Z
	??R<lambda_cbc5b4675dcfc3b66066f18034516e50>@@QEBA@PEAV?$OctNode@VTreeNodeData@@@@@Z
	??R?$HasNormalDataFunctor@$01@?$Octree@M@@QEBA_NPEBV?$OctNode@VTreeNodeData@@@@@Z
	??R?$Polynomial@$00@@QEBANN@Z
	??R?$Polynomial@$01@@QEBANN@Z
	??R?$Polynomial@$0A@@@QEBANN@Z
	??R?$checked_array_deleter@E@checked_deleters@boost@@QEBAXPEAE@Z
	??R?$checked_array_deleter@W4default_color_type@boost@@@checked_deleters@boost@@QEBAXPEAW4default_color_type@2@@Z
	??Y?$Polynomial@$00@@QEAAAEAV0@AEBV0@@Z
	??Y?$Polynomial@$01@@QEAAAEAV0@AEBV0@@Z
	??Z?$Polynomial@$00@@QEAAAEAV0@AEBV0@@Z
	??Z?$Polynomial@$01@@QEAAAEAV0@AEBV0@@Z
	??_7?$CellProperty@N@PolyMesh@easy3d@@6B@
	??_7?$CoredFileMeshData@V?$PlyColorAndValueVertex@M@@@@6B@
	??_7?$CoredMeshData@V?$PlyColorAndValueVertex@M@@@@6B@
	??_7?$EdgeProperty@M@SurfaceMesh@easy3d@@6B@
	??_7?$EdgeProperty@N@SurfaceMesh@easy3d@@6B@
	??_7?$EdgeProperty@V?$Vec@$02M@easy3d@@@SurfaceMesh@easy3d@@6B@
	??_7?$EdgeProperty@V?$Vec@$02N@easy3d@@@SurfaceMesh@easy3d@@6B@
	??_7?$EdgeProperty@_N@SurfaceMesh@easy3d@@6B@
	??_7?$FaceProperty@D@SurfaceMesh@easy3d@@6B@
	??_7?$FaceProperty@E@SurfaceMesh@easy3d@@6B@
	??_7?$FaceProperty@H@SurfaceMesh@easy3d@@6B@
	??_7?$FaceProperty@I@SurfaceMesh@easy3d@@6B@
	??_7?$FaceProperty@M@SurfaceMesh@easy3d@@6B@
	??_7?$FaceProperty@N@SurfaceMesh@easy3d@@6B@
	??_7?$FaceProperty@UFace@SurfaceMesh@easy3d@@@SurfaceMesh@easy3d@@6B@
	??_7?$FaceProperty@UFaceConnectivity@SurfaceMesh@easy3d@@@SurfaceMesh@easy3d@@6B@
	??_7?$FaceProperty@UVertex@SurfaceMesh@easy3d@@@SurfaceMesh@easy3d@@6B@
	??_7?$FaceProperty@V?$Vec@$01M@easy3d@@@SurfaceMesh@easy3d@@6B@
	??_7?$FaceProperty@V?$Vec@$02M@easy3d@@@SurfaceMesh@easy3d@@6B@
	??_7?$FaceProperty@V?$Vec@$02N@easy3d@@@SurfaceMesh@easy3d@@6B@
	??_7?$FaceProperty@V?$vector@V?$Vec@$02M@easy3d@@V?$allocator@V?$Vec@$02M@easy3d@@@std@@@std@@@SurfaceMesh@easy3d@@6B@
	??_7?$FaceProperty@VNormalCone@easy3d@@@SurfaceMesh@easy3d@@6B@
	??_7?$FaceProperty@_K@SurfaceMesh@easy3d@@6B@
	??_7?$FaceProperty@_N@SurfaceMesh@easy3d@@6B@
	??_7?$HalfedgeProperty@UHalfedgeConnectivity@SurfaceMesh@easy3d@@@SurfaceMesh@easy3d@@6B@
	??_7?$HalfedgeProperty@V?$Vec@$01N@easy3d@@@SurfaceMesh@easy3d@@6B@
	??_7?$HalfedgeProperty@_N@SurfaceMesh@easy3d@@6B@
	??_7?$Property@D@easy3d@@6B@
	??_7?$Property@E@easy3d@@6B@
	??_7?$Property@H@easy3d@@6B@
	??_7?$Property@I@easy3d@@6B@
	??_7?$Property@M@easy3d@@6B@
	??_7?$Property@N@easy3d@@6B@
	??_7?$Property@UFace@SurfaceMesh@easy3d@@@easy3d@@6B@
	??_7?$Property@UFaceConnectivity@SurfaceMesh@easy3d@@@easy3d@@6B@
	??_7?$Property@UHalfedge@SurfaceMesh@easy3d@@@easy3d@@6B@
	??_7?$Property@UHalfedgeConnectivity@SurfaceMesh@easy3d@@@easy3d@@6B@
	??_7?$Property@UVertex@SurfaceMesh@easy3d@@@easy3d@@6B@
	??_7?$Property@UVertexConnectivity@SurfaceMesh@easy3d@@@easy3d@@6B@
	??_7?$Property@V?$Vec@$01M@easy3d@@@easy3d@@6B@
	??_7?$Property@V?$Vec@$01N@easy3d@@@easy3d@@6B@
	??_7?$Property@V?$Vec@$02M@easy3d@@@easy3d@@6B@
	??_7?$Property@V?$Vec@$02N@easy3d@@@easy3d@@6B@
	??_7?$Property@V?$vector@V?$Vec@$02M@easy3d@@V?$allocator@V?$Vec@$02M@easy3d@@@std@@@std@@@easy3d@@6B@
	??_7?$Property@VNormalCone@easy3d@@@easy3d@@6B@
	??_7?$Property@VQuadric@easy3d@@@easy3d@@6B@
	??_7?$Property@_K@easy3d@@6B@
	??_7?$Property@_N@easy3d@@6B@
	??_7?$PropertyArray@D@easy3d@@6B@
	??_7?$PropertyArray@E@easy3d@@6B@
	??_7?$PropertyArray@H@easy3d@@6B@
	??_7?$PropertyArray@I@easy3d@@6B@
	??_7?$PropertyArray@M@easy3d@@6B@
	??_7?$PropertyArray@N@easy3d@@6B@
	??_7?$PropertyArray@UFace@SurfaceMesh@easy3d@@@easy3d@@6B@
	??_7?$PropertyArray@UHalfedge@SurfaceMesh@easy3d@@@easy3d@@6B@
	??_7?$PropertyArray@UVertex@SurfaceMesh@easy3d@@@easy3d@@6B@
	??_7?$PropertyArray@V?$Vec@$01M@easy3d@@@easy3d@@6B@
	??_7?$PropertyArray@V?$Vec@$01N@easy3d@@@easy3d@@6B@
	??_7?$PropertyArray@V?$Vec@$02M@easy3d@@@easy3d@@6B@
	??_7?$PropertyArray@V?$Vec@$02N@easy3d@@@easy3d@@6B@
	??_7?$PropertyArray@V?$vector@V?$Vec@$02M@easy3d@@V?$allocator@V?$Vec@$02M@easy3d@@@std@@@std@@@easy3d@@6B@
	??_7?$PropertyArray@VNormalCone@easy3d@@@easy3d@@6B@
	??_7?$PropertyArray@VQuadric@easy3d@@@easy3d@@6B@
	??_7?$PropertyArray@_K@easy3d@@6B@
	??_7?$PropertyArray@_N@easy3d@@6B@
	??_7?$VertexProperty@D@SurfaceMesh@easy3d@@6B@
	??_7?$VertexProperty@E@SurfaceMesh@easy3d@@6B@
	??_7?$VertexProperty@H@PointCloud@easy3d@@6B@
	??_7?$VertexProperty@H@SurfaceMesh@easy3d@@6B@
	??_7?$VertexProperty@I@SurfaceMesh@easy3d@@6B@
	??_7?$VertexProperty@M@PointCloud@easy3d@@6B@
	??_7?$VertexProperty@M@SurfaceMesh@easy3d@@6B@
	??_7?$VertexProperty@N@SurfaceMesh@easy3d@@6B@
	??_7?$VertexProperty@UHalfedge@SurfaceMesh@easy3d@@@SurfaceMesh@easy3d@@6B@
	??_7?$VertexProperty@UVertex@SurfaceMesh@easy3d@@@SurfaceMesh@easy3d@@6B@
	??_7?$VertexProperty@UVertexConnectivity@SurfaceMesh@easy3d@@@SurfaceMesh@easy3d@@6B@
	??_7?$VertexProperty@V?$Vec@$01M@easy3d@@@SurfaceMesh@easy3d@@6B@
	??_7?$VertexProperty@V?$Vec@$02M@easy3d@@@PointCloud@easy3d@@6B@
	??_7?$VertexProperty@V?$Vec@$02M@easy3d@@@SurfaceMesh@easy3d@@6B@
	??_7?$VertexProperty@VQuadric@easy3d@@@SurfaceMesh@easy3d@@6B@
	??_7?$VertexProperty@_K@PointCloud@easy3d@@6B@
	??_7?$VertexProperty@_K@SurfaceMesh@easy3d@@6B@
	??_7?$VertexProperty@_N@SurfaceMesh@easy3d@@6B@
	??_7?$_Func_impl_no_alloc@P6AXV?$edge_desc_impl@Udirected_tag@boost@@_K@detail@boost@@AEAVMST_Graph@internal@easy3d@@@ZXV123@AEAV456@@std@@6B@
	??_7?$_Func_impl_no_alloc@V<lambda_17731faf86688589c88379bfdd83a964>@@PEAV?$OctNode@VTreeNodeData@@@@PEAV2@AEAHPEAH@std@@6B@
	??_7?$_Func_impl_no_alloc@V<lambda_cbc5b4675dcfc3b66066f18034516e50>@@U?$ProjectiveData@U?$OrientedPoint3D@M@@M@@PEAV?$OctNode@VTreeNodeData@@@@@std@@6B@
	??_7?$basic_ostringstream@DU?$char_traits@D@std@@V?$allocator@D@2@@std@@6B@
	??_7?$basic_stringbuf@DU?$char_traits@D@std@@V?$allocator@D@2@@std@@6B@
	??_7?$sp_counted_impl_pd@PEAEU?$checked_array_deleter@E@checked_deleters@boost@@@detail@boost@@6B@
	??_7?$sp_counted_impl_pd@PEAW4default_color_type@boost@@U?$checked_array_deleter@W4default_color_type@boost@@@checked_deleters@2@@detail@boost@@6B@
	??_7?$wrapexcept@Unegative_edge@boost@@@boost@@6Bclone_base@exception_detail@1@@
	??_7?$wrapexcept@Unegative_edge@boost@@@boost@@6Bexception@1@@
	??_7?$wrapexcept@Unegative_edge@boost@@@boost@@6Bnegative_edge@1@@
	??_7BasePropertyArray@easy3d@@6B@
	??_7ConePrimitiveShapeConstructor@@6B@
	??_7CylinderPrimitiveShapeConstructor@@6B@
	??_7Delaunay2@easy3d@@6B@
	??_7Delaunay3@easy3d@@6B@
	??_7Delaunay@easy3d@@6B@
	??_7PlanePrimitiveShapeConstructor@@6B@
	??_7PrimitiveShapeConstructor@@6B@
	??_7PropertyContainer@easy3d@@6B@
	??_7RefCount@MiscLib@@6B@
	??_7SurfaceMesh@easy3d@@6B@
	??_7SurfaceMeshStitching@easy3d@@6B@
	??_7TorusPrimitiveShapeConstructor@@6B@
	??_7Writer@base@el@@6B@
	??_7bad_alloc@std@@6B@
	??_7bad_array_new_length@std@@6B@
	??_7bad_graph@boost@@6B@
	??_7clone_base@exception_detail@boost@@6B@
	??_7exception@boost@@6B@
	??_7exception@std@@6B@
	??_7invalid_argument@std@@6B@
	??_7logic_error@std@@6B@
	??_7negative_edge@boost@@6B@
	??_7runtime_error@std@@6B@
	??_7sp_counted_base@detail@boost@@6B@
	??_D?$basic_ostringstream@DU?$char_traits@D@std@@V?$allocator@D@2@@std@@QEAAXXZ
	??_DSurfaceMesh@easy3d@@QEAAXXZ
	??_F?$OctNode@VTreeNodeData@@@@QEAAXXZ
	??_H@YAXPEAX_K1P6APEAX0@Z@Z
	??__G@YAXPEAX0_K1P6APEAX00@Z@Z
	?BSpline@?$PPolynomial@$0A@@@SA?AV1@N@Z
	?BSplineComponent@?$Polynomial@$00@@SA?AV1@H@Z
	?BSplineComponent@?$Polynomial@$01@@SA?AV1@H@Z
	?BSplineComponent@?$Polynomial@$0A@@@SA?AV1@H@Z
	?BSplineComponentValues@?$Polynomial@$00@@SAXNPEAN@Z
	?BSplineComponentValues@?$Polynomial@$01@@SAXNPEAN@Z
	?BSplineComponentValues@?$Polynomial@$0A@@@SAXNPEAN@Z
	?BinomialCoefficients@?$Polynomial@$00@@SAXQEAH@Z
	?BinomialCoefficients@?$Polynomial@$01@@SAXQEAH@Z
	?BinomialCoefficients@?$Polynomial@$02@@SAXQEAH@Z
	?BinomialCoefficients@?$Polynomial@$0A@@@SAXQEAH@Z
	?CenterIndex@VertexData@@SA_JHQEBHHQEAH@Z
	?CenterIndex@VertexData@@SA_JPEBV?$OctNode@VTreeNodeData@@@@H@Z
	?CenterIndex@VertexData@@SA_JPEBV?$OctNode@VTreeNodeData@@@@HQEAH@Z
	?CornerIndex@VertexData@@SA_JHQEBHHHQEAH@Z
	?CornerIndex@VertexData@@SA_JPEBV?$OctNode@VTreeNodeData@@@@HH@Z
	?CornerIndex@VertexData@@SA_JPEBV?$OctNode@VTreeNodeData@@@@HHQEAH@Z
	?CornerIndexKey@VertexData@@SA_JQEBH@Z
	?Differentiate@?$Differentiator@$00$00@@SAXAEBU?$BSplineElements@$00@@AEAU2@@Z
	?Differentiate@?$Differentiator@$00$0A@@@SAXAEBU?$BSplineElements@$00@@AEAU?$BSplineElements@$0A@@@@Z
	?Differentiate@?$Differentiator@$01$00@@SAXAEBU?$BSplineElements@$01@@AEAU?$BSplineElements@$00@@@Z
	?Differentiate@?$Differentiator@$01$01@@SAXAEBU?$BSplineElements@$01@@AEAU2@@Z
	?Differentiate@?$Differentiator@$01$0A@@@SAXAEBU?$BSplineElements@$01@@AEAU?$BSplineElements@$0A@@@@Z
	?Differentiate@?$Differentiator@$0A@$0A@@@SAXAEBU?$BSplineElements@$0A@@@AEAU2@@Z
	?EdgeIndex@VertexData@@SA_JPEBV?$OctNode@VTreeNodeData@@@@HH@Z
	?EdgeIndex@VertexData@@SA_JPEBV?$OctNode@VTreeNodeData@@@@HHQEAH@Z
	?EdgeKey@@YA_JHH@Z
	?FaceIndex@VertexData@@SA_JPEBV?$OctNode@VTreeNodeData@@@@HH@Z
	?FaceIndex@VertexData@@SA_JPEBV?$OctNode@VTreeNodeData@@@@HHQEAH@Z
	?GetArea@?$MinimalAreaTriangulation@M@@AEAAMAEB_K0AEBV?$vector@U?$Point3D@M@@V?$allocator@U?$Point3D@M@@@std@@@std@@@Z
	?GetTriangulation@?$MinimalAreaTriangulation@M@@AEAAXAEB_K0AEBV?$vector@U?$Point3D@M@@V?$allocator@U?$Point3D@M@@@std@@@std@@AEAV?$vector@VTriangleIndex@@V?$allocator@VTriangleIndex@@@std@@@3@@Z
	?GetTriangulation@?$MinimalAreaTriangulation@M@@QEAAXAEBV?$vector@U?$Point3D@M@@V?$allocator@U?$Point3D@M@@@std@@@std@@AEAV?$vector@VTriangleIndex@@V?$allocator@VTriangleIndex@@@std@@@3@@Z
	?IndexToOffset@?$BSplineEvaluationData@$01$01@@SAHHH@Z
	?IndexToOffset@?$BSplineIntegrationData@$01$01$01$01@@SAHHH@Z
	?NewBrood@?$OctNode@VTreeNodeData@@@@SAPEAV1@P6AXAEAV1@@Z@Z
	?OffsetToIndex@?$BSplineEvaluationData@$01$01@@SAHHH@Z
	?PeakMemoryUsageMB@easy3d@@YANXZ
	?ResetDepthAndOffset@?$OctNode@VTreeNodeData@@@@SAXPEAV1@HQEAH@Z
	?Resize@?$SparseMatrix@M@@QEAAXH@Z
	?Set1D@?$IntegratorSetter@$00$00$01$01U?$ChildIntegrator@$01$01@FunctionIntegrator@?$BSplineIntegrationData@$01$01$01$01@@@?$BSplineIntegrationData@$01$01$01$01@@SAXAEAU?$ChildIntegrator@$01$01@FunctionIntegrator@2@H@Z
	?Set1D@?$IntegratorSetter@$00$00$01$01U?$Integrator@$01$01@FunctionIntegrator@?$BSplineIntegrationData@$01$01$01$01@@@?$BSplineIntegrationData@$01$01$01$01@@SAXAEAU?$Integrator@$01$01@FunctionIntegrator@2@H@Z
	?Set1D@?$IntegratorSetter@$00$01$01$01U?$ChildIntegrator@$01$01@FunctionIntegrator@?$BSplineIntegrationData@$01$01$01$01@@@?$BSplineIntegrationData@$01$01$01$01@@SAXAEAU?$ChildIntegrator@$01$01@FunctionIntegrator@2@H@Z
	?Set1D@?$IntegratorSetter@$00$01$01$01U?$Integrator@$01$01@FunctionIntegrator@?$BSplineIntegrationData@$01$01$01$01@@@?$BSplineIntegrationData@$01$01$01$01@@SAXAEAU?$Integrator@$01$01@FunctionIntegrator@2@H@Z
	?Set1D@?$IntegratorSetter@$00$0A@$01$01U?$ChildIntegrator@$01$01@FunctionIntegrator@?$BSplineIntegrationData@$01$01$01$01@@@?$BSplineIntegrationData@$01$01$01$01@@SAXAEAU?$ChildIntegrator@$01$01@FunctionIntegrator@2@H@Z
	?Set1D@?$IntegratorSetter@$00$0A@$01$01U?$Integrator@$01$01@FunctionIntegrator@?$BSplineIntegrationData@$01$01$01$01@@@?$BSplineIntegrationData@$01$01$01$01@@SAXAEAU?$Integrator@$01$01@FunctionIntegrator@2@H@Z
	?Set1D@?$IntegratorSetter@$01$00$01$01U?$ChildIntegrator@$01$01@FunctionIntegrator@?$BSplineIntegrationData@$01$01$01$01@@@?$BSplineIntegrationData@$01$01$01$01@@SAXAEAU?$ChildIntegrator@$01$01@FunctionIntegrator@2@H@Z
	?Set1D@?$IntegratorSetter@$01$00$01$01U?$Integrator@$01$01@FunctionIntegrator@?$BSplineIntegrationData@$01$01$01$01@@@?$BSplineIntegrationData@$01$01$01$01@@SAXAEAU?$Integrator@$01$01@FunctionIntegrator@2@H@Z
	?Set1D@?$IntegratorSetter@$01$01$01$01U?$ChildIntegrator@$01$01@FunctionIntegrator@?$BSplineIntegrationData@$01$01$01$01@@@?$BSplineIntegrationData@$01$01$01$01@@SAXAEAU?$ChildIntegrator@$01$01@FunctionIntegrator@2@H@Z
	?Set1D@?$IntegratorSetter@$01$01$01$01U?$Integrator@$01$01@FunctionIntegrator@?$BSplineIntegrationData@$01$01$01$01@@@?$BSplineIntegrationData@$01$01$01$01@@SAXAEAU?$Integrator@$01$01@FunctionIntegrator@2@H@Z
	?Set1D@?$IntegratorSetter@$01$0A@$01$01U?$ChildIntegrator@$01$01@FunctionIntegrator@?$BSplineIntegrationData@$01$01$01$01@@@?$BSplineIntegrationData@$01$01$01$01@@SAXAEAU?$ChildIntegrator@$01$01@FunctionIntegrator@2@H@Z
	?Set1D@?$IntegratorSetter@$01$0A@$01$01U?$Integrator@$01$01@FunctionIntegrator@?$BSplineIntegrationData@$01$01$01$01@@@?$BSplineIntegrationData@$01$01$01$01@@SAXAEAU?$Integrator@$01$01@FunctionIntegrator@2@H@Z
	?Set1D@?$IntegratorSetter@$0A@$00$01$01U?$ChildIntegrator@$01$01@FunctionIntegrator@?$BSplineIntegrationData@$01$01$01$01@@@?$BSplineIntegrationData@$01$01$01$01@@SAXAEAU?$ChildIntegrator@$01$01@FunctionIntegrator@2@H@Z
	?Set1D@?$IntegratorSetter@$0A@$00$01$01U?$Integrator@$01$01@FunctionIntegrator@?$BSplineIntegrationData@$01$01$01$01@@@?$BSplineIntegrationData@$01$01$01$01@@SAXAEAU?$Integrator@$01$01@FunctionIntegrator@2@H@Z
	?Set1D@?$IntegratorSetter@$0A@$01$01$01U?$ChildIntegrator@$01$01@FunctionIntegrator@?$BSplineIntegrationData@$01$01$01$01@@@?$BSplineIntegrationData@$01$01$01$01@@SAXAEAU?$ChildIntegrator@$01$01@FunctionIntegrator@2@H@Z
	?Set1D@?$IntegratorSetter@$0A@$01$01$01U?$Integrator@$01$01@FunctionIntegrator@?$BSplineIntegrationData@$01$01$01$01@@@?$BSplineIntegrationData@$01$01$01$01@@SAXAEAU?$Integrator@$01$01@FunctionIntegrator@2@H@Z
	?Set1D@?$IntegratorSetter@$0A@$0A@$01$01U?$ChildIntegrator@$01$01@FunctionIntegrator@?$BSplineIntegrationData@$01$01$01$01@@@?$BSplineIntegrationData@$01$01$01$01@@SAXAEAU?$ChildIntegrator@$01$01@FunctionIntegrator@2@H@Z
	?Set1D@?$IntegratorSetter@$0A@$0A@$01$01U?$Integrator@$01$01@FunctionIntegrator@?$BSplineIntegrationData@$01$01$01$01@@@?$BSplineIntegrationData@$01$01$01$01@@SAXAEAU?$Integrator@$01$01@FunctionIntegrator@2@H@Z
	?Set2D@?$IntegratorSetter@$00$01$01$01U?$ChildIntegrator@$01$01@FunctionIntegrator@?$BSplineIntegrationData@$01$01$01$01@@@?$BSplineIntegrationData@$01$01$01$01@@SAXAEAU?$ChildIntegrator@$01$01@FunctionIntegrator@2@H@Z
	?Set2D@?$IntegratorSetter@$00$01$01$01U?$Integrator@$01$01@FunctionIntegrator@?$BSplineIntegrationData@$01$01$01$01@@@?$BSplineIntegrationData@$01$01$01$01@@SAXAEAU?$Integrator@$01$01@FunctionIntegrator@2@H@Z
	?Set2D@?$IntegratorSetter@$01$01$01$01U?$ChildIntegrator@$01$01@FunctionIntegrator@?$BSplineIntegrationData@$01$01$01$01@@@?$BSplineIntegrationData@$01$01$01$01@@SAXAEAU?$ChildIntegrator@$01$01@FunctionIntegrator@2@H@Z
	?Set2D@?$IntegratorSetter@$01$01$01$01U?$Integrator@$01$01@FunctionIntegrator@?$BSplineIntegrationData@$01$01$01$01@@@?$BSplineIntegrationData@$01$01$01$01@@SAXAEAU?$Integrator@$01$01@FunctionIntegrator@2@H@Z
	?Set2D@?$IntegratorSetter@$0A@$01$01$01U?$ChildIntegrator@$01$01@FunctionIntegrator@?$BSplineIntegrationData@$01$01$01$01@@@?$BSplineIntegrationData@$01$01$01$01@@SAXAEAU?$ChildIntegrator@$01$01@FunctionIntegrator@2@H@Z
	?Set2D@?$IntegratorSetter@$0A@$01$01$01U?$Integrator@$01$01@FunctionIntegrator@?$BSplineIntegrationData@$01$01$01$01@@@?$BSplineIntegrationData@$01$01$01$01@@SAXAEAU?$Integrator@$01$01@FunctionIntegrator@2@H@Z
	?Set@?$_IntegratorSetter@$00$00$01$01@?$BSplineIntegrationData@$01$01$01$01@@SAXAEAU?$ChildIntegrator@$01$01@FunctionIntegrator@2@H@Z
	?Set@?$_IntegratorSetter@$00$00$01$01@?$BSplineIntegrationData@$01$01$01$01@@SAXAEAU?$Integrator@$01$01@FunctionIntegrator@2@H@Z
	?Set@?$_IntegratorSetter@$00$01$01$01@?$BSplineIntegrationData@$01$01$01$01@@SAXAEAU?$ChildIntegrator@$01$01@FunctionIntegrator@2@H@Z
	?Set@?$_IntegratorSetter@$00$01$01$01@?$BSplineIntegrationData@$01$01$01$01@@SAXAEAU?$Integrator@$01$01@FunctionIntegrator@2@H@Z
	?Set@?$_IntegratorSetter@$00$0A@$01$01@?$BSplineIntegrationData@$01$01$01$01@@SAXAEAU?$ChildIntegrator@$01$01@FunctionIntegrator@2@H@Z
	?Set@?$_IntegratorSetter@$00$0A@$01$01@?$BSplineIntegrationData@$01$01$01$01@@SAXAEAU?$Integrator@$01$01@FunctionIntegrator@2@H@Z
	?Set@?$_IntegratorSetter@$01$00$01$01@?$BSplineIntegrationData@$01$01$01$01@@SAXAEAU?$ChildIntegrator@$01$01@FunctionIntegrator@2@H@Z
	?Set@?$_IntegratorSetter@$01$00$01$01@?$BSplineIntegrationData@$01$01$01$01@@SAXAEAU?$Integrator@$01$01@FunctionIntegrator@2@H@Z
	?Set@?$_IntegratorSetter@$01$01$01$01@?$BSplineIntegrationData@$01$01$01$01@@SAXAEAU?$ChildIntegrator@$01$01@FunctionIntegrator@2@H@Z
	?Set@?$_IntegratorSetter@$01$01$01$01@?$BSplineIntegrationData@$01$01$01$01@@SAXAEAU?$Integrator@$01$01@FunctionIntegrator@2@H@Z
	?Set@?$_IntegratorSetter@$01$0A@$01$01@?$BSplineIntegrationData@$01$01$01$01@@SAXAEAU?$ChildIntegrator@$01$01@FunctionIntegrator@2@H@Z
	?Set@?$_IntegratorSetter@$01$0A@$01$01@?$BSplineIntegrationData@$01$01$01$01@@SAXAEAU?$Integrator@$01$01@FunctionIntegrator@2@H@Z
	?Set@?$_IntegratorSetter@$0A@$00$01$01@?$BSplineIntegrationData@$01$01$01$01@@SAXAEAU?$ChildIntegrator@$01$01@FunctionIntegrator@2@H@Z
	?Set@?$_IntegratorSetter@$0A@$00$01$01@?$BSplineIntegrationData@$01$01$01$01@@SAXAEAU?$Integrator@$01$01@FunctionIntegrator@2@H@Z
	?Set@?$_IntegratorSetter@$0A@$01$01$01@?$BSplineIntegrationData@$01$01$01$01@@SAXAEAU?$ChildIntegrator@$01$01@FunctionIntegrator@2@H@Z
	?Set@?$_IntegratorSetter@$0A@$01$01$01@?$BSplineIntegrationData@$01$01$01$01@@SAXAEAU?$Integrator@$01$01@FunctionIntegrator@2@H@Z
	?Set@?$_IntegratorSetter@$0A@$0A@$01$01@?$BSplineIntegrationData@$01$01$01$01@@SAXAEAU?$ChildIntegrator@$01$01@FunctionIntegrator@2@H@Z
	?Set@?$_IntegratorSetter@$0A@$0A@$01$01@?$BSplineIntegrationData@$01$01$01$01@@SAXAEAU?$Integrator@$01$01@FunctionIntegrator@2@H@Z
	?SetAllocator@?$OctNode@VTreeNodeData@@@@SAXH@Z
	?SetCenterEvaluator@?$BSplineEvaluationData@$01$01@@SAXAEAUEvaluator@CenterEvaluator@1@H@Z
	?SetChildCenterEvaluator@?$BSplineEvaluationData@$01$01@@SAXAEAUChildEvaluator@CenterEvaluator@1@H@Z
	?SetChildCornerEvaluator@?$BSplineEvaluationData@$01$01@@SAXAEAUChildEvaluator@CornerEvaluator@1@H@Z
	?SetConnectedComponents@@YAXAEBV?$vector@V?$vector@HV?$allocator@H@std@@@std@@V?$allocator@V?$vector@HV?$allocator@H@std@@@std@@@2@@std@@AEAV12@@Z
	?SetCornerEvaluator@?$BSplineEvaluationData@$01$01@@SAXAEAUEvaluator@CornerEvaluator@1@H@Z
	?SetRowSize@?$SparseMatrix@M@@QEAAXHH@Z
	?SetUpSampleEvaluator@?$BSplineEvaluationData@$01$01@@SAXAEAUUpSampleEvaluator@1@H@Z
	?ShowUsage@@YAXPEAD@Z
	?Usage@MemoryInfo@@SA_KXZ
	?Value@?$BSplineEvaluationData@$01$01@@SANHHN_N@Z
	?_Assign_grow@?$_Hash_vec@V?$allocator@V?$_List_unchecked_iterator@V?$_List_val@U?$_List_simple_types@U?$pair@$$CBHH@std@@@std@@@std@@@std@@@std@@@std@@QEAAX_KV?$_List_unchecked_iterator@V?$_List_val@U?$_List_simple_types@U?$pair@$$CBHH@std@@@std@@@std@@@2@@Z
	?_Assign_grow@?$_Hash_vec@V?$allocator@V?$_List_unchecked_iterator@V?$_List_val@U?$_List_simple_types@U?$pair@$$CB_JH@std@@@std@@@std@@@std@@@std@@@std@@QEAAX_KV?$_List_unchecked_iterator@V?$_List_val@U?$_List_simple_types@U?$pair@$$CB_JH@std@@@std@@@std@@@2@@Z
	?_Assign_grow@?$_Hash_vec@V?$allocator@V?$_List_unchecked_iterator@V?$_List_val@U?$_List_simple_types@U?$pair@$$CB_JU?$pair@HV?$PlyColorAndValueVertex@M@@@std@@@std@@@std@@@std@@@std@@@std@@@std@@QEAAX_KV?$_List_unchecked_iterator@V?$_List_val@U?$_List_simple_types@U?$pair@$$CB_JU?$pair@HV?$PlyColorAndValueVertex@M@@@std@@@std@@@std@@@std@@@2@@Z
	?_Assign_grow@?$_Hash_vec@V?$allocator@V?$_List_unchecked_iterator@V?$_List_val@U?$_List_simple_types@U?$pair@$$CB_JV?$vector@U_IsoEdge@?$Octree@M@@V?$allocator@U_IsoEdge@?$Octree@M@@@std@@@std@@@std@@@std@@@std@@@std@@@std@@@std@@QEAAX_KV?$_List_unchecked_iterator@V?$_List_val@U?$_List_simple_types@U?$pair@$$CB_JV?$vector@U_IsoEdge@?$Octree@M@@V?$allocator@U_IsoEdge@?$Octree@M@@@std@@@std@@@std@@@std@@@std@@@2@@Z
	?_Assign_grow@?$_Hash_vec@V?$allocator@V?$_List_unchecked_iterator@V?$_List_val@U?$_List_simple_types@U?$pair@$$CB_J_J@std@@@std@@@std@@@std@@@std@@@std@@QEAAX_KV?$_List_unchecked_iterator@V?$_List_val@U?$_List_simple_types@U?$pair@$$CB_J_J@std@@@std@@@std@@@2@@Z
	?_Assign_grow@?$_Hash_vec@V?$allocator@V?$_List_unchecked_iterator@V?$_List_val@U?$_List_simple_types@U?$pair@$$CB_KUVertex@SurfaceMesh@easy3d@@@std@@@std@@@std@@@std@@@std@@@std@@QEAAX_KV?$_List_unchecked_iterator@V?$_List_val@U?$_List_simple_types@U?$pair@$$CB_KUVertex@SurfaceMesh@easy3d@@@std@@@std@@@std@@@2@@Z
	?_Assign_grow@?$_Hash_vec@V?$allocator@V?$_List_unchecked_iterator@V?$_List_val@U?$_List_simple_types@U?$pair@$$CB_K_K@std@@@std@@@std@@@std@@@std@@@std@@QEAAX_KV?$_List_unchecked_iterator@V?$_List_val@U?$_List_simple_types@U?$pair@$$CB_K_K@std@@@std@@@std@@@2@@Z
	?_Buy_nonzero@?$vector@HV?$allocator@H@std@@@std@@AEAAX_K@Z
	?_Buy_nonzero@?$vector@IV?$allocator@I@std@@@std@@AEAAX_K@Z
	?_Buy_nonzero@?$vector@MV?$allocator@M@std@@@std@@AEAAX_K@Z
	?_Buy_nonzero@?$vector@UWeight@SurfaceMeshHoleFilling@easy3d@@V?$allocator@UWeight@SurfaceMeshHoleFilling@easy3d@@@std@@@std@@AEAAX_K@Z
	?_Buy_raw@?$vector@DV?$allocator@D@std@@@std@@AEAAX_K@Z
	?_Buy_raw@?$vector@EV?$allocator@E@std@@@std@@AEAAX_K@Z
	?_Calculate_growth@?$basic_string@DU?$char_traits@D@std@@V?$allocator@D@2@@std@@AEBA_K_K@Z
	?_Change_array@?$vector@DV?$allocator@D@std@@@std@@AEAAXQEAD_K1@Z
	?_Change_array@?$vector@EV?$allocator@E@std@@@std@@AEAAXQEAE_K1@Z
	?_Change_array@?$vector@HV?$allocator@H@std@@@std@@AEAAXQEAH_K1@Z
	?_Change_array@?$vector@IV?$allocator@I@std@@@std@@AEAAXQEAI_K1@Z
	?_Change_array@?$vector@MV?$allocator@M@std@@@std@@AEAAXQEAM_K1@Z
	?_Change_array@?$vector@NV?$allocator@N@std@@@std@@AEAAXQEAN_K1@Z
	?_Change_array@?$vector@PEAVBasePropertyArray@easy3d@@V?$allocator@PEAVBasePropertyArray@easy3d@@@std@@@std@@AEAAXQEAPEAVBasePropertyArray@easy3d@@_K1@Z
	?_Change_array@?$vector@U?$BSplineElementCoefficients@$00@@V?$allocator@U?$BSplineElementCoefficients@$00@@@std@@@std@@AEAAXQEAU?$BSplineElementCoefficients@$00@@_K1@Z
	?_Change_array@?$vector@U?$BSplineElementCoefficients@$01@@V?$allocator@U?$BSplineElementCoefficients@$01@@@std@@@std@@AEAAXQEAU?$BSplineElementCoefficients@$01@@_K1@Z
	?_Change_array@?$vector@U?$Point3D@M@@V?$allocator@U?$Point3D@M@@@std@@@std@@AEAAXQEAU?$Point3D@M@@_K1@Z
	?_Change_array@?$vector@U?$ProjectiveData@U?$Point3D@M@@M@@V?$allocator@U?$ProjectiveData@U?$Point3D@M@@M@@@std@@@std@@AEAAXQEAU?$ProjectiveData@U?$Point3D@M@@M@@_K1@Z
	?_Change_array@?$vector@UFace@SurfaceMesh@easy3d@@V?$allocator@UFace@SurfaceMesh@easy3d@@@std@@@std@@AEAAXQEAUFace@SurfaceMesh@easy3d@@_K1@Z
	?_Change_array@?$vector@UHalfedge@SurfaceMesh@easy3d@@V?$allocator@UHalfedge@SurfaceMesh@easy3d@@@std@@@std@@AEAAXQEAUHalfedge@SurfaceMesh@easy3d@@_K1@Z
	?_Change_array@?$vector@UTriangle@TriangleMeshKdTree@easy3d@@V?$allocator@UTriangle@TriangleMeshKdTree@easy3d@@@std@@@std@@AEAAXQEAUTriangle@TriangleMeshKdTree@easy3d@@_K1@Z
	?_Change_array@?$vector@UTriple@easy3d@@V?$allocator@UTriple@easy3d@@@std@@@std@@AEAAXQEAUTriple@easy3d@@_K1@Z
	?_Change_array@?$vector@UVertex@PointCloud@easy3d@@V?$allocator@UVertex@PointCloud@easy3d@@@std@@@std@@AEAAXQEAUVertex@PointCloud@easy3d@@_K1@Z
	?_Change_array@?$vector@UVertex@SurfaceMesh@easy3d@@V?$allocator@UVertex@SurfaceMesh@easy3d@@@std@@@std@@AEAAXQEAUVertex@SurfaceMesh@easy3d@@_K1@Z
	?_Change_array@?$vector@U_IsoEdge@?$Octree@M@@V?$allocator@U_IsoEdge@?$Octree@M@@@std@@@std@@AEAAXQEAU_IsoEdge@?$Octree@M@@_K1@Z
	?_Change_array@?$vector@Ustored_vertex@config@?$adj_list_gen@V?$adjacency_list@UvecS@boost@@U12@UdirectedS@2@UMST_VertexProperty@internal@easy3d@@Uno_property@2@U72@UlistS@2@@boost@@UvecS@2@U32@UdirectedS@2@UMST_VertexProperty@internal@easy3d@@Uno_property@2@U82@UlistS@2@@detail@boost@@V?$allocator@Ustored_vertex@config@?$adj_list_gen@V?$adjacency_list@UvecS@boost@@U12@UdirectedS@2@UMST_VertexProperty@internal@easy3d@@Uno_property@2@U72@UlistS@2@@boost@@UvecS@2@U32@UdirectedS@2@UMST_VertexProperty@internal@easy3d@@Uno_property@2@U82@UlistS@2@@detail@boost@@@std@@@std@@AEAAXQEAUstored_vertex@config@?$adj_list_gen@V?$adjacency_list@UvecS@boost@@U12@UdirectedS@2@UMST_VertexProperty@internal@easy3d@@Uno_property@2@U72@UlistS@2@@boost@@UvecS@2@U32@UdirectedS@2@UMST_VertexProperty@internal@easy3d@@Uno_property@2@U82@UlistS@2@@detail@boost@@_K1@Z
	?_Change_array@?$vector@Ustored_vertex@config@?$adj_list_gen@V?$adjacency_list@UvecS@boost@@U12@UundirectedS@2@UVertexProperty@internal@easy3d@@UEdgeProperty@56@Uno_property@2@UlistS@2@@boost@@UvecS@2@U32@UundirectedS@2@UVertexProperty@internal@easy3d@@UEdgeProperty@67@Uno_property@2@UlistS@2@@detail@boost@@V?$allocator@Ustored_vertex@config@?$adj_list_gen@V?$adjacency_list@UvecS@boost@@U12@UundirectedS@2@UVertexProperty@internal@easy3d@@UEdgeProperty@56@Uno_property@2@UlistS@2@@boost@@UvecS@2@U32@UundirectedS@2@UVertexProperty@internal@easy3d@@UEdgeProperty@67@Uno_property@2@UlistS@2@@detail@boost@@@std@@@std@@AEAAXQEAUstored_vertex@config@?$adj_list_gen@V?$adjacency_list@UvecS@boost@@U12@UundirectedS@2@UVertexProperty@internal@easy3d@@UEdgeProperty@56@Uno_property@2@UlistS@2@@boost@@UvecS@2@U32@UundirectedS@2@UVertexProperty@internal@easy3d@@UEdgeProperty@67@Uno_property@2@UlistS@2@@detail@boost@@_K1@Z
	?_Change_array@?$vector@V?$GenericPolygon@M@easy3d@@V?$allocator@V?$GenericPolygon@M@easy3d@@@std@@@std@@AEAAXQEAV?$GenericPolygon@M@easy3d@@_K1@Z
	?_Change_array@?$vector@V?$PlyColorAndValueVertex@M@@V?$allocator@V?$PlyColorAndValueVertex@M@@@std@@@std@@AEAAXQEAV?$PlyColorAndValueVertex@M@@_K1@Z
	?_Change_array@?$vector@V?$Triplet@NH@Eigen@@V?$allocator@V?$Triplet@NH@Eigen@@@std@@@std@@AEAAXQEAV?$Triplet@NH@Eigen@@_K1@Z
	?_Change_array@?$vector@V?$Vec@$01H@easy3d@@V?$allocator@V?$Vec@$01H@easy3d@@@std@@@std@@AEAAXQEAV?$Vec@$01H@easy3d@@_K1@Z
	?_Change_array@?$vector@V?$Vec@$01M@easy3d@@V?$allocator@V?$Vec@$01M@easy3d@@@std@@@std@@AEAAXQEAV?$Vec@$01M@easy3d@@_K1@Z
	?_Change_array@?$vector@V?$Vec@$01N@easy3d@@V?$allocator@V?$Vec@$01N@easy3d@@@std@@@std@@AEAAXQEAV?$Vec@$01N@easy3d@@_K1@Z
	?_Change_array@?$vector@V?$Vec@$02M@easy3d@@V?$allocator@V?$Vec@$02M@easy3d@@@std@@@std@@AEAAXQEAV?$Vec@$02M@easy3d@@_K1@Z
	?_Change_array@?$vector@V?$Vec@$02N@easy3d@@V?$allocator@V?$Vec@$02N@easy3d@@@std@@@std@@AEAAXQEAV?$Vec@$02N@easy3d@@_K1@Z
	?_Change_array@?$vector@V?$vector@HV?$allocator@H@std@@@std@@V?$allocator@V?$vector@HV?$allocator@H@std@@@std@@@2@@std@@AEAAXQEAV?$vector@HV?$allocator@H@std@@@2@_K1@Z
	?_Change_array@?$vector@V?$vector@V?$Vec@$02M@easy3d@@V?$allocator@V?$Vec@$02M@easy3d@@@std@@@std@@V?$allocator@V?$vector@V?$Vec@$02M@easy3d@@V?$allocator@V?$Vec@$02M@easy3d@@@std@@@std@@@2@@std@@AEAAXQEAV?$vector@V?$Vec@$02M@easy3d@@V?$allocator@V?$Vec@$02M@easy3d@@@std@@@2@_K1@Z
	?_Change_array@?$vector@VNormalCone@easy3d@@V?$allocator@VNormalCone@easy3d@@@std@@@std@@AEAAXQEAVNormalCone@easy3d@@_K1@Z
	?_Change_array@?$vector@VQuadric@easy3d@@V?$allocator@VQuadric@easy3d@@@std@@@std@@AEAAXQEAVQuadric@easy3d@@_K1@Z
	?_Change_array@?$vector@VTriangleIndex@@V?$allocator@VTriangleIndex@@@std@@@std@@AEAAXQEAVTriangleIndex@@_K1@Z
	?_Change_array@?$vector@_KV?$allocator@_K@std@@@std@@AEAAXQEA_K_K1@Z
	?_Clear_and_reserve_geometric@?$vector@HV?$allocator@H@std@@@std@@AEAAX_K@Z
	?_Clear_and_reserve_geometric@?$vector@U?$BSplineElementCoefficients@$00@@V?$allocator@U?$BSplineElementCoefficients@$00@@@std@@@std@@AEAAX_K@Z
	?_Clear_and_reserve_geometric@?$vector@U?$BSplineElementCoefficients@$01@@V?$allocator@U?$BSplineElementCoefficients@$01@@@std@@@std@@AEAAX_K@Z
	?_Clear_and_reserve_geometric@?$vector@U?$BSplineElementCoefficients@$0A@@@V?$allocator@U?$BSplineElementCoefficients@$0A@@@@std@@@std@@AEAAX_K@Z
	?_Copy@?$_Func_impl_no_alloc@P6AXV?$edge_desc_impl@Udirected_tag@boost@@_K@detail@boost@@AEAVMST_Graph@internal@easy3d@@@ZXV123@AEAV456@@std@@EEBAPEAV?$_Func_base@XV?$edge_desc_impl@Udirected_tag@boost@@_K@detail@boost@@AEAVMST_Graph@internal@easy3d@@@2@PEAX@Z
	?_Copy@?$_Func_impl_no_alloc@V<lambda_17731faf86688589c88379bfdd83a964>@@PEAV?$OctNode@VTreeNodeData@@@@PEAV2@AEAHPEAH@std@@EEBAPEAV?$_Func_base@PEAV?$OctNode@VTreeNodeData@@@@PEAV1@AEAHPEAH@2@PEAX@Z
	?_Copy@?$_Func_impl_no_alloc@V<lambda_cbc5b4675dcfc3b66066f18034516e50>@@U?$ProjectiveData@U?$OrientedPoint3D@M@@M@@PEAV?$OctNode@VTreeNodeData@@@@@std@@EEBAPEAV?$_Func_base@U?$ProjectiveData@U?$OrientedPoint3D@M@@M@@PEAV?$OctNode@VTreeNodeData@@@@@2@PEAX@Z
	?_Delete_this@?$_Func_impl_no_alloc@P6AXV?$edge_desc_impl@Udirected_tag@boost@@_K@detail@boost@@AEAVMST_Graph@internal@easy3d@@@ZXV123@AEAV456@@std@@EEAAX_N@Z
	?_Delete_this@?$_Func_impl_no_alloc@V<lambda_17731faf86688589c88379bfdd83a964>@@PEAV?$OctNode@VTreeNodeData@@@@PEAV2@AEAHPEAH@std@@EEAAX_N@Z
	?_Delete_this@?$_Func_impl_no_alloc@V<lambda_cbc5b4675dcfc3b66066f18034516e50>@@U?$ProjectiveData@U?$OrientedPoint3D@M@@M@@PEAV?$OctNode@VTreeNodeData@@@@@std@@EEAAX_N@Z
	?_Do_call@?$_Func_impl_no_alloc@P6AXV?$edge_desc_impl@Udirected_tag@boost@@_K@detail@boost@@AEAVMST_Graph@internal@easy3d@@@ZXV123@AEAV456@@std@@EEAAX$$QEAV?$edge_desc_impl@Udirected_tag@boost@@_K@detail@boost@@AEAVMST_Graph@internal@easy3d@@@Z
	?_Do_call@?$_Func_impl_no_alloc@V<lambda_17731faf86688589c88379bfdd83a964>@@PEAV?$OctNode@VTreeNodeData@@@@PEAV2@AEAHPEAH@std@@EEAAPEAV?$OctNode@VTreeNodeData@@@@$$QEAPEAV3@AEAH$$QEAPEAH@Z
	?_Do_call@?$_Func_impl_no_alloc@V<lambda_cbc5b4675dcfc3b66066f18034516e50>@@U?$ProjectiveData@U?$OrientedPoint3D@M@@M@@PEAV?$OctNode@VTreeNodeData@@@@@std@@EEAA?AU?$ProjectiveData@U?$OrientedPoint3D@M@@M@@$$QEAPEAV?$OctNode@VTreeNodeData@@@@@Z
	?_Erase@?$_Tree@V?$_Tset_traits@UHalfedge@SurfaceMesh@easy3d@@U?$less@UHalfedge@SurfaceMesh@easy3d@@@std@@V?$allocator@UHalfedge@SurfaceMesh@easy3d@@@5@$0A@@std@@@std@@AEAA_KU?$pair@PEAU?$_Tree_node@UHalfedge@SurfaceMesh@easy3d@@PEAX@std@@PEAU12@@2@@Z
	?_Erase@?$_Tree@V?$_Tset_traits@UVertex@SurfaceMesh@easy3d@@VVertexCmp@SurfaceMeshGeodesic@3@V?$allocator@UVertex@SurfaceMesh@easy3d@@@std@@$0A@@std@@@std@@AEAA_KU?$pair@PEAU?$_Tree_node@UVertex@SurfaceMesh@easy3d@@PEAX@std@@PEAU12@@2@@Z
	?_Erase@?$_Tree@V?$_Tset_traits@W4PrimType@PrimitivesRansac@easy3d@@U?$less@W4PrimType@PrimitivesRansac@easy3d@@@std@@V?$allocator@W4PrimType@PrimitivesRansac@easy3d@@@5@$0A@@std@@@std@@AEAA_KU?$pair@PEAU?$_Tree_node@W4PrimType@PrimitivesRansac@easy3d@@PEAX@std@@PEAU12@@2@@Z
	?_Erase_unchecked@?$_Tree@V?$_Tset_traits@UVertex@SurfaceMesh@easy3d@@VVertexCmp@SurfaceMeshGeodesic@3@V?$allocator@UVertex@SurfaceMesh@easy3d@@@std@@$0A@@std@@@std@@AEAAPEAU?$_Tree_node@UVertex@SurfaceMesh@easy3d@@PEAX@2@V?$_Tree_unchecked_const_iterator@V?$_Tree_val@U?$_Tree_simple_types@UVertex@SurfaceMesh@easy3d@@@std@@@std@@U_Iterator_base0@2@@2@@Z
	?_Extract@?$_Tree_val@U?$_Tree_simple_types@UHalfedge@SurfaceMesh@easy3d@@@std@@@std@@QEAAPEAU?$_Tree_node@UHalfedge@SurfaceMesh@easy3d@@PEAX@2@V?$_Tree_unchecked_const_iterator@V?$_Tree_val@U?$_Tree_simple_types@UHalfedge@SurfaceMesh@easy3d@@@std@@@std@@U_Iterator_base0@2@@2@@Z
	?_Extract@?$_Tree_val@U?$_Tree_simple_types@UVertex@SurfaceMesh@easy3d@@@std@@@std@@QEAAPEAU?$_Tree_node@UVertex@SurfaceMesh@easy3d@@PEAX@2@V?$_Tree_unchecked_const_iterator@V?$_Tree_val@U?$_Tree_simple_types@UVertex@SurfaceMesh@easy3d@@@std@@@std@@U_Iterator_base0@2@@2@@Z
	?_Extract@?$_Tree_val@U?$_Tree_simple_types@W4PrimType@PrimitivesRansac@easy3d@@@std@@@std@@QEAAPEAU?$_Tree_node@W4PrimType@PrimitivesRansac@easy3d@@PEAX@2@V?$_Tree_unchecked_const_iterator@V?$_Tree_val@U?$_Tree_simple_types@W4PrimType@PrimitivesRansac@easy3d@@@std@@@std@@U_Iterator_base0@2@@2@@Z
	?_Forced_rehash@?$_Hash@V?$_Umap_traits@HHV?$_Uhash_compare@HU?$hash@H@std@@U?$equal_to@H@2@@std@@V?$allocator@U?$pair@$$CBHH@std@@@2@$0A@@std@@@std@@IEAAX_K@Z
	?_Forced_rehash@?$_Hash@V?$_Umap_traits@_JHV?$_Uhash_compare@_JU?$hash@_J@std@@U?$equal_to@_J@2@@std@@V?$allocator@U?$pair@$$CB_JH@std@@@2@$0A@@std@@@std@@IEAAX_K@Z
	?_Forced_rehash@?$_Hash@V?$_Umap_traits@_JU?$pair@HV?$PlyColorAndValueVertex@M@@@std@@V?$_Uhash_compare@_JU?$hash@_J@std@@U?$equal_to@_J@2@@2@V?$allocator@U?$pair@$$CB_JU?$pair@HV?$PlyColorAndValueVertex@M@@@std@@@std@@@2@$0A@@std@@@std@@IEAAX_K@Z
	?_Forced_rehash@?$_Hash@V?$_Umap_traits@_JV?$vector@U_IsoEdge@?$Octree@M@@V?$allocator@U_IsoEdge@?$Octree@M@@@std@@@std@@V?$_Uhash_compare@_JU?$hash@_J@std@@U?$equal_to@_J@2@@2@V?$allocator@U?$pair@$$CB_JV?$vector@U_IsoEdge@?$Octree@M@@V?$allocator@U_IsoEdge@?$Octree@M@@@std@@@std@@@std@@@2@$0A@@std@@@std@@IEAAX_K@Z
	?_Forced_rehash@?$_Hash@V?$_Umap_traits@_J_JV?$_Uhash_compare@_JU?$hash@_J@std@@U?$equal_to@_J@2@@std@@V?$allocator@U?$pair@$$CB_J_J@std@@@2@$0A@@std@@@std@@IEAAX_K@Z
	?_Forced_rehash@?$_Hash@V?$_Umap_traits@_KUVertex@SurfaceMesh@easy3d@@V?$_Uhash_compare@_KU?$hash@_K@std@@U?$equal_to@_K@2@@std@@V?$allocator@U?$pair@$$CB_KUVertex@SurfaceMesh@easy3d@@@std@@@5@$0A@@std@@@std@@IEAAX_K@Z
	?_Forced_rehash@?$_Hash@V?$_Umap_traits@_K_KV?$_Uhash_compare@_KU?$hash@_K@std@@U?$equal_to@_K@2@@std@@V?$allocator@U?$pair@$$CB_K_K@std@@@2@$0A@@std@@@std@@IEAAX_K@Z
	?_Get@?$_Func_impl_no_alloc@P6AXV?$edge_desc_impl@Udirected_tag@boost@@_K@detail@boost@@AEAVMST_Graph@internal@easy3d@@@ZXV123@AEAV456@@std@@EEBAPEBXXZ
	?_Get@?$_Func_impl_no_alloc@V<lambda_17731faf86688589c88379bfdd83a964>@@PEAV?$OctNode@VTreeNodeData@@@@PEAV2@AEAHPEAH@std@@EEBAPEBXXZ
	?_Get@?$_Func_impl_no_alloc@V<lambda_cbc5b4675dcfc3b66066f18034516e50>@@U?$ProjectiveData@U?$OrientedPoint3D@M@@M@@PEAV?$OctNode@VTreeNodeData@@@@@std@@EEBAPEBXXZ
	?_Growmap@?$deque@UFace@SurfaceMesh@easy3d@@V?$allocator@UFace@SurfaceMesh@easy3d@@@std@@@std@@AEAAX_K@Z
	?_Growmap@?$deque@UVertex@SurfaceMesh@easy3d@@V?$allocator@UVertex@SurfaceMesh@easy3d@@@std@@@std@@AEAAX_K@Z
	?_Growmap@?$deque@_KV?$allocator@_K@std@@@std@@AEAAX_K@Z
	?_InBounds@?$Octree@M@@KA_NU?$Point3D@M@@@Z
	?_Insert_n@?$vector@_NV?$allocator@_N@std@@@std@@QEAA?AV?$_Vb_iterator@U?$_Wrap_alloc@V?$allocator@I@std@@@std@@@2@V?$_Vb_const_iterator@U?$_Wrap_alloc@V?$allocator@I@std@@@std@@@2@_KAEB_N@Z
	?_Insert_node@?$_Tree_val@U?$_Tree_simple_types@U?$pair@$$CBUHalfedge@SurfaceMesh@easy3d@@UVirtualEdge@SurfaceMeshGeodesic@3@@std@@@std@@@std@@QEAAPEAU?$_Tree_node@U?$pair@$$CBUHalfedge@SurfaceMesh@easy3d@@UVirtualEdge@SurfaceMeshGeodesic@3@@std@@PEAX@2@U?$_Tree_id@PEAU?$_Tree_node@U?$pair@$$CBUHalfedge@SurfaceMesh@easy3d@@UVirtualEdge@SurfaceMeshGeodesic@3@@std@@PEAX@std@@@2@QEAU32@@Z
	?_Insert_node@?$_Tree_val@U?$_Tree_simple_types@U?$pair@$$CBUVertex@SurfaceMesh@easy3d@@N@std@@@std@@@std@@QEAAPEAU?$_Tree_node@U?$pair@$$CBUVertex@SurfaceMesh@easy3d@@N@std@@PEAX@2@U?$_Tree_id@PEAU?$_Tree_node@U?$pair@$$CBUVertex@SurfaceMesh@easy3d@@N@std@@PEAX@std@@@2@QEAU32@@Z
	?_Insert_node@?$_Tree_val@U?$_Tree_simple_types@UHalfedge@SurfaceMesh@easy3d@@@std@@@std@@QEAAPEAU?$_Tree_node@UHalfedge@SurfaceMesh@easy3d@@PEAX@2@U?$_Tree_id@PEAU?$_Tree_node@UHalfedge@SurfaceMesh@easy3d@@PEAX@std@@@2@QEAU32@@Z
	?_Insert_node@?$_Tree_val@U?$_Tree_simple_types@UPointPair@internal@easy3d@@@std@@@std@@QEAAPEAU?$_Tree_node@UPointPair@internal@easy3d@@PEAX@2@U?$_Tree_id@PEAU?$_Tree_node@UPointPair@internal@easy3d@@PEAX@std@@@2@QEAU32@@Z
	?_Insert_node@?$_Tree_val@U?$_Tree_simple_types@UVertex@SurfaceMesh@easy3d@@@std@@@std@@QEAAPEAU?$_Tree_node@UVertex@SurfaceMesh@easy3d@@PEAX@2@U?$_Tree_id@PEAU?$_Tree_node@UVertex@SurfaceMesh@easy3d@@PEAX@std@@@2@QEAU32@@Z
	?_Insert_node@?$_Tree_val@U?$_Tree_simple_types@W4PrimType@PrimitivesRansac@easy3d@@@std@@@std@@QEAAPEAU?$_Tree_node@W4PrimType@PrimitivesRansac@easy3d@@PEAX@2@U?$_Tree_id@PEAU?$_Tree_node@W4PrimType@PrimitivesRansac@easy3d@@PEAX@std@@@2@QEAU32@@Z
	?_Insert_x@?$vector@_NV?$allocator@_N@std@@@std@@QEAA_KV?$_Vb_const_iterator@U?$_Wrap_alloc@V?$allocator@I@std@@@std@@@2@_K@Z
	?_Lrotate@?$_Tree_val@U?$_Tree_simple_types@UHalfedge@SurfaceMesh@easy3d@@@std@@@std@@QEAAXPEAU?$_Tree_node@UHalfedge@SurfaceMesh@easy3d@@PEAX@2@@Z
	?_Lrotate@?$_Tree_val@U?$_Tree_simple_types@UVertex@SurfaceMesh@easy3d@@@std@@@std@@QEAAXPEAU?$_Tree_node@UVertex@SurfaceMesh@easy3d@@PEAX@2@@Z
	?_Lrotate@?$_Tree_val@U?$_Tree_simple_types@W4PrimType@PrimitivesRansac@easy3d@@@std@@@std@@QEAAXPEAU?$_Tree_node@W4PrimType@PrimitivesRansac@easy3d@@PEAX@2@@Z
	?_Maklocwcs@std@@YAPEA_WPEB_W@Z
	?_Move@?$_Func_impl_no_alloc@P6AXV?$edge_desc_impl@Udirected_tag@boost@@_K@detail@boost@@AEAVMST_Graph@internal@easy3d@@@ZXV123@AEAV456@@std@@EEAAPEAV?$_Func_base@XV?$edge_desc_impl@Udirected_tag@boost@@_K@detail@boost@@AEAVMST_Graph@internal@easy3d@@@2@PEAX@Z
	?_Move@?$_Func_impl_no_alloc@V<lambda_17731faf86688589c88379bfdd83a964>@@PEAV?$OctNode@VTreeNodeData@@@@PEAV2@AEAHPEAH@std@@EEAAPEAV?$_Func_base@PEAV?$OctNode@VTreeNodeData@@@@PEAV1@AEAHPEAH@2@PEAX@Z
	?_Move@?$_Func_impl_no_alloc@V<lambda_cbc5b4675dcfc3b66066f18034516e50>@@U?$ProjectiveData@U?$OrientedPoint3D@M@@M@@PEAV?$OctNode@VTreeNodeData@@@@@std@@EEAAPEAV?$_Func_base@U?$ProjectiveData@U?$OrientedPoint3D@M@@M@@PEAV?$OctNode@VTreeNodeData@@@@@2@PEAX@Z
	?_NodeInitializer@?$Octree@M@@CAXAEAV?$OctNode@VTreeNodeData@@@@@Z
	?_Reallocate_exactly@?$vector@DV?$allocator@D@std@@@std@@AEAAX_K@Z
	?_Reallocate_exactly@?$vector@EV?$allocator@E@std@@@std@@AEAAX_K@Z
	?_Reallocate_exactly@?$vector@HV?$allocator@H@std@@@std@@AEAAX_K@Z
	?_Reallocate_exactly@?$vector@IV?$allocator@I@std@@@std@@AEAAX_K@Z
	?_Reallocate_exactly@?$vector@MV?$allocator@M@std@@@std@@AEAAX_K@Z
	?_Reallocate_exactly@?$vector@NV?$allocator@N@std@@@std@@AEAAX_K@Z
	?_Reallocate_exactly@?$vector@UFace@SurfaceMesh@easy3d@@V?$allocator@UFace@SurfaceMesh@easy3d@@@std@@@std@@AEAAX_K@Z
	?_Reallocate_exactly@?$vector@UHalfedge@SurfaceMesh@easy3d@@V?$allocator@UHalfedge@SurfaceMesh@easy3d@@@std@@@std@@AEAAX_K@Z
	?_Reallocate_exactly@?$vector@UTriangle@TriangleMeshKdTree@easy3d@@V?$allocator@UTriangle@TriangleMeshKdTree@easy3d@@@std@@@std@@AEAAX_K@Z
	?_Reallocate_exactly@?$vector@UTriple@easy3d@@V?$allocator@UTriple@easy3d@@@std@@@std@@AEAAX_K@Z
	?_Reallocate_exactly@?$vector@UVertex@SurfaceMesh@easy3d@@V?$allocator@UVertex@SurfaceMesh@easy3d@@@std@@@std@@AEAAX_K@Z
	?_Reallocate_exactly@?$vector@V?$Vec@$01H@easy3d@@V?$allocator@V?$Vec@$01H@easy3d@@@std@@@std@@AEAAX_K@Z
	?_Reallocate_exactly@?$vector@V?$Vec@$01M@easy3d@@V?$allocator@V?$Vec@$01M@easy3d@@@std@@@std@@AEAAX_K@Z
	?_Reallocate_exactly@?$vector@V?$Vec@$01N@easy3d@@V?$allocator@V?$Vec@$01N@easy3d@@@std@@@std@@AEAAX_K@Z
	?_Reallocate_exactly@?$vector@V?$Vec@$02M@easy3d@@V?$allocator@V?$Vec@$02M@easy3d@@@std@@@std@@AEAAX_K@Z
	?_Reallocate_exactly@?$vector@V?$Vec@$02N@easy3d@@V?$allocator@V?$Vec@$02N@easy3d@@@std@@@std@@AEAAX_K@Z
	?_Reallocate_exactly@?$vector@V?$vector@V?$Vec@$02M@easy3d@@V?$allocator@V?$Vec@$02M@easy3d@@@std@@@std@@V?$allocator@V?$vector@V?$Vec@$02M@easy3d@@V?$allocator@V?$Vec@$02M@easy3d@@@std@@@std@@@2@@std@@AEAAX_K@Z
	?_Reallocate_exactly@?$vector@VNormalCone@easy3d@@V?$allocator@VNormalCone@easy3d@@@std@@@std@@AEAAX_K@Z
	?_Reallocate_exactly@?$vector@VQuadric@easy3d@@V?$allocator@VQuadric@easy3d@@@std@@@std@@AEAAX_K@Z
	?_Reallocate_exactly@?$vector@_KV?$allocator@_K@std@@@std@@AEAAX_K@Z
	?_ReflectLeft@?$BSplineElements@$00@@SAHHH@Z
	?_ReflectLeft@?$BSplineElements@$01@@SAHHH@Z
	?_ReflectRight@?$BSplineElements@$00@@SAHHH@Z
	?_ReflectRight@?$BSplineElements@$01@@SAHHH@Z
	?_Rehash_for_1@?$_Hash@V?$_Umap_traits@_JHV?$_Uhash_compare@_JU?$hash@_J@std@@U?$equal_to@_J@2@@std@@V?$allocator@U?$pair@$$CB_JH@std@@@2@$0A@@std@@@std@@IEAAXXZ
	?_Rehash_for_1@?$_Hash@V?$_Umap_traits@_KUVertex@SurfaceMesh@easy3d@@V?$_Uhash_compare@_KU?$hash@_K@std@@U?$equal_to@_K@2@@std@@V?$allocator@U?$pair@$$CB_KUVertex@SurfaceMesh@easy3d@@@std@@@5@$0A@@std@@@std@@IEAAXXZ
	?_Rehash_for_1@?$_Hash@V?$_Umap_traits@_K_KV?$_Uhash_compare@_KU?$hash@_K@std@@U?$equal_to@_K@2@@std@@V?$allocator@U?$pair@$$CB_K_K@std@@@2@$0A@@std@@@std@@IEAAXXZ
	?_RotateLeft@?$BSplineElements@$00@@SAHHH@Z
	?_RotateLeft@?$BSplineElements@$01@@SAHHH@Z
	?_RotateRight@?$BSplineElements@$00@@SAHHH@Z
	?_RotateRight@?$BSplineElements@$01@@SAHHH@Z
	?_Rrotate@?$_Tree_val@U?$_Tree_simple_types@UHalfedge@SurfaceMesh@easy3d@@@std@@@std@@QEAAXPEAU?$_Tree_node@UHalfedge@SurfaceMesh@easy3d@@PEAX@2@@Z
	?_Rrotate@?$_Tree_val@U?$_Tree_simple_types@UVertex@SurfaceMesh@easy3d@@@std@@@std@@QEAAXPEAU?$_Tree_node@UVertex@SurfaceMesh@easy3d@@PEAX@2@@Z
	?_Rrotate@?$_Tree_val@U?$_Tree_simple_types@W4PrimType@PrimitivesRansac@easy3d@@@std@@@std@@QEAAXPEAU?$_Tree_node@W4PrimType@PrimitivesRansac@easy3d@@PEAX@2@@Z
	?_Target_type@?$_Func_impl_no_alloc@P6AXV?$edge_desc_impl@Udirected_tag@boost@@_K@detail@boost@@AEAVMST_Graph@internal@easy3d@@@ZXV123@AEAV456@@std@@EEBAAEBVtype_info@@XZ
	?_Target_type@?$_Func_impl_no_alloc@V<lambda_17731faf86688589c88379bfdd83a964>@@PEAV?$OctNode@VTreeNodeData@@@@PEAV2@AEAHPEAH@std@@EEBAAEBVtype_info@@XZ
	?_Target_type@?$_Func_impl_no_alloc@V<lambda_cbc5b4675dcfc3b66066f18034516e50>@@U?$ProjectiveData@U?$OrientedPoint3D@M@@M@@PEAV?$OctNode@VTreeNodeData@@@@@std@@EEBAAEBVtype_info@@XZ
	?_Throw_bad_array_new_length@std@@YAXXZ
	?_Throw_tree_length_error@std@@YAXXZ
	?_Tidy@?$vector@U?$ConstPointSupportKey@$00@@V?$allocator@U?$ConstPointSupportKey@$00@@@std@@@std@@AEAAXXZ
	?_Tidy@?$vector@U?$ConstPointSupportKey@$01@@V?$allocator@U?$ConstPointSupportKey@$01@@@std@@@std@@AEAAXXZ
	?_Tidy@?$vector@U?$Point3D@M@@V?$allocator@U?$Point3D@M@@@std@@@std@@AEAAXXZ
	?_Tidy@?$vector@U?$PointSupportKey@$01@@V?$allocator@U?$PointSupportKey@$01@@@std@@@std@@AEAAXXZ
	?_Tidy@?$vector@U?$SinglePointData@M$0A@@@V?$allocator@U?$SinglePointData@M$0A@@@@std@@@std@@AEAAXXZ
	?_Tidy@?$vector@U?$_Evaluator@$01$01@?$Octree@M@@V?$allocator@U?$_Evaluator@$01$01@?$Octree@M@@@std@@@std@@AEAAXXZ
	?_Tidy@?$vector@U?$_SlabValues@V?$PlyColorAndValueVertex@M@@@?$Octree@M@@V?$allocator@U?$_SlabValues@V?$PlyColorAndValueVertex@M@@@?$Octree@M@@@std@@@std@@AEAAXXZ
	?_Tidy@?$vector@U?$pair@HV?$PlyColorAndValueVertex@M@@@std@@V?$allocator@U?$pair@HV?$PlyColorAndValueVertex@M@@@std@@@2@@std@@AEAAXXZ
	?_Tidy@?$vector@UTriangle@TriangleMeshKdTree@easy3d@@V?$allocator@UTriangle@TriangleMeshKdTree@easy3d@@@std@@@std@@AEAAXXZ
	?_Tidy@?$vector@UVertex@SurfaceMesh@easy3d@@V?$allocator@UVertex@SurfaceMesh@easy3d@@@std@@@std@@AEAAXXZ
	?_Tidy@?$vector@V?$ConstNeighborKey@$00$00@?$OctNode@VTreeNodeData@@@@V?$allocator@V?$ConstNeighborKey@$00$00@?$OctNode@VTreeNodeData@@@@@std@@@std@@AEAAXXZ
	?_Tidy@?$vector@V?$GenericPolygon@M@easy3d@@V?$allocator@V?$GenericPolygon@M@easy3d@@@std@@@std@@AEAAXXZ
	?_Tidy@?$vector@V?$NeighborKey@$00$00@?$OctNode@VTreeNodeData@@@@V?$allocator@V?$NeighborKey@$00$00@?$OctNode@VTreeNodeData@@@@@std@@@std@@AEAAXXZ
	?_Tidy@?$vector@V?$NeighborKey@$00$01@?$OctNode@VTreeNodeData@@@@V?$allocator@V?$NeighborKey@$00$01@?$OctNode@VTreeNodeData@@@@@std@@@std@@AEAAXXZ
	?_Tidy@?$vector@V?$PlyColorAndValueVertex@M@@V?$allocator@V?$PlyColorAndValueVertex@M@@@std@@@std@@AEAAXXZ
	?_Tidy@?$vector@V?$SparseMatrix@M@@V?$allocator@V?$SparseMatrix@M@@@std@@@std@@AEAAXXZ
	?_Tidy@?$vector@V?$Vec@$02M@easy3d@@V?$allocator@V?$Vec@$02M@easy3d@@@std@@@std@@AEAAXXZ
	?_Tidy@?$vector@V?$Vec@$02N@easy3d@@V?$allocator@V?$Vec@$02N@easy3d@@@std@@@std@@AEAAXXZ
	?_Tidy@?$vector@V?$set@UHalfedge@SurfaceMesh@easy3d@@U?$less@UHalfedge@SurfaceMesh@easy3d@@@std@@V?$allocator@UHalfedge@SurfaceMesh@easy3d@@@5@@std@@V?$allocator@V?$set@UHalfedge@SurfaceMesh@easy3d@@U?$less@UHalfedge@SurfaceMesh@easy3d@@@std@@V?$allocator@UHalfedge@SurfaceMesh@easy3d@@@5@@std@@@2@@std@@AEAAXXZ
	?_Tidy@?$vector@V?$vector@HV?$allocator@H@std@@@std@@V?$allocator@V?$vector@HV?$allocator@H@std@@@std@@@2@@std@@AEAAXXZ
	?_Tidy@?$vector@V?$vector@UVertex@SurfaceMesh@easy3d@@V?$allocator@UVertex@SurfaceMesh@easy3d@@@std@@@std@@V?$allocator@V?$vector@UVertex@SurfaceMesh@easy3d@@V?$allocator@UVertex@SurfaceMesh@easy3d@@@std@@@std@@@2@@std@@AEAAXXZ
	?_Tidy@?$vector@V?$vector@U_IsoEdge@?$Octree@M@@V?$allocator@U_IsoEdge@?$Octree@M@@@std@@@std@@V?$allocator@V?$vector@U_IsoEdge@?$Octree@M@@V?$allocator@U_IsoEdge@?$Octree@M@@@std@@@std@@@2@@std@@AEAAXXZ
	?_Tidy@?$vector@V?$vector@V?$Vec@$02M@easy3d@@V?$allocator@V?$Vec@$02M@easy3d@@@std@@@std@@V?$allocator@V?$vector@V?$Vec@$02M@easy3d@@V?$allocator@V?$Vec@$02M@easy3d@@@std@@@std@@@2@@std@@AEAAXXZ
	?_Tidy@?$vector@V?$vector@V?$vector@HV?$allocator@H@std@@@std@@V?$allocator@V?$vector@HV?$allocator@H@std@@@std@@@2@@std@@V?$allocator@V?$vector@V?$vector@HV?$allocator@H@std@@@std@@V?$allocator@V?$vector@HV?$allocator@H@std@@@std@@@2@@std@@@2@@std@@AEAAXXZ
	?_Tidy@?$vector@VQuadric@easy3d@@V?$allocator@VQuadric@easy3d@@@std@@@std@@AEAAXXZ
	?_Tidy@?$vector@VRiemannianGraph@internal@easy3d@@V?$allocator@VRiemannianGraph@internal@easy3d@@@std@@@std@@AEAAXXZ
	?_Tidy_deallocate@?$basic_string@_WU?$char_traits@_W@std@@V?$allocator@_W@2@@std@@AEAAXXZ
	?_Trim@?$vector@_NV?$allocator@_N@std@@@std@@QEAAX_K@Z
	?_Unchecked_erase@?$_Hash@V?$_Umap_traits@_JU?$pair@HV?$PlyColorAndValueVertex@M@@@std@@V?$_Uhash_compare@_JU?$hash@_J@std@@U?$equal_to@_J@2@@2@V?$allocator@U?$pair@$$CB_JU?$pair@HV?$PlyColorAndValueVertex@M@@@std@@@std@@@2@$0A@@std@@@std@@AEAAPEAU?$_List_node@U?$pair@$$CB_JU?$pair@HV?$PlyColorAndValueVertex@M@@@std@@@std@@PEAX@2@PEAU32@QEAU32@@Z
	?_Unchecked_erase@?$_Hash@V?$_Umap_traits@_JV?$vector@U_IsoEdge@?$Octree@M@@V?$allocator@U_IsoEdge@?$Octree@M@@@std@@@std@@V?$_Uhash_compare@_JU?$hash@_J@std@@U?$equal_to@_J@2@@2@V?$allocator@U?$pair@$$CB_JV?$vector@U_IsoEdge@?$Octree@M@@V?$allocator@U_IsoEdge@?$Octree@M@@@std@@@std@@@std@@@2@$0A@@std@@@std@@AEAAPEAU?$_List_node@U?$pair@$$CB_JV?$vector@U_IsoEdge@?$Octree@M@@V?$allocator@U_IsoEdge@?$Octree@M@@@std@@@std@@@std@@PEAX@2@PEAU32@QEAU32@@Z
	?_Unchecked_erase@?$_Hash@V?$_Umap_traits@_J_JV?$_Uhash_compare@_JU?$hash@_J@std@@U?$equal_to@_J@2@@std@@V?$allocator@U?$pair@$$CB_J_J@std@@@2@$0A@@std@@@std@@AEAAPEAU?$_List_node@U?$pair@$$CB_J_J@std@@PEAX@2@PEAU32@QEAU32@@Z
	?_Unchecked_erase@?$_Hash@V?$_Umap_traits@_K_KV?$_Uhash_compare@_KU?$hash@_K@std@@U?$equal_to@_K@2@@std@@V?$allocator@U?$pair@$$CB_K_K@std@@@2@$0A@@std@@@std@@AEAAPEAU?$_List_node@U?$pair@$$CB_K_K@std@@PEAX@2@PEAU32@QEAU32@@Z
	?_Xlen@?$deque@UFace@SurfaceMesh@easy3d@@V?$allocator@UFace@SurfaceMesh@easy3d@@@std@@@std@@AEBAXXZ
	?_Xlen@?$deque@UVertex@SurfaceMesh@easy3d@@V?$allocator@UVertex@SurfaceMesh@easy3d@@@std@@@std@@AEBAXXZ
	?_Xlen@?$deque@_KV?$allocator@_K@std@@@std@@AEBAXXZ
	?_Xlen@?$vector@_NV?$allocator@_N@std@@@std@@QEBAXXZ
	?_Xlen_string@std@@YAXXZ
	?_Xlength@?$vector@DV?$allocator@D@std@@@std@@CAXXZ
	?_Xlength@?$vector@EV?$allocator@E@std@@@std@@CAXXZ
	?_Xlength@?$vector@HV?$allocator@H@std@@@std@@CAXXZ
	?_Xlength@?$vector@IV?$allocator@I@std@@@std@@CAXXZ
	?_Xlength@?$vector@MV?$allocator@M@std@@@std@@CAXXZ
	?_Xlength@?$vector@NV?$allocator@N@std@@@std@@CAXXZ
	?_Xlength@?$vector@PEAUVertex@Tessellator@easy3d@@V?$allocator@PEAUVertex@Tessellator@easy3d@@@std@@@std@@CAXXZ
	?_Xlength@?$vector@PEAV?$OctNode@VTreeNodeData@@@@V?$allocator@PEAV?$OctNode@VTreeNodeData@@@@@std@@@std@@CAXXZ
	?_Xlength@?$vector@PEAVBasePropertyArray@easy3d@@V?$allocator@PEAVBasePropertyArray@easy3d@@@std@@@std@@CAXXZ
	?_Xlength@?$vector@U?$BSplineElementCoefficients@$00@@V?$allocator@U?$BSplineElementCoefficients@$00@@@std@@@std@@CAXXZ
	?_Xlength@?$vector@U?$BSplineElementCoefficients@$01@@V?$allocator@U?$BSplineElementCoefficients@$01@@@std@@@std@@CAXXZ
	?_Xlength@?$vector@U?$BSplineElementCoefficients@$0A@@@V?$allocator@U?$BSplineElementCoefficients@$0A@@@@std@@@std@@CAXXZ
	?_Xlength@?$vector@U?$ConstPointSupportKey@$00@@V?$allocator@U?$ConstPointSupportKey@$00@@@std@@@std@@CAXXZ
	?_Xlength@?$vector@U?$ConstPointSupportKey@$01@@V?$allocator@U?$ConstPointSupportKey@$01@@@std@@@std@@CAXXZ
	?_Xlength@?$vector@U?$Point3D@M@@V?$allocator@U?$Point3D@M@@@std@@@std@@CAXXZ
	?_Xlength@?$vector@U?$PointSupportKey@$01@@V?$allocator@U?$PointSupportKey@$01@@@std@@@std@@CAXXZ
	?_Xlength@?$vector@U?$ProjectiveData@U?$Point3D@M@@M@@V?$allocator@U?$ProjectiveData@U?$Point3D@M@@M@@@std@@@std@@CAXXZ
	?_Xlength@?$vector@U?$SinglePointData@M$0A@@@V?$allocator@U?$SinglePointData@M$0A@@@@std@@@std@@CAXXZ
	?_Xlength@?$vector@U?$_Evaluator@$01$01@?$Octree@M@@V?$allocator@U?$_Evaluator@$01$01@?$Octree@M@@@std@@@std@@CAXXZ
	?_Xlength@?$vector@U?$_SlabValues@V?$PlyColorAndValueVertex@M@@@?$Octree@M@@V?$allocator@U?$_SlabValues@V?$PlyColorAndValueVertex@M@@@?$Octree@M@@@std@@@std@@CAXXZ
	?_Xlength@?$vector@U?$pair@HV?$PlyColorAndValueVertex@M@@@std@@V?$allocator@U?$pair@HV?$PlyColorAndValueVertex@M@@@std@@@2@@std@@CAXXZ
	?_Xlength@?$vector@U?$pair@UFace@SurfaceMesh@easy3d@@U123@@std@@V?$allocator@U?$pair@UFace@SurfaceMesh@easy3d@@U123@@std@@@2@@std@@CAXXZ
	?_Xlength@?$vector@U?$pair@UHalfedge@SurfaceMesh@easy3d@@U123@@std@@V?$allocator@U?$pair@UHalfedge@SurfaceMesh@easy3d@@U123@@std@@@2@@std@@CAXXZ
	?_Xlength@?$vector@U?$pair@_KU?$pair@V?$optional@V?$edge_desc_impl@Uundirected_tag@boost@@_K@detail@boost@@@boost@@U?$pair@U?$out_edge_iter@V?$_Vector_iterator@V?$_Vector_val@U?$_Simple_types@V?$stored_edge_iter@_KV?$_List_iterator@V?$_List_val@U?$_List_simple_types@U?$list_edge@_KUEdgeProperty@internal@easy3d@@@boost@@@std@@@std@@@std@@UEdgeProperty@internal@easy3d@@@detail@boost@@@std@@@std@@@std@@_KV?$edge_desc_impl@Uundirected_tag@boost@@_K@detail@boost@@_J@detail@boost@@U123@@std@@@std@@@std@@V?$allocator@U?$pair@_KU?$pair@V?$optional@V?$edge_desc_impl@Uundirected_tag@boost@@_K@detail@boost@@@boost@@U?$pair@U?$out_edge_iter@V?$_Vector_iterator@V?$_Vector_val@U?$_Simple_types@V?$stored_edge_iter@_KV?$_List_iterator@V?$_List_val@U?$_List_simple_types@U?$list_edge@_KUEdgeProperty@internal@easy3d@@@boost@@@std@@@std@@@std@@UEdgeProperty@internal@easy3d@@@detail@boost@@@std@@@std@@@std@@_KV?$edge_desc_impl@Uundirected_tag@boost@@_K@detail@boost@@_J@detail@boost@@U123@@std@@@std@@@std@@@2@@std@@CAXXZ
	?_Xlength@?$vector@UCoredVertexIndex@@V?$allocator@UCoredVertexIndex@@@std@@@std@@CAXXZ
	?_Xlength@?$vector@UCylinderPrim@PrimitivesRansac@easy3d@@V?$allocator@UCylinderPrim@PrimitivesRansac@easy3d@@@std@@@std@@CAXXZ
	?_Xlength@?$vector@UEdge@SurfaceMesh@easy3d@@V?$allocator@UEdge@SurfaceMesh@easy3d@@@std@@@std@@CAXXZ
	?_Xlength@?$vector@UFace@SurfaceMesh@easy3d@@V?$allocator@UFace@SurfaceMesh@easy3d@@@std@@@std@@CAXXZ
	?_Xlength@?$vector@UHalfedge@SurfaceMesh@easy3d@@V?$allocator@UHalfedge@SurfaceMesh@easy3d@@@std@@@std@@CAXXZ
	?_Xlength@?$vector@UPlanePrim@PrimitivesRansac@easy3d@@V?$allocator@UPlanePrim@PrimitivesRansac@easy3d@@@std@@@std@@CAXXZ
	?_Xlength@?$vector@UPointSample@?$Octree@M@@V?$allocator@UPointSample@?$Octree@M@@@std@@@std@@CAXXZ
	?_Xlength@?$vector@UTriangle@TriangleMeshKdTree@easy3d@@V?$allocator@UTriangle@TriangleMeshKdTree@easy3d@@@std@@@std@@CAXXZ
	?_Xlength@?$vector@UTriple@easy3d@@V?$allocator@UTriple@easy3d@@@std@@@std@@CAXXZ
	?_Xlength@?$vector@UVertex@PointCloud@easy3d@@V?$allocator@UVertex@PointCloud@easy3d@@@std@@@std@@CAXXZ
	?_Xlength@?$vector@UVertex@SurfaceMesh@easy3d@@V?$allocator@UVertex@SurfaceMesh@easy3d@@@std@@@std@@CAXXZ
	?_Xlength@?$vector@UWeight@SurfaceMeshHoleFilling@easy3d@@V?$allocator@UWeight@SurfaceMeshHoleFilling@easy3d@@@std@@@std@@CAXXZ
	?_Xlength@?$vector@U_IsoEdge@?$Octree@M@@V?$allocator@U_IsoEdge@?$Octree@M@@@std@@@std@@CAXXZ
	?_Xlength@?$vector@Ustored_vertex@config@?$adj_list_gen@V?$adjacency_list@UvecS@boost@@U12@UdirectedS@2@UMST_VertexProperty@internal@easy3d@@Uno_property@2@U72@UlistS@2@@boost@@UvecS@2@U32@UdirectedS@2@UMST_VertexProperty@internal@easy3d@@Uno_property@2@U82@UlistS@2@@detail@boost@@V?$allocator@Ustored_vertex@config@?$adj_list_gen@V?$adjacency_list@UvecS@boost@@U12@UdirectedS@2@UMST_VertexProperty@internal@easy3d@@Uno_property@2@U72@UlistS@2@@boost@@UvecS@2@U32@UdirectedS@2@UMST_VertexProperty@internal@easy3d@@Uno_property@2@U82@UlistS@2@@detail@boost@@@std@@@std@@CAXXZ
	?_Xlength@?$vector@Ustored_vertex@config@?$adj_list_gen@V?$adjacency_list@UvecS@boost@@U12@UundirectedS@2@UVertexProperty@internal@easy3d@@UEdgeProperty@56@Uno_property@2@UlistS@2@@boost@@UvecS@2@U32@UundirectedS@2@UVertexProperty@internal@easy3d@@UEdgeProperty@67@Uno_property@2@UlistS@2@@detail@boost@@V?$allocator@Ustored_vertex@config@?$adj_list_gen@V?$adjacency_list@UvecS@boost@@U12@UundirectedS@2@UVertexProperty@internal@easy3d@@UEdgeProperty@56@Uno_property@2@UlistS@2@@boost@@UvecS@2@U32@UundirectedS@2@UVertexProperty@internal@easy3d@@UEdgeProperty@67@Uno_property@2@UlistS@2@@detail@boost@@@std@@@std@@CAXXZ
	?_Xlength@?$vector@V?$ConstNeighborKey@$00$00@?$OctNode@VTreeNodeData@@@@V?$allocator@V?$ConstNeighborKey@$00$00@?$OctNode@VTreeNodeData@@@@@std@@@std@@CAXXZ
	?_Xlength@?$vector@V?$GenericPolygon@M@easy3d@@V?$allocator@V?$GenericPolygon@M@easy3d@@@std@@@std@@CAXXZ
	?_Xlength@?$vector@V?$NeighborKey@$00$00@?$OctNode@VTreeNodeData@@@@V?$allocator@V?$NeighborKey@$00$00@?$OctNode@VTreeNodeData@@@@@std@@@std@@CAXXZ
	?_Xlength@?$vector@V?$NeighborKey@$00$01@?$OctNode@VTreeNodeData@@@@V?$allocator@V?$NeighborKey@$00$01@?$OctNode@VTreeNodeData@@@@@std@@@std@@CAXXZ
	?_Xlength@?$vector@V?$PlyColorAndValueVertex@M@@V?$allocator@V?$PlyColorAndValueVertex@M@@@std@@@std@@CAXXZ
	?_Xlength@?$vector@V?$SparseMatrix@M@@V?$allocator@V?$SparseMatrix@M@@@std@@@std@@CAXXZ
	?_Xlength@?$vector@V?$Triplet@NH@Eigen@@V?$allocator@V?$Triplet@NH@Eigen@@@std@@@std@@CAXXZ
	?_Xlength@?$vector@V?$Vec@$01H@easy3d@@V?$allocator@V?$Vec@$01H@easy3d@@@std@@@std@@CAXXZ
	?_Xlength@?$vector@V?$Vec@$01M@easy3d@@V?$allocator@V?$Vec@$01M@easy3d@@@std@@@std@@CAXXZ
	?_Xlength@?$vector@V?$Vec@$01N@easy3d@@V?$allocator@V?$Vec@$01N@easy3d@@@std@@@std@@CAXXZ
	?_Xlength@?$vector@V?$Vec@$02M@easy3d@@V?$allocator@V?$Vec@$02M@easy3d@@@std@@@std@@CAXXZ
	?_Xlength@?$vector@V?$Vec@$02N@easy3d@@V?$allocator@V?$Vec@$02N@easy3d@@@std@@@std@@CAXXZ
	?_Xlength@?$vector@V?$basic_string@DU?$char_traits@D@std@@V?$allocator@D@2@@std@@V?$allocator@V?$basic_string@DU?$char_traits@D@std@@V?$allocator@D@2@@std@@@2@@std@@CAXXZ
	?_Xlength@?$vector@V?$set@UHalfedge@SurfaceMesh@easy3d@@U?$less@UHalfedge@SurfaceMesh@easy3d@@@std@@V?$allocator@UHalfedge@SurfaceMesh@easy3d@@@5@@std@@V?$allocator@V?$set@UHalfedge@SurfaceMesh@easy3d@@U?$less@UHalfedge@SurfaceMesh@easy3d@@@std@@V?$allocator@UHalfedge@SurfaceMesh@easy3d@@@5@@std@@@2@@std@@CAXXZ
	?_Xlength@?$vector@V?$stored_edge_iter@_KV?$_List_iterator@V?$_List_val@U?$_List_simple_types@U?$list_edge@_KUEdgeProperty@internal@easy3d@@@boost@@@std@@@std@@@std@@UEdgeProperty@internal@easy3d@@@detail@boost@@V?$allocator@V?$stored_edge_iter@_KV?$_List_iterator@V?$_List_val@U?$_List_simple_types@U?$list_edge@_KUEdgeProperty@internal@easy3d@@@boost@@@std@@@std@@@std@@UEdgeProperty@internal@easy3d@@@detail@boost@@@std@@@std@@CAXXZ
	?_Xlength@?$vector@V?$stored_edge_property@_KUno_property@boost@@@detail@boost@@V?$allocator@V?$stored_edge_property@_KUno_property@boost@@@detail@boost@@@std@@@std@@CAXXZ
	?_Xlength@?$vector@V?$vector@HV?$allocator@H@std@@@std@@V?$allocator@V?$vector@HV?$allocator@H@std@@@std@@@2@@std@@CAXXZ
	?_Xlength@?$vector@V?$vector@IV?$allocator@I@std@@@std@@V?$allocator@V?$vector@IV?$allocator@I@std@@@std@@@2@@std@@CAXXZ
	?_Xlength@?$vector@V?$vector@MV?$allocator@M@std@@@std@@V?$allocator@V?$vector@MV?$allocator@M@std@@@std@@@2@@std@@CAXXZ
	?_Xlength@?$vector@V?$vector@UHalfedge@SurfaceMesh@easy3d@@V?$allocator@UHalfedge@SurfaceMesh@easy3d@@@std@@@std@@V?$allocator@V?$vector@UHalfedge@SurfaceMesh@easy3d@@V?$allocator@UHalfedge@SurfaceMesh@easy3d@@@std@@@std@@@2@@std@@CAXXZ
	?_Xlength@?$vector@V?$vector@UVertex@SurfaceMesh@easy3d@@V?$allocator@UVertex@SurfaceMesh@easy3d@@@std@@@std@@V?$allocator@V?$vector@UVertex@SurfaceMesh@easy3d@@V?$allocator@UVertex@SurfaceMesh@easy3d@@@std@@@std@@@2@@std@@CAXXZ
	?_Xlength@?$vector@V?$vector@UWeight@SurfaceMeshHoleFilling@easy3d@@V?$allocator@UWeight@SurfaceMeshHoleFilling@easy3d@@@std@@@std@@V?$allocator@V?$vector@UWeight@SurfaceMeshHoleFilling@easy3d@@V?$allocator@UWeight@SurfaceMeshHoleFilling@easy3d@@@std@@@std@@@2@@std@@CAXXZ
	?_Xlength@?$vector@V?$vector@U_IsoEdge@?$Octree@M@@V?$allocator@U_IsoEdge@?$Octree@M@@@std@@@std@@V?$allocator@V?$vector@U_IsoEdge@?$Octree@M@@V?$allocator@U_IsoEdge@?$Octree@M@@@std@@@std@@@2@@std@@CAXXZ
	?_Xlength@?$vector@V?$vector@V?$GenericPolygon@M@easy3d@@V?$allocator@V?$GenericPolygon@M@easy3d@@@std@@@std@@V?$allocator@V?$vector@V?$GenericPolygon@M@easy3d@@V?$allocator@V?$GenericPolygon@M@easy3d@@@std@@@std@@@2@@std@@CAXXZ
	?_Xlength@?$vector@V?$vector@V?$Vec@$02M@easy3d@@V?$allocator@V?$Vec@$02M@easy3d@@@std@@@std@@V?$allocator@V?$vector@V?$Vec@$02M@easy3d@@V?$allocator@V?$Vec@$02M@easy3d@@@std@@@std@@@2@@std@@CAXXZ
	?_Xlength@?$vector@V?$vector@V?$vector@HV?$allocator@H@std@@@std@@V?$allocator@V?$vector@HV?$allocator@H@std@@@std@@@2@@std@@V?$allocator@V?$vector@V?$vector@HV?$allocator@H@std@@@std@@V?$allocator@V?$vector@HV?$allocator@H@std@@@std@@@2@@std@@@2@@std@@CAXXZ
	?_Xlength@?$vector@V?$vector@_JV?$allocator@_J@std@@@std@@V?$allocator@V?$vector@_JV?$allocator@_J@std@@@std@@@2@@std@@CAXXZ
	?_Xlength@?$vector@V?$vector@_KV?$allocator@_K@std@@@std@@V?$allocator@V?$vector@_KV?$allocator@_K@std@@@std@@@2@@std@@CAXXZ
	?_Xlength@?$vector@VMST_Graph@internal@easy3d@@V?$allocator@VMST_Graph@internal@easy3d@@@std@@@std@@CAXXZ
	?_Xlength@?$vector@VNormalCone@easy3d@@V?$allocator@VNormalCone@easy3d@@@std@@@std@@CAXXZ
	?_Xlength@?$vector@VQuadric@easy3d@@V?$allocator@VQuadric@easy3d@@@std@@@std@@CAXXZ
	?_Xlength@?$vector@VRiemannianGraph@internal@easy3d@@V?$allocator@VRiemannianGraph@internal@easy3d@@@std@@@std@@CAXXZ
	?_Xlength@?$vector@VSurfaceMeshComponent@easy3d@@V?$allocator@VSurfaceMeshComponent@easy3d@@@std@@@std@@CAXXZ
	?_Xlength@?$vector@VTriangleIndex@@V?$allocator@VTriangleIndex@@@std@@@std@@CAXXZ
	?_Xlength@?$vector@_JV?$allocator@_J@std@@@std@@CAXXZ
	?_Xlength@?$vector@_KV?$allocator@_K@std@@@std@@CAXXZ
	?_Xrange@?$vector@NV?$allocator@N@std@@@std@@CAXXZ
	?_Xrange@?$vector@V?$Vec@$01M@easy3d@@V?$allocator@V?$Vec@$01M@easy3d@@@std@@@std@@CAXXZ
	?_add_element@Tessellator@easy3d@@AEAAXAEBV?$vector@IV?$allocator@I@std@@@std@@@Z
	?_childIndex@?$Octree@M@@IEBAHPEBV?$OctNode@VTreeNodeData@@@@U?$Point3D@M@@@Z
	?_generate@TextMesher@easy3d@@AEAA_NPEAVSurfaceMesh@2@AEBV?$basic_string@_WU?$char_traits@_W@std@@V?$allocator@_W@2@@std@@MMHM_N@Z
	?_generate_contours@TextMesher@easy3d@@AEAA_NAEBV?$basic_string@_WU?$char_traits@_W@std@@V?$allocator@_W@2@@std@@MMHAEAV?$vector@V?$vector@V?$GenericPolygon@M@easy3d@@V?$allocator@V?$GenericPolygon@M@easy3d@@@std@@@std@@V?$allocator@V?$vector@V?$GenericPolygon@M@easy3d@@V?$allocator@V?$GenericPolygon@M@easy3d@@@std@@@std@@@2@@4@_N@Z
	?_generate_contours@TextMesher@easy3d@@AEAA_NHAEAM0HAEAV?$vector@V?$GenericPolygon@M@easy3d@@V?$allocator@V?$GenericPolygon@M@easy3d@@@std@@@std@@@Z
	?_init@?$SparseMatrix@M@@AEAAXXZ
	?_localDepthAndOffset@?$Octree@M@@IEBAXPEBV?$OctNode@VTreeNodeData@@@@AEAHAEAY02H@Z
	?_localInset@?$Octree@M@@IEBAHH@Z
	?_sNodesBegin@?$Octree@M@@IEBAHHH@Z
	?_sNodesEnd@?$Octree@M@@IEBAHHH@Z
	?adaptive_remeshing@SurfaceMeshRemeshing@easy3d@@QEAAXMMMI_N@Z
	?addOutOfCorePoint@?$CoredFileMeshData@V?$PlyColorAndValueVertex@M@@@@UEAAHAEBV?$PlyColorAndValueVertex@M@@@Z
	?addOutOfCorePoint_s@?$CoredFileMeshData@V?$PlyColorAndValueVertex@M@@@@UEAAHAEBV?$PlyColorAndValueVertex@M@@@Z
	?addPolygon_s@?$CoredFileMeshData@V?$PlyColorAndValueVertex@M@@@@UEAAHAEBV?$vector@HV?$allocator@H@std@@@std@@@Z
	?addPolygon_s@?$CoredFileMeshData@V?$PlyColorAndValueVertex@M@@@@UEAAHAEBV?$vector@UCoredVertexIndex@@V?$allocator@UCoredVertexIndex@@@std@@@std@@@Z
	?add_primitive_type@PrimitivesRansac@easy3d@@QEAAXW4PrimType@12@@Z
	?add_vertex@SurfaceMesh@easy3d@@QEAA?AUVertex@12@AEBV?$Vec@$02M@2@@Z
	?add_vertex@Tessellator@easy3d@@QEAAXAEBUVertex@12@@Z
	?add_vertex@Tessellator@easy3d@@QEAAXAEBV?$Vec@$02M@2@00AEBV?$Vec@$01M@2@H@Z
	?add_vertex@Tessellator@easy3d@@QEAAXAEBV?$Vec@$02M@2@00H@Z
	?add_vertex@Tessellator@easy3d@@QEAAXAEBV?$Vec@$02M@2@0AEBV?$Vec@$01M@2@H@Z
	?add_vertex@Tessellator@easy3d@@QEAAXAEBV?$Vec@$02M@2@0H@Z
	?add_vertex@Tessellator@easy3d@@QEAAXAEBV?$Vec@$02M@2@AEBV?$Vec@$01M@2@H@Z
	?add_vertex@Tessellator@easy3d@@QEAAXAEBV?$Vec@$02M@2@H@Z
	?add_vertex@Tessellator@easy3d@@QEAAXPEBMIH@Z
	?aligned_free@@YAXPEAX@Z
	?aligned_malloc@@YAPEAX_K0@Z
	?allocate@?$allocator@D@std@@QEAAPEAD_K@Z
	?allocate@?$allocator@H@std@@QEAAPEAH_K@Z
	?allocate@?$allocator@I@std@@QEAAPEAI_K@Z
	?allocate@?$allocator@M@std@@QEAAPEAM_K@Z
	?allocate@?$allocator@N@std@@QEAAPEAN_K@Z
	?allocate@?$allocator@PEAVBasePropertyArray@easy3d@@@std@@QEAAPEAPEAVBasePropertyArray@easy3d@@_K@Z
	?allocate@?$allocator@U?$BSplineElementCoefficients@$00@@@std@@QEAAPEAU?$BSplineElementCoefficients@$00@@_K@Z
	?allocate@?$allocator@U?$BSplineElementCoefficients@$01@@@std@@QEAAPEAU?$BSplineElementCoefficients@$01@@_K@Z
	?allocate@?$allocator@U?$BSplineElementCoefficients@$0A@@@@std@@QEAAPEAU?$BSplineElementCoefficients@$0A@@@_K@Z
	?allocate@?$allocator@U?$ConstPointSupportKey@$01@@@std@@QEAAPEAU?$ConstPointSupportKey@$01@@_K@Z
	?allocate@?$allocator@U?$Point3D@M@@@std@@QEAAPEAU?$Point3D@M@@_K@Z
	?allocate@?$allocator@U?$ProjectiveData@U?$Point3D@M@@M@@@std@@QEAAPEAU?$ProjectiveData@U?$Point3D@M@@M@@_K@Z
	?allocate@?$allocator@U?$_List_node@U?$list_edge@_KUEdgeProperty@internal@easy3d@@@boost@@PEAX@std@@@std@@QEAAPEAU?$_List_node@U?$list_edge@_KUEdgeProperty@internal@easy3d@@@boost@@PEAX@2@_K@Z
	?allocate@?$allocator@UFace@SurfaceMesh@easy3d@@@std@@QEAAPEAUFace@SurfaceMesh@easy3d@@_K@Z
	?allocate@?$allocator@UHalfedge@SurfaceMesh@easy3d@@@std@@QEAAPEAUHalfedge@SurfaceMesh@easy3d@@_K@Z
	?allocate@?$allocator@UTriangle@TriangleMeshKdTree@easy3d@@@std@@QEAAPEAUTriangle@TriangleMeshKdTree@easy3d@@_K@Z
	?allocate@?$allocator@UTriple@easy3d@@@std@@QEAAPEAUTriple@easy3d@@_K@Z
	?allocate@?$allocator@UVertex@PointCloud@easy3d@@@std@@QEAAPEAUVertex@PointCloud@easy3d@@_K@Z
	?allocate@?$allocator@UVertex@SurfaceMesh@easy3d@@@std@@QEAAPEAUVertex@SurfaceMesh@easy3d@@_K@Z
	?allocate@?$allocator@U_IsoEdge@?$Octree@M@@@std@@QEAAPEAU_IsoEdge@?$Octree@M@@_K@Z
	?allocate@?$allocator@Ustored_vertex@config@?$adj_list_gen@V?$adjacency_list@UvecS@boost@@U12@UdirectedS@2@UMST_VertexProperty@internal@easy3d@@Uno_property@2@U72@UlistS@2@@boost@@UvecS@2@U32@UdirectedS@2@UMST_VertexProperty@internal@easy3d@@Uno_property@2@U82@UlistS@2@@detail@boost@@@std@@QEAAPEAUstored_vertex@config@?$adj_list_gen@V?$adjacency_list@UvecS@boost@@U12@UdirectedS@2@UMST_VertexProperty@internal@easy3d@@Uno_property@2@U72@UlistS@2@@boost@@UvecS@2@U32@UdirectedS@2@UMST_VertexProperty@internal@easy3d@@Uno_property@2@U82@UlistS@2@@detail@boost@@_K@Z
	?allocate@?$allocator@Ustored_vertex@config@?$adj_list_gen@V?$adjacency_list@UvecS@boost@@U12@UundirectedS@2@UVertexProperty@internal@easy3d@@UEdgeProperty@56@Uno_property@2@UlistS@2@@boost@@UvecS@2@U32@UundirectedS@2@UVertexProperty@internal@easy3d@@UEdgeProperty@67@Uno_property@2@UlistS@2@@detail@boost@@@std@@QEAAPEAUstored_vertex@config@?$adj_list_gen@V?$adjacency_list@UvecS@boost@@U12@UundirectedS@2@UVertexProperty@internal@easy3d@@UEdgeProperty@56@Uno_property@2@UlistS@2@@boost@@UvecS@2@U32@UundirectedS@2@UVertexProperty@internal@easy3d@@UEdgeProperty@67@Uno_property@2@UlistS@2@@detail@boost@@_K@Z
	?allocate@?$allocator@V?$GenericPolygon@M@easy3d@@@std@@QEAAPEAV?$GenericPolygon@M@easy3d@@_K@Z
	?allocate@?$allocator@V?$PlyColorAndValueVertex@M@@@std@@QEAAPEAV?$PlyColorAndValueVertex@M@@_K@Z
	?allocate@?$allocator@V?$Triplet@NH@Eigen@@@std@@QEAAPEAV?$Triplet@NH@Eigen@@_K@Z
	?allocate@?$allocator@V?$Vec@$01H@easy3d@@@std@@QEAAPEAV?$Vec@$01H@easy3d@@_K@Z
	?allocate@?$allocator@V?$Vec@$01M@easy3d@@@std@@QEAAPEAV?$Vec@$01M@easy3d@@_K@Z
	?allocate@?$allocator@V?$Vec@$01N@easy3d@@@std@@QEAAPEAV?$Vec@$01N@easy3d@@_K@Z
	?allocate@?$allocator@V?$Vec@$02M@easy3d@@@std@@QEAAPEAV?$Vec@$02M@easy3d@@_K@Z
	?allocate@?$allocator@V?$Vec@$02N@easy3d@@@std@@QEAAPEAV?$Vec@$02N@easy3d@@_K@Z
	?allocate@?$allocator@V?$vector@HV?$allocator@H@std@@@std@@@std@@QEAAPEAV?$vector@HV?$allocator@H@std@@@2@_K@Z
	?allocate@?$allocator@V?$vector@UVertex@SurfaceMesh@easy3d@@V?$allocator@UVertex@SurfaceMesh@easy3d@@@std@@@std@@@std@@QEAAPEAV?$vector@UVertex@SurfaceMesh@easy3d@@V?$allocator@UVertex@SurfaceMesh@easy3d@@@std@@@2@_K@Z
	?allocate@?$allocator@V?$vector@V?$Vec@$02M@easy3d@@V?$allocator@V?$Vec@$02M@easy3d@@@std@@@std@@@std@@QEAAPEAV?$vector@V?$Vec@$02M@easy3d@@V?$allocator@V?$Vec@$02M@easy3d@@@std@@@2@_K@Z
	?allocate@?$allocator@VNormalCone@easy3d@@@std@@QEAAPEAVNormalCone@easy3d@@_K@Z
	?allocate@?$allocator@VQuadric@easy3d@@@std@@QEAAPEAVQuadric@easy3d@@_K@Z
	?allocate@?$allocator@VTriangleIndex@@@std@@QEAAPEAVTriangleIndex@@_K@Z
	?allocate@?$allocator@_K@std@@QEAAPEA_K_K@Z
	?analyze@SurfaceMeshCurvature@easy3d@@QEAAXI@Z
	?analyzePattern_preordered@?$SimplicialCholeskyBase@V?$SimplicialLDLT@V?$SparseMatrix@N$0A@H@Eigen@@$00V?$AMDOrdering@H@2@@Eigen@@@Eigen@@IEAAXAEBV?$SparseMatrix@N$0A@H@2@_N@Z
	?analyze_tensor@SurfaceMeshCurvature@easy3d@@QEAAXI_N@Z
	?angle_sum@geom@easy3d@@YANPEBVSurfaceMesh@2@UVertex@32@@Z
	?append@?$basic_string@DU?$char_traits@D@std@@V?$allocator@D@2@@std@@QEAAAEAV12@QEBD_K@Z
	?apply@GaussianNoise@easy3d@@SAXPEAVPointCloud@2@M@Z
	?apply@GaussianNoise@easy3d@@SAXPEAVSurfaceMesh@2@M@Z
	?apply@PoissonReconstruction@easy3d@@QEBAPEAVSurfaceMesh@2@PEBVPointCloud@2@AEBV?$basic_string@DU?$char_traits@D@std@@V?$allocator@D@2@@std@@@Z
	?apply@PolygonPartition@easy3d@@SA_NAEBV?$vector@V?$Vec@$01M@easy3d@@V?$allocator@V?$Vec@$01M@easy3d@@@std@@@std@@AEBV?$vector@V?$vector@_KV?$allocator@_K@std@@@std@@V?$allocator@V?$vector@_KV?$allocator@_K@std@@@std@@@2@@4@1AEAV54@@Z
	?apply@SurfaceMeshPolygonization@easy3d@@QEAAXPEAVSurfaceMesh@2@M@Z
	?apply@SurfaceMeshSampler@easy3d@@SAPEAVPointCloud@2@PEBVSurfaceMesh@2@H@Z
	?apply@SurfaceMeshStitching@easy3d@@QEAAXM@Z
	?apply@SurfaceMeshTetrehedralization@easy3d@@QEAAPEAVPolyMesh@2@PEAVSurfaceMesh@2@@Z
	?apply_HM@PolygonPartition@easy3d@@SA_NAEBV?$vector@V?$Vec@$01M@easy3d@@V?$allocator@V?$Vec@$01M@easy3d@@@std@@@std@@AEAV?$vector@V?$vector@_KV?$allocator@_K@std@@@std@@V?$allocator@V?$vector@_KV?$allocator@_K@std@@@std@@@2@@4@@Z
	?apply_OPT@PolygonPartition@easy3d@@SA_NAEBV?$vector@V?$Vec@$01M@easy3d@@V?$allocator@V?$Vec@$01M@easy3d@@@std@@@std@@AEAV?$vector@V?$vector@_KV?$allocator@_K@std@@@std@@V?$allocator@V?$vector@_KV?$allocator@_K@std@@@std@@@2@@4@@Z
	?area@SurfaceMeshComponent@easy3d@@QEBAMXZ
	?aspect_ratio@SurfaceMeshSimplification@easy3d@@AEBAMUFace@SurfaceMesh@2@@Z
	?assign@?$basic_string@DU?$char_traits@D@std@@V?$allocator@D@2@@std@@QEAAAEAV12@QEBD_K@Z
	?assign@?$vector@HV?$allocator@H@std@@@std@@QEAAX_KAEBH@Z
	?assign_edge_coordinate@SurfaceMeshStitching@easy3d@@AEBAXPEAMUHalfedge@SurfaceMesh@2@@Z
	?average_space@PointCloudSimplification@easy3d@@SAMPEAVPointCloud@2@PEAVKdTreeSearch@2@H_NH@Z
	?bbox@SurfaceMeshComponent@easy3d@@QEBA?AV?$GenericBox@$02M@2@XZ
	?beginCallback@Tessellator@easy3d@@CAXIPEAX@Z
	?begin_contour@Tessellator@easy3d@@QEAAXXZ
	?begin_polygon@Tessellator@easy3d@@QEAAXAEBV?$Vec@$02M@2@@Z
	?begin_polygon@Tessellator@easy3d@@QEAAXXZ
	?border_length@SurfaceMeshComponent@easy3d@@QEBAMXZ
	?borders_in_range@SurfaceMeshStitching@easy3d@@AEBAXUHalfedge@SurfaceMesh@2@MAEAV?$vector@UHalfedge@SurfaceMesh@easy3d@@V?$allocator@UHalfedge@SurfaceMesh@easy3d@@@std@@@std@@@Z
	?build@ColliderImpl@internal@@AEAAPEAVModel@Opcode@@PEBVSurfaceMesh@easy3d@@@Z
	?build_graph@internal@easy3d@@YAXPEAVPointCloud@2@PEBVKdTreeSearch@2@IAEAVRiemannianGraph@12@@Z
	?build_recurse@TriangleMeshKdTree@easy3d@@AEAAIPEAUNode@12@II@Z
	?catmull_clark@SurfaceMeshSubdivision@easy3d@@SA_NPEAVSurfaceMesh@2@@Z
	?centroid@geom@easy3d@@YA?AV?$Vec@$02M@2@PEBVSurfaceMesh@2@@Z
	?centroid@geom@easy3d@@YA?AV?$Vec@$02M@2@PEBVSurfaceMesh@2@UFace@42@@Z
	?check_duplicate_vertices@Delaunay@easy3d@@QEAA_NXZ
	?classify@SurfaceMeshPolygonization@easy3d@@AEAAXPEBVSurfaceMesh@2@AEBV?$vector@V?$vector@UHalfedge@SurfaceMesh@easy3d@@V?$allocator@UHalfedge@SurfaceMesh@easy3d@@@std@@@std@@V?$allocator@V?$vector@UHalfedge@SurfaceMesh@easy3d@@V?$allocator@UHalfedge@SurfaceMesh@easy3d@@@std@@@std@@@2@@std@@AEAV?$vector@UHalfedge@SurfaceMesh@easy3d@@V?$allocator@UHalfedge@SurfaceMesh@easy3d@@@std@@@5@AEAV45@@Z
	?clean_memory@tetgenio@@QEAAXXZ
	?clear@?$ConstNeighbors@$01@?$OctNode@VTreeNodeData@@@@QEAAXXZ
	?clear@?$ConstNeighbors@$02@?$OctNode@VTreeNodeData@@@@QEAAXXZ
	?clear@?$Neighbors@$01@?$OctNode@VTreeNodeData@@@@QEAAXXZ
	?clear@?$Neighbors@$02@?$OctNode@VTreeNodeData@@@@QEAAXXZ
	?clear@?$Neighbors@$03@?$OctNode@VTreeNodeData@@@@QEAAXXZ
	?clear@?$Neighbors@$04@?$OctNode@VTreeNodeData@@@@QEAAXXZ
	?clear@?$_Hash@V?$_Umap_traits@_JU?$pair@HV?$PlyColorAndValueVertex@M@@@std@@V?$_Uhash_compare@_JU?$hash@_J@std@@U?$equal_to@_J@2@@2@V?$allocator@U?$pair@$$CB_JU?$pair@HV?$PlyColorAndValueVertex@M@@@std@@@std@@@2@$0A@@std@@@std@@QEAAXXZ
	?clear@?$_Hash@V?$_Umap_traits@_JV?$vector@U_IsoEdge@?$Octree@M@@V?$allocator@U_IsoEdge@?$Octree@M@@@std@@@std@@V?$_Uhash_compare@_JU?$hash@_J@std@@U?$equal_to@_J@2@@2@V?$allocator@U?$pair@$$CB_JV?$vector@U_IsoEdge@?$Octree@M@@V?$allocator@U_IsoEdge@?$Octree@M@@@std@@@std@@@std@@@2@$0A@@std@@@std@@QEAAXXZ
	?clear@?$_Hash@V?$_Umap_traits@_J_JV?$_Uhash_compare@_JU?$hash@_J@std@@U?$equal_to@_J@2@@std@@V?$allocator@U?$pair@$$CB_J_J@std@@@2@$0A@@std@@@std@@QEAAXXZ
	?clear@?$_Hash@V?$_Umap_traits@_K_KV?$_Uhash_compare@_KU?$hash@_K@std@@U?$equal_to@_K@2@@std@@V?$allocator@U?$pair@$$CB_K_K@std@@@2@$0A@@std@@@std@@QEAAXXZ
	?clear@?$_Tree@V?$_Tset_traits@UVertex@SurfaceMesh@easy3d@@VVertexCmp@SurfaceMeshGeodesic@3@V?$allocator@UVertex@SurfaceMesh@easy3d@@@std@@$0A@@std@@@std@@QEAAXXZ
	?clear@PropertyContainer@easy3d@@QEAAXXZ
	?clear@SurfaceMeshFeatures@easy3d@@QEAAXXZ
	?clear@VertexManager@internal@easy3d@@QEAAXXZ
	?clone@?$PropertyArray@D@easy3d@@UEBAPEAVBasePropertyArray@2@XZ
	?clone@?$PropertyArray@E@easy3d@@UEBAPEAVBasePropertyArray@2@XZ
	?clone@?$PropertyArray@H@easy3d@@UEBAPEAVBasePropertyArray@2@XZ
	?clone@?$PropertyArray@I@easy3d@@UEBAPEAVBasePropertyArray@2@XZ
	?clone@?$PropertyArray@M@easy3d@@UEBAPEAVBasePropertyArray@2@XZ
	?clone@?$PropertyArray@N@easy3d@@UEBAPEAVBasePropertyArray@2@XZ
	?clone@?$PropertyArray@UFace@SurfaceMesh@easy3d@@@easy3d@@UEBAPEAVBasePropertyArray@2@XZ
	?clone@?$PropertyArray@UHalfedge@SurfaceMesh@easy3d@@@easy3d@@UEBAPEAVBasePropertyArray@2@XZ
	?clone@?$PropertyArray@UVertex@SurfaceMesh@easy3d@@@easy3d@@UEBAPEAVBasePropertyArray@2@XZ
	?clone@?$PropertyArray@V?$Vec@$01M@easy3d@@@easy3d@@UEBAPEAVBasePropertyArray@2@XZ
	?clone@?$PropertyArray@V?$Vec@$01N@easy3d@@@easy3d@@UEBAPEAVBasePropertyArray@2@XZ
	?clone@?$PropertyArray@V?$Vec@$02M@easy3d@@@easy3d@@UEBAPEAVBasePropertyArray@2@XZ
	?clone@?$PropertyArray@V?$Vec@$02N@easy3d@@@easy3d@@UEBAPEAVBasePropertyArray@2@XZ
	?clone@?$PropertyArray@V?$vector@V?$Vec@$02M@easy3d@@V?$allocator@V?$Vec@$02M@easy3d@@@std@@@std@@@easy3d@@UEBAPEAVBasePropertyArray@2@XZ
	?clone@?$PropertyArray@VNormalCone@easy3d@@@easy3d@@UEBAPEAVBasePropertyArray@2@XZ
	?clone@?$PropertyArray@VQuadric@easy3d@@@easy3d@@UEBAPEAVBasePropertyArray@2@XZ
	?clone@?$PropertyArray@_K@easy3d@@UEBAPEAVBasePropertyArray@2@XZ
	?clone@?$PropertyArray@_N@easy3d@@UEBAPEAVBasePropertyArray@2@XZ
	?clone@?$wrapexcept@Unegative_edge@boost@@@boost@@UEBAPEBVclone_base@exception_detail@2@XZ
	?collapse_short_edges@SurfaceMeshHoleFilling@easy3d@@AEAAXM@Z
	?collapse_short_edges@SurfaceMeshRemeshing@easy3d@@AEAAXXZ
	?combineCallback@Tessellator@easy3d@@CAXQEBNQEAPEAXQEBMPEAPEAXPEAX@Z
	?compute@SurfaceMeshGeodesic@easy3d@@QEAAIAEBV?$vector@UVertex@SurfaceMesh@easy3d@@V?$allocator@UVertex@SurfaceMesh@easy3d@@@std@@@std@@MIPEAV34@@Z
	?compute_angle@SurfaceMeshHoleFilling@easy3d@@AEBAMAEBV?$Vec@$02M@2@0@Z
	?compute_area@SurfaceMeshHoleFilling@easy3d@@AEBAMUVertex@SurfaceMesh@2@00@Z
	?compute_edge_weights@SurfaceMeshSmoothing@easy3d@@AEAAX_N@Z
	?compute_gauss_curvature@SurfaceMeshCurvature@easy3d@@QEAAXXZ
	?compute_max_abs_curvature@SurfaceMeshCurvature@easy3d@@QEAAXXZ
	?compute_mean_curvature@SurfaceMeshCurvature@easy3d@@QEAAXXZ
	?compute_normal@SurfaceMeshHoleFilling@easy3d@@AEBA?AV?$Vec@$02M@2@UVertex@SurfaceMesh@2@00@Z
	?compute_vertex_weights@SurfaceMeshSmoothing@easy3d@@AEAAX_N@Z
	?compute_weight@SurfaceMeshHoleFilling@easy3d@@AEBA?AUWeight@12@HHH@Z
	?compute_weight@SurfaceMeshTriangulation@easy3d@@AEBAMHHH@Z
	?cone@SurfaceMeshFactory@easy3d@@SA?AVSurfaceMesh@2@_KMM@Z
	?connected_components@internal@easy3d@@YA?AV?$vector@VRiemannianGraph@internal@easy3d@@V?$allocator@VRiemannianGraph@internal@easy3d@@@std@@@std@@PEAVPointCloud@2@AEBVRiemannianGraph@12@@Z
	?copy@?$PropertyArray@D@easy3d@@UEAAX_K0@Z
	?copy@?$PropertyArray@E@easy3d@@UEAAX_K0@Z
	?copy@?$PropertyArray@H@easy3d@@UEAAX_K0@Z
	?copy@?$PropertyArray@I@easy3d@@UEAAX_K0@Z
	?copy@?$PropertyArray@M@easy3d@@UEAAX_K0@Z
	?copy@?$PropertyArray@N@easy3d@@UEAAX_K0@Z
	?copy@?$PropertyArray@UFace@SurfaceMesh@easy3d@@@easy3d@@UEAAX_K0@Z
	?copy@?$PropertyArray@UHalfedge@SurfaceMesh@easy3d@@@easy3d@@UEAAX_K0@Z
	?copy@?$PropertyArray@UVertex@SurfaceMesh@easy3d@@@easy3d@@UEAAX_K0@Z
	?copy@?$PropertyArray@V?$Vec@$01M@easy3d@@@easy3d@@UEAAX_K0@Z
	?copy@?$PropertyArray@V?$Vec@$01N@easy3d@@@easy3d@@UEAAX_K0@Z
	?copy@?$PropertyArray@V?$Vec@$02M@easy3d@@@easy3d@@UEAAX_K0@Z
	?copy@?$PropertyArray@V?$Vec@$02N@easy3d@@@easy3d@@UEAAX_K0@Z
	?copy@?$PropertyArray@V?$vector@V?$Vec@$02M@easy3d@@V?$allocator@V?$Vec@$02M@easy3d@@@std@@@std@@@easy3d@@UEAAX_K0@Z
	?copy@?$PropertyArray@VNormalCone@easy3d@@@easy3d@@UEAAX_K0@Z
	?copy@?$PropertyArray@VQuadric@easy3d@@@easy3d@@UEAAX_K0@Z
	?copy@?$PropertyArray@_K@easy3d@@UEAAX_K0@Z
	?copy@?$PropertyArray@_N@easy3d@@UEAAX_K0@Z
	?copy@?$_Char_traits@DH@std@@SAPEADQEADQEBD_K@Z
	?copy_boost_exception@exception_detail@boost@@YAXPEAVexception@2@PEBV32@@Z
	?copy_impl@?$vec_adj_list_impl@V?$adjacency_list@UvecS@boost@@U12@UdirectedS@2@UMST_VertexProperty@internal@easy3d@@Uno_property@2@U72@UlistS@2@@boost@@Uconfig@?$adj_list_gen@V?$adjacency_list@UvecS@boost@@U12@UdirectedS@2@UMST_VertexProperty@internal@easy3d@@Uno_property@2@U72@UlistS@2@@boost@@UvecS@2@U32@UdirectedS@2@UMST_VertexProperty@internal@easy3d@@Uno_property@2@U82@UlistS@2@@detail@2@U?$directed_graph_helper@Uconfig@?$adj_list_gen@V?$adjacency_list@UvecS@boost@@U12@UdirectedS@2@UMST_VertexProperty@internal@easy3d@@Uno_property@2@U72@UlistS@2@@boost@@UvecS@2@U32@UdirectedS@2@UMST_VertexProperty@internal@easy3d@@Uno_property@2@U82@UlistS@2@@detail@boost@@@2@@boost@@QEAAXAEBV12@@Z
	?cornerIndices@SliceTableData@SortedTreeNodes@@QEAAAEAU?$_Indices@$03@2@H@Z
	?cornerIndices@SliceTableData@SortedTreeNodes@@QEAAAEAU?$_Indices@$03@2@PEBV?$OctNode@VTreeNodeData@@@@@Z
	?cornerIndices@SliceTableData@SortedTreeNodes@@QEBAAEBU?$_Indices@$03@2@H@Z
	?cornerIndices@SliceTableData@SortedTreeNodes@@QEBAAEBU?$_Indices@$03@2@PEBV?$OctNode@VTreeNodeData@@@@@Z
	?cotan_weight@geom@easy3d@@YANPEBVSurfaceMesh@2@UEdge@32@@Z
	?cylinder@SurfaceMeshFactory@easy3d@@SA?AVSurfaceMesh@2@_KMM@Z
	?deallocate@?$allocator@D@std@@QEAAXQEAD_K@Z
	?deallocate@?$allocator@E@std@@QEAAXQEAE_K@Z
	?deallocate@?$allocator@H@std@@QEAAXQEAH_K@Z
	?deallocate@?$allocator@I@std@@QEAAXQEAI_K@Z
	?deallocate@?$allocator@M@std@@QEAAXQEAM_K@Z
	?deallocate@?$allocator@N@std@@QEAAXQEAN_K@Z
	?deallocate@?$allocator@PEAUVertex@Tessellator@easy3d@@@std@@QEAAXQEAPEAUVertex@Tessellator@easy3d@@_K@Z
	?deallocate@?$allocator@PEAV?$OctNode@VTreeNodeData@@@@@std@@QEAAXQEAPEAV?$OctNode@VTreeNodeData@@@@_K@Z
	?deallocate@?$allocator@PEAVBasePropertyArray@easy3d@@@std@@QEAAXQEAPEAVBasePropertyArray@easy3d@@_K@Z
	?deallocate@?$allocator@U?$BSplineElementCoefficients@$00@@@std@@QEAAXQEAU?$BSplineElementCoefficients@$00@@_K@Z
	?deallocate@?$allocator@U?$BSplineElementCoefficients@$01@@@std@@QEAAXQEAU?$BSplineElementCoefficients@$01@@_K@Z
	?deallocate@?$allocator@U?$BSplineElementCoefficients@$0A@@@@std@@QEAAXQEAU?$BSplineElementCoefficients@$0A@@@_K@Z
	?deallocate@?$allocator@U?$ConstPointSupportKey@$01@@@std@@QEAAXQEAU?$ConstPointSupportKey@$01@@_K@Z
	?deallocate@?$allocator@U?$Point3D@M@@@std@@QEAAXQEAU?$Point3D@M@@_K@Z
	?deallocate@?$allocator@U?$ProjectiveData@U?$Point3D@M@@M@@@std@@QEAAXQEAU?$ProjectiveData@U?$Point3D@M@@M@@_K@Z
	?deallocate@?$allocator@U?$SinglePointData@M$0A@@@@std@@QEAAXQEAU?$SinglePointData@M$0A@@@_K@Z
	?deallocate@?$allocator@U?$pair@UFace@SurfaceMesh@easy3d@@U123@@std@@@std@@QEAAXQEAU?$pair@UFace@SurfaceMesh@easy3d@@U123@@2@_K@Z
	?deallocate@?$allocator@U?$pair@UHalfedge@SurfaceMesh@easy3d@@U123@@std@@@std@@QEAAXQEAU?$pair@UHalfedge@SurfaceMesh@easy3d@@U123@@2@_K@Z
	?deallocate@?$allocator@U?$pair@_KU?$pair@V?$optional@V?$edge_desc_impl@Uundirected_tag@boost@@_K@detail@boost@@@boost@@U?$pair@U?$out_edge_iter@V?$_Vector_iterator@V?$_Vector_val@U?$_Simple_types@V?$stored_edge_iter@_KV?$_List_iterator@V?$_List_val@U?$_List_simple_types@U?$list_edge@_KUEdgeProperty@internal@easy3d@@@boost@@@std@@@std@@@std@@UEdgeProperty@internal@easy3d@@@detail@boost@@@std@@@std@@@std@@_KV?$edge_desc_impl@Uundirected_tag@boost@@_K@detail@boost@@_J@detail@boost@@U123@@std@@@std@@@std@@@std@@QEAAXQEAU?$pair@_KU?$pair@V?$optional@V?$edge_desc_impl@Uundirected_tag@boost@@_K@detail@boost@@@boost@@U?$pair@U?$out_edge_iter@V?$_Vector_iterator@V?$_Vector_val@U?$_Simple_types@V?$stored_edge_iter@_KV?$_List_iterator@V?$_List_val@U?$_List_simple_types@U?$list_edge@_KUEdgeProperty@internal@easy3d@@@boost@@@std@@@std@@@std@@UEdgeProperty@internal@easy3d@@@detail@boost@@@std@@@std@@@std@@_KV?$edge_desc_impl@Uundirected_tag@boost@@_K@detail@boost@@_J@detail@boost@@U123@@std@@@std@@@2@_K@Z
	?deallocate@?$allocator@UCoredVertexIndex@@@std@@QEAAXQEAUCoredVertexIndex@@_K@Z
	?deallocate@?$allocator@UCylinderPrim@PrimitivesRansac@easy3d@@@std@@QEAAXQEAUCylinderPrim@PrimitivesRansac@easy3d@@_K@Z
	?deallocate@?$allocator@UEdge@SurfaceMesh@easy3d@@@std@@QEAAXQEAUEdge@SurfaceMesh@easy3d@@_K@Z
	?deallocate@?$allocator@UFace@SurfaceMesh@easy3d@@@std@@QEAAXQEAUFace@SurfaceMesh@easy3d@@_K@Z
	?deallocate@?$allocator@UHalfedge@SurfaceMesh@easy3d@@@std@@QEAAXQEAUHalfedge@SurfaceMesh@easy3d@@_K@Z
	?deallocate@?$allocator@UPlanePrim@PrimitivesRansac@easy3d@@@std@@QEAAXQEAUPlanePrim@PrimitivesRansac@easy3d@@_K@Z
	?deallocate@?$allocator@UPointSample@?$Octree@M@@@std@@QEAAXQEAUPointSample@?$Octree@M@@_K@Z
	?deallocate@?$allocator@UTriangle@TriangleMeshKdTree@easy3d@@@std@@QEAAXQEAUTriangle@TriangleMeshKdTree@easy3d@@_K@Z
	?deallocate@?$allocator@UTriple@easy3d@@@std@@QEAAXQEAUTriple@easy3d@@_K@Z
	?deallocate@?$allocator@UVertex@PointCloud@easy3d@@@std@@QEAAXQEAUVertex@PointCloud@easy3d@@_K@Z
	?deallocate@?$allocator@UVertex@SurfaceMesh@easy3d@@@std@@QEAAXQEAUVertex@SurfaceMesh@easy3d@@_K@Z
	?deallocate@?$allocator@U_IsoEdge@?$Octree@M@@@std@@QEAAXQEAU_IsoEdge@?$Octree@M@@_K@Z
	?deallocate@?$allocator@Ustored_vertex@config@?$adj_list_gen@V?$adjacency_list@UvecS@boost@@U12@UdirectedS@2@UMST_VertexProperty@internal@easy3d@@Uno_property@2@U72@UlistS@2@@boost@@UvecS@2@U32@UdirectedS@2@UMST_VertexProperty@internal@easy3d@@Uno_property@2@U82@UlistS@2@@detail@boost@@@std@@QEAAXQEAUstored_vertex@config@?$adj_list_gen@V?$adjacency_list@UvecS@boost@@U12@UdirectedS@2@UMST_VertexProperty@internal@easy3d@@Uno_property@2@U72@UlistS@2@@boost@@UvecS@2@U32@UdirectedS@2@UMST_VertexProperty@internal@easy3d@@Uno_property@2@U82@UlistS@2@@detail@boost@@_K@Z
	?deallocate@?$allocator@Ustored_vertex@config@?$adj_list_gen@V?$adjacency_list@UvecS@boost@@U12@UundirectedS@2@UVertexProperty@internal@easy3d@@UEdgeProperty@56@Uno_property@2@UlistS@2@@boost@@UvecS@2@U32@UundirectedS@2@UVertexProperty@internal@easy3d@@UEdgeProperty@67@Uno_property@2@UlistS@2@@detail@boost@@@std@@QEAAXQEAUstored_vertex@config@?$adj_list_gen@V?$adjacency_list@UvecS@boost@@U12@UundirectedS@2@UVertexProperty@internal@easy3d@@UEdgeProperty@56@Uno_property@2@UlistS@2@@boost@@UvecS@2@U32@UundirectedS@2@UVertexProperty@internal@easy3d@@UEdgeProperty@67@Uno_property@2@UlistS@2@@detail@boost@@_K@Z
	?deallocate@?$allocator@V?$GenericPolygon@M@easy3d@@@std@@QEAAXQEAV?$GenericPolygon@M@easy3d@@_K@Z
	?deallocate@?$allocator@V?$PlyColorAndValueVertex@M@@@std@@QEAAXQEAV?$PlyColorAndValueVertex@M@@_K@Z
	?deallocate@?$allocator@V?$Triplet@NH@Eigen@@@std@@QEAAXQEAV?$Triplet@NH@Eigen@@_K@Z
	?deallocate@?$allocator@V?$Vec@$01H@easy3d@@@std@@QEAAXQEAV?$Vec@$01H@easy3d@@_K@Z
	?deallocate@?$allocator@V?$Vec@$01M@easy3d@@@std@@QEAAXQEAV?$Vec@$01M@easy3d@@_K@Z
	?deallocate@?$allocator@V?$Vec@$01N@easy3d@@@std@@QEAAXQEAV?$Vec@$01N@easy3d@@_K@Z
	?deallocate@?$allocator@V?$Vec@$02M@easy3d@@@std@@QEAAXQEAV?$Vec@$02M@easy3d@@_K@Z
	?deallocate@?$allocator@V?$Vec@$02N@easy3d@@@std@@QEAAXQEAV?$Vec@$02N@easy3d@@_K@Z
	?deallocate@?$allocator@V?$basic_string@DU?$char_traits@D@std@@V?$allocator@D@2@@std@@@std@@QEAAXQEAV?$basic_string@DU?$char_traits@D@std@@V?$allocator@D@2@@2@_K@Z
	?deallocate@?$allocator@V?$stored_edge_iter@_KV?$_List_iterator@V?$_List_val@U?$_List_simple_types@U?$list_edge@_KUEdgeProperty@internal@easy3d@@@boost@@@std@@@std@@@std@@UEdgeProperty@internal@easy3d@@@detail@boost@@@std@@QEAAXQEAV?$stored_edge_iter@_KV?$_List_iterator@V?$_List_val@U?$_List_simple_types@U?$list_edge@_KUEdgeProperty@internal@easy3d@@@boost@@@std@@@std@@@std@@UEdgeProperty@internal@easy3d@@@detail@boost@@_K@Z
	?deallocate@?$allocator@V?$stored_edge_property@_KUno_property@boost@@@detail@boost@@@std@@QEAAXQEAV?$stored_edge_property@_KUno_property@boost@@@detail@boost@@_K@Z
	?deallocate@?$allocator@V?$vector@HV?$allocator@H@std@@@std@@@std@@QEAAXQEAV?$vector@HV?$allocator@H@std@@@2@_K@Z
	?deallocate@?$allocator@V?$vector@IV?$allocator@I@std@@@std@@@std@@QEAAXQEAV?$vector@IV?$allocator@I@std@@@2@_K@Z
	?deallocate@?$allocator@V?$vector@MV?$allocator@M@std@@@std@@@std@@QEAAXQEAV?$vector@MV?$allocator@M@std@@@2@_K@Z
	?deallocate@?$allocator@V?$vector@UHalfedge@SurfaceMesh@easy3d@@V?$allocator@UHalfedge@SurfaceMesh@easy3d@@@std@@@std@@@std@@QEAAXQEAV?$vector@UHalfedge@SurfaceMesh@easy3d@@V?$allocator@UHalfedge@SurfaceMesh@easy3d@@@std@@@2@_K@Z
	?deallocate@?$allocator@V?$vector@UVertex@SurfaceMesh@easy3d@@V?$allocator@UVertex@SurfaceMesh@easy3d@@@std@@@std@@@std@@QEAAXQEAV?$vector@UVertex@SurfaceMesh@easy3d@@V?$allocator@UVertex@SurfaceMesh@easy3d@@@std@@@2@_K@Z
	?deallocate@?$allocator@V?$vector@UWeight@SurfaceMeshHoleFilling@easy3d@@V?$allocator@UWeight@SurfaceMeshHoleFilling@easy3d@@@std@@@std@@@std@@QEAAXQEAV?$vector@UWeight@SurfaceMeshHoleFilling@easy3d@@V?$allocator@UWeight@SurfaceMeshHoleFilling@easy3d@@@std@@@2@_K@Z
	?deallocate@?$allocator@V?$vector@V?$GenericPolygon@M@easy3d@@V?$allocator@V?$GenericPolygon@M@easy3d@@@std@@@std@@@std@@QEAAXQEAV?$vector@V?$GenericPolygon@M@easy3d@@V?$allocator@V?$GenericPolygon@M@easy3d@@@std@@@2@_K@Z
	?deallocate@?$allocator@V?$vector@V?$Vec@$02M@easy3d@@V?$allocator@V?$Vec@$02M@easy3d@@@std@@@std@@@std@@QEAAXQEAV?$vector@V?$Vec@$02M@easy3d@@V?$allocator@V?$Vec@$02M@easy3d@@@std@@@2@_K@Z
	?deallocate@?$allocator@V?$vector@_JV?$allocator@_J@std@@@std@@@std@@QEAAXQEAV?$vector@_JV?$allocator@_J@std@@@2@_K@Z
	?deallocate@?$allocator@V?$vector@_KV?$allocator@_K@std@@@std@@@std@@QEAAXQEAV?$vector@_KV?$allocator@_K@std@@@2@_K@Z
	?deallocate@?$allocator@VMST_Graph@internal@easy3d@@@std@@QEAAXQEAVMST_Graph@internal@easy3d@@_K@Z
	?deallocate@?$allocator@VNormalCone@easy3d@@@std@@QEAAXQEAVNormalCone@easy3d@@_K@Z
	?deallocate@?$allocator@VQuadric@easy3d@@@std@@QEAAXQEAVQuadric@easy3d@@_K@Z
	?deallocate@?$allocator@VSurfaceMeshComponent@easy3d@@@std@@QEAAXQEAVSurfaceMeshComponent@easy3d@@_K@Z
	?deallocate@?$allocator@VTriangleIndex@@@std@@QEAAXQEAVTriangleIndex@@_K@Z
	?deallocate@?$allocator@_J@std@@QEAAXQEA_J_K@Z
	?deallocate@?$allocator@_K@std@@QEAAXQEA_K_K@Z
	?decreasing_sort@?$EigenSolver@N@easy3d@@CAXHPEANPEAPEAN@Z
	?derivative@?$Polynomial@$00@@QEBA?AV?$Polynomial@$0A@@@XZ
	?derivative@?$Polynomial@$01@@QEBA?AV?$Polynomial@$00@@XZ
	?derivative@BSplineComponents@?$BSplineEvaluationData@$00$01@@QEBA?AU12@XZ
	?derivative@BSplineComponents@?$BSplineEvaluationData@$01$01@@QEBA?AU12@XZ
	?destroy@sp_counted_base@detail@boost@@UEAAXXZ
	?detect@Collider@easy3d@@QEBA?AV?$vector@U?$pair@UFace@SurfaceMesh@easy3d@@U123@@std@@V?$allocator@U?$pair@UFace@SurfaceMesh@easy3d@@U123@@std@@@2@@std@@AEBV?$Mat4@M@2@0@Z
	?detect@ColliderImpl@internal@@QEBA?AV?$vector@U?$pair@UFace@SurfaceMesh@easy3d@@U123@@std@@V?$allocator@U?$pair@UFace@SurfaceMesh@easy3d@@U123@@std@@@2@@std@@AEBV?$Mat4@M@easy3d@@0@Z
	?detect@PrimitivesRansac@easy3d@@QEAAHPEAVPointCloud@2@AEBV?$vector@HV?$allocator@H@std@@@std@@IMMMM@Z
	?detect@PrimitivesRansac@easy3d@@QEAAHPEAVPointCloud@2@IMMMM@Z
	?detect_angle@SurfaceMeshFeatures@easy3d@@QEAAXM@Z
	?detect_boundary@SurfaceMeshFeatures@easy3d@@QEAAXXZ
	?difference_of@csg@easy3d@@YAXAEBV?$GenericPolygon@M@2@0AEAV?$vector@V?$GenericPolygon@M@easy3d@@V?$allocator@V?$GenericPolygon@M@easy3d@@@std@@@std@@@Z
	?dispose@?$sp_counted_impl_pd@PEAEU?$checked_array_deleter@E@checked_deleters@boost@@@detail@boost@@UEAAXXZ
	?dispose@?$sp_counted_impl_pd@PEAW4default_color_type@boost@@U?$checked_array_deleter@W4default_color_type@boost@@@checked_deleters@2@@detail@boost@@UEAAXXZ
	?dist_point_line_segment@geom@easy3d@@YAMAEBV?$Vec@$02M@2@00AEAV32@@Z
	?dist_point_triangle@geom@easy3d@@YAMAEBV?$Vec@$02M@2@000AEAV32@@Z
	?distance@SurfaceMeshGeodesic@easy3d@@AEAAMUVertex@SurfaceMesh@2@00MM@Z
	?distance@SurfaceMeshSimplification@easy3d@@AEBAMUFace@SurfaceMesh@2@AEBV?$Vec@$02M@2@@Z
	?distance_to_texture_coordinates@SurfaceMeshGeodesic@easy3d@@QEAAXXZ
	?do_detect@internal@easy3d@@YAHPEAVPointCloud@2@AEAV3@AEBV?$set@W4PrimType@PrimitivesRansac@easy3d@@U?$less@W4PrimType@PrimitivesRansac@easy3d@@@std@@V?$allocator@W4PrimType@PrimitivesRansac@easy3d@@@5@@std@@AEAV?$vector@UPlanePrim@PrimitivesRansac@easy3d@@V?$allocator@UPlanePrim@PrimitivesRansac@easy3d@@@std@@@5@AEAV?$vector@UCylinderPrim@PrimitivesRansac@easy3d@@V?$allocator@UCylinderPrim@PrimitivesRansac@easy3d@@@std@@@5@IMMMM@Z
	?dodecahedron@SurfaceMeshFactory@easy3d@@SA?AVSurfaceMesh@2@XZ
	?dot@?$ChildIntegrator@$01$01@FunctionIntegrator@?$BSplineIntegrationData@$01$01$01$01@@QEBANHHHH@Z
	?dot@?$Integrator@$01$01@FunctionIntegrator@?$BSplineIntegrationData@$01$01$01$01@@QEBANHHHH@Z
	?downheap@?$Heap@UVertex@SurfaceMesh@easy3d@@VHeapInterface@SurfaceMeshSimplification@3@@easy3d@@AEAAXI@Z
	?dual@geom@easy3d@@YAXPEAVSurfaceMesh@2@@Z
	?edgeIndices@SliceTableData@SortedTreeNodes@@QEAAAEAU?$_Indices@$03@2@H@Z
	?edgeIndices@SliceTableData@SortedTreeNodes@@QEAAAEAU?$_Indices@$03@2@PEBV?$OctNode@VTreeNodeData@@@@@Z
	?edgeIndices@SliceTableData@SortedTreeNodes@@QEBAAEBU?$_Indices@$03@2@H@Z
	?edgeIndices@SliceTableData@SortedTreeNodes@@QEBAAEBU?$_Indices@$03@2@PEBV?$OctNode@VTreeNodeData@@@@@Z
	?edgeIndices@XSliceTableData@SortedTreeNodes@@QEAAAEAU?$_Indices@$03@2@H@Z
	?edgeIndices@XSliceTableData@SortedTreeNodes@@QEAAAEAU?$_Indices@$03@2@PEBV?$OctNode@VTreeNodeData@@@@@Z
	?edgeIndices@XSliceTableData@SortedTreeNodes@@QEBAAEBU?$_Indices@$03@2@H@Z
	?edgeIndices@XSliceTableData@SortedTreeNodes@@QEBAAEBU?$_Indices@$03@2@PEBV?$OctNode@VTreeNodeData@@@@@Z
	?edges@SurfaceMesh@easy3d@@QEBA?AVEdgeContainer@12@XZ
	?empty_clone@?$PropertyArray@D@easy3d@@UEBAPEAVBasePropertyArray@2@XZ
	?empty_clone@?$PropertyArray@E@easy3d@@UEBAPEAVBasePropertyArray@2@XZ
	?empty_clone@?$PropertyArray@H@easy3d@@UEBAPEAVBasePropertyArray@2@XZ
	?empty_clone@?$PropertyArray@I@easy3d@@UEBAPEAVBasePropertyArray@2@XZ
	?empty_clone@?$PropertyArray@M@easy3d@@UEBAPEAVBasePropertyArray@2@XZ
	?empty_clone@?$PropertyArray@N@easy3d@@UEBAPEAVBasePropertyArray@2@XZ
	?empty_clone@?$PropertyArray@UFace@SurfaceMesh@easy3d@@@easy3d@@UEBAPEAVBasePropertyArray@2@XZ
	?empty_clone@?$PropertyArray@UHalfedge@SurfaceMesh@easy3d@@@easy3d@@UEBAPEAVBasePropertyArray@2@XZ
	?empty_clone@?$PropertyArray@UVertex@SurfaceMesh@easy3d@@@easy3d@@UEBAPEAVBasePropertyArray@2@XZ
	?empty_clone@?$PropertyArray@V?$Vec@$01M@easy3d@@@easy3d@@UEBAPEAVBasePropertyArray@2@XZ
	?empty_clone@?$PropertyArray@V?$Vec@$01N@easy3d@@@easy3d@@UEBAPEAVBasePropertyArray@2@XZ
	?empty_clone@?$PropertyArray@V?$Vec@$02M@easy3d@@@easy3d@@UEBAPEAVBasePropertyArray@2@XZ
	?empty_clone@?$PropertyArray@V?$Vec@$02N@easy3d@@@easy3d@@UEBAPEAVBasePropertyArray@2@XZ
	?empty_clone@?$PropertyArray@V?$vector@V?$Vec@$02M@easy3d@@V?$allocator@V?$Vec@$02M@easy3d@@@std@@@std@@@easy3d@@UEBAPEAVBasePropertyArray@2@XZ
	?empty_clone@?$PropertyArray@VNormalCone@easy3d@@@easy3d@@UEBAPEAVBasePropertyArray@2@XZ
	?empty_clone@?$PropertyArray@VQuadric@easy3d@@@easy3d@@UEBAPEAVBasePropertyArray@2@XZ
	?empty_clone@?$PropertyArray@_K@easy3d@@UEBAPEAVBasePropertyArray@2@XZ
	?empty_clone@?$PropertyArray@_N@easy3d@@UEBAPEAVBasePropertyArray@2@XZ
	?end@?$PrincipalAxes@$02N@easy3d@@QEAAXXZ
	?endCallback@Tessellator@easy3d@@CAXPEAX@Z
	?end_contour@Tessellator@easy3d@@QEAAXXZ
	?end_polygon@Tessellator@easy3d@@QEAAXXZ
	?enqueue_vertex@SurfaceMeshSimplification@easy3d@@AEAAXUVertex@SurfaceMesh@2@@Z
	?enumerate_connected_components@SurfaceMeshEnumerator@easy3d@@SAHPEAVSurfaceMesh@2@V?$FaceProperty@H@32@@Z
	?enumerate_connected_components@SurfaceMeshEnumerator@easy3d@@SAHPEAVSurfaceMesh@2@V?$VertexProperty@H@32@@Z
	?enumerate_planar_components@SurfaceMeshEnumerator@easy3d@@SAHPEAVSurfaceMesh@2@V?$FaceProperty@H@32@M@Z
	?erase@?$vector@_NV?$allocator@_N@std@@@std@@QEAA?AV?$_Vb_iterator@U?$_Wrap_alloc@V?$allocator@I@std@@@std@@@2@V?$_Vb_const_iterator@U?$_Wrap_alloc@V?$allocator@I@std@@@std@@@2@0@Z
	?estimate@PointCloudNormals@easy3d@@SA_NPEAVPointCloud@2@I_N@Z
	?euler_poincare@SurfaceMeshTopology@easy3d@@QEBAHXZ
	?explicit_smoothing@SurfaceMeshSmoothing@easy3d@@QEAAXI_N@Z
	?extract@SurfaceMeshComponent@easy3d@@SA?AV12@PEAVSurfaceMesh@2@UFace@32@@Z
	?extract@SurfaceMeshComponent@easy3d@@SA?AV12@PEAVSurfaceMesh@2@UVertex@32@@Z
	?extract@SurfaceMeshComponent@easy3d@@SA?AV?$vector@VSurfaceMeshComponent@easy3d@@V?$allocator@VSurfaceMeshComponent@easy3d@@@std@@@std@@PEAVSurfaceMesh@2@_N@Z
	?extract_boundary_loop@SurfaceMeshPolygonization@easy3d@@AEAA?AV?$vector@V?$vector@UHalfedge@SurfaceMesh@easy3d@@V?$allocator@UHalfedge@SurfaceMesh@easy3d@@@std@@@std@@V?$allocator@V?$vector@UHalfedge@SurfaceMesh@easy3d@@V?$allocator@UHalfedge@SurfaceMesh@easy3d@@@std@@@std@@@2@@std@@PEBVSurfaceMesh@2@HAEAV?$set@UHalfedge@SurfaceMesh@easy3d@@U?$less@UHalfedge@SurfaceMesh@easy3d@@@std@@V?$allocator@UHalfedge@SurfaceMesh@easy3d@@@5@@4@@Z
	?extract_minimum_spanning_tree@internal@easy3d@@YAXAEBVRiemannianGraph@12@AEAVMST_Graph@12@@Z
	?extrude@easy3d@@YAPEAVSurfaceMesh@1@AEBV?$vector@V?$GenericPolygon@M@easy3d@@V?$allocator@V?$GenericPolygon@M@easy3d@@@std@@@std@@M@Z
	?extrude@easy3d@@YA_NPEAVSurfaceMesh@1@AEBV?$vector@V?$GenericPolygon@M@easy3d@@V?$allocator@V?$GenericPolygon@M@easy3d@@@std@@@std@@M@Z
	?faceIndices@SliceTableData@SortedTreeNodes@@QEAAAEAU?$_Indices@$00@2@H@Z
	?faceIndices@SliceTableData@SortedTreeNodes@@QEAAAEAU?$_Indices@$00@2@PEBV?$OctNode@VTreeNodeData@@@@@Z
	?faceIndices@SliceTableData@SortedTreeNodes@@QEBAAEBU?$_Indices@$00@2@H@Z
	?faceIndices@SliceTableData@SortedTreeNodes@@QEBAAEBU?$_Indices@$00@2@PEBV?$OctNode@VTreeNodeData@@@@@Z
	?faceIndices@XSliceTableData@SortedTreeNodes@@QEAAAEAU?$_Indices@$03@2@H@Z
	?faceIndices@XSliceTableData@SortedTreeNodes@@QEAAAEAU?$_Indices@$03@2@PEBV?$OctNode@VTreeNodeData@@@@@Z
	?faceIndices@XSliceTableData@SortedTreeNodes@@QEBAAEBU?$_Indices@$03@2@H@Z
	?faceIndices@XSliceTableData@SortedTreeNodes@@QEBAAEBU?$_Indices@$03@2@PEBV?$OctNode@VTreeNodeData@@@@@Z
	?faces@SurfaceMesh@easy3d@@QEBA?AVFaceAroundVertexCirculator@12@UVertex@12@@Z
	?faces@SurfaceMesh@easy3d@@QEBA?AVFaceContainer@12@XZ
	?facet_normal@Delaunay3@easy3d@@QEBA?AV?$Vec@$02M@2@II@Z
	?fair@SurfaceMeshFairing@easy3d@@QEAAXI@Z
	?fairing@SurfaceMeshHoleFilling@easy3d@@AEAAXXZ
	?fill_hole@SurfaceMeshHoleFilling@easy3d@@QEAA_NUHalfedge@SurfaceMesh@2@@Z
	?find_or_create@VertexManager@internal@easy3d@@QEAAPEAUVertex@Tessellator@3@AEBU453@@Z
	?find_top_vertex@internal@easy3d@@YAXPEAVPointCloud@2@AEAVRiemannianGraph@12@@Z
	?find_virtual_edges@SurfaceMeshGeodesic@easy3d@@AEAAXXZ
	?flip_edges@SurfaceMeshHoleFilling@easy3d@@AEAAXXZ
	?flip_edges@SurfaceMeshRemeshing@easy3d@@AEAAXXZ
	?generate@TextMesher@easy3d@@QEAAPEAVSurfaceMesh@2@AEBV?$basic_string@DU?$char_traits@D@std@@V?$allocator@D@2@@std@@MMHM_N@Z
	?generate@TextMesher@easy3d@@QEAA_NAEBV?$basic_string@DU?$char_traits@D@std@@V?$allocator@D@2@@std@@MMHAEAV?$vector@V?$vector@V?$GenericPolygon@M@easy3d@@V?$allocator@V?$GenericPolygon@M@easy3d@@@std@@@std@@V?$allocator@V?$vector@V?$GenericPolygon@M@easy3d@@V?$allocator@V?$GenericPolygon@M@easy3d@@@std@@@std@@@2@@4@_N@Z
	?generate@TextMesher@easy3d@@QEAA_NPEAVSurfaceMesh@2@AEBV?$basic_string@DU?$char_traits@D@std@@V?$allocator@D@2@@std@@MMHM_N@Z
	?getNeighbors@?$ConstNeighborKey@$00$00@?$OctNode@VTreeNodeData@@@@QEAAAEAU?$ConstNeighbors@$02@2@PEBV2@@Z
	?getNeighbors@?$ConstNeighborKey@$0A@$00@?$OctNode@VTreeNodeData@@@@QEAAAEAU?$ConstNeighbors@$01@2@PEBV2@@Z
	?getSolutions@?$Polynomial@$01@@QEBAHNPEANN@Z
	?get_deleter@?$sp_counted_impl_pd@PEAEU?$checked_array_deleter@E@checked_deleters@boost@@@detail@boost@@UEAAPEAXAEBVtype_info@@@Z
	?get_deleter@?$sp_counted_impl_pd@PEAW4default_color_type@boost@@U?$checked_array_deleter@W4default_color_type@boost@@@checked_deleters@2@@detail@boost@@UEAAPEAXAEBVtype_info@@@Z
	?get_local_deleter@?$sp_counted_impl_pd@PEAEU?$checked_array_deleter@E@checked_deleters@boost@@@detail@boost@@UEAAPEAXAEBVtype_info@@@Z
	?get_local_deleter@?$sp_counted_impl_pd@PEAW4default_color_type@boost@@U?$checked_array_deleter@W4default_color_type@boost@@@checked_deleters@2@@detail@boost@@UEAAPEAXAEBVtype_info@@@Z
	?get_neighbors@Delaunay@easy3d@@UEBAXIAEAV?$vector@IV?$allocator@I@std@@@std@@@Z
	?get_neighbors_internal@Delaunay@easy3d@@IEBAXIAEAV?$vector@IV?$allocator@I@std@@@std@@@Z
	?get_untyped_deleter@?$sp_counted_impl_pd@PEAEU?$checked_array_deleter@E@checked_deleters@boost@@@detail@boost@@UEAAPEAXXZ
	?get_untyped_deleter@?$sp_counted_impl_pd@PEAW4default_color_type@boost@@U?$checked_array_deleter@W4default_color_type@boost@@@checked_deleters@2@@detail@boost@@UEAAPEAXXZ
	?get_voronoi_cell@Delaunay3@easy3d@@QEBAXIAEAVVoronoiCell3d@2@_N@Z
	?get_voronoi_facet@Delaunay3@easy3d@@IEBAXAEAVVoronoiCell3d@2@III_N@Z
	?grid_simplification@PointCloudSimplification@easy3d@@SA?AV?$vector@UVertex@PointCloud@easy3d@@V?$allocator@UVertex@PointCloud@easy3d@@@std@@@std@@PEAVPointCloud@2@M@Z
	?halfedges@SurfaceMesh@easy3d@@QEBA?AVHalfedgeContainer@12@XZ
	?harmonic@SurfaceMeshParameterization@easy3d@@QEAAX_N@Z
	?heap_vertex@SurfaceMeshGeodesic@easy3d@@AEAAXUVertex@SurfaceMesh@2@@Z
	?hexahedron@SurfaceMeshFactory@easy3d@@SA?AVSurfaceMesh@2@XZ
	?hole_vertex@SurfaceMeshHoleFilling@easy3d@@AEBA?AUVertex@SurfaceMesh@2@I@Z
	?icosahedron@SurfaceMeshFactory@easy3d@@SA?AVSurfaceMesh@2@XZ
	?icosphere@SurfaceMeshFactory@easy3d@@SA?AVSurfaceMesh@2@_K@Z
	?implicit_smoothing@SurfaceMeshSmoothing@easy3d@@QEAAXM_N0@Z
	?increasing_sort@?$EigenSolver@N@easy3d@@CAXHPEANPEAPEAN@Z
	?index@Delaunay@easy3d@@QEBAIIH@Z
	?initChildren@?$OctNode@VTreeNodeData@@@@QEAAHP6AXAEAV1@@Z@Z
	?init_front@SurfaceMeshGeodesic@easy3d@@AEAAIAEBV?$vector@UVertex@SurfaceMesh@easy3d@@V?$allocator@UVertex@SurfaceMesh@easy3d@@@std@@@std@@PEAV34@@Z
	?initialize@SurfaceMeshSimplification@easy3d@@QEAAXMMIMM@Z
	?initialize@tetgenio@@QEAAXXZ
	?insert_edge@SurfaceMeshTriangulation@easy3d@@AEAA_NHH@Z
	?integral@?$Polynomial@$00@@QEBA?AV?$Polynomial@$01@@XZ
	?integral@?$Polynomial@$00@@QEBANNN@Z
	?integral@?$Polynomial@$01@@QEBANNN@Z
	?integral@?$Polynomial@$02@@QEBANNN@Z
	?integral@?$Polynomial@$03@@QEBANNN@Z
	?integral@?$Polynomial@$0A@@@QEBA?AV?$Polynomial@$00@@XZ
	?integral@?$Polynomial@$0A@@@QEBANNN@Z
	?internal_apply@SurfaceMeshPolygonization@easy3d@@AEAAXPEAVSurfaceMesh@2@M@Z
	?intersection_of@csg@easy3d@@YAXAEBV?$GenericPolygon@M@2@0AEAV?$vector@V?$GenericPolygon@M@easy3d@@V?$allocator@V?$GenericPolygon@M@easy3d@@@std@@@std@@@Z
	?inverse@?$XForm4x4@M@@QEBA?AU1@XZ
	?isValidSpaceNode@?$Octree@M@@QEBA_NPEBV?$OctNode@VTreeNodeData@@@@@Z
	?is_clockwise@?$GenericPolygon@M@easy3d@@QEBA_NXZ
	?is_collapse_legal@SurfaceMeshSimplification@easy3d@@AEAA_NAEBUCollapseData@12@@Z
	?is_edge@SurfaceMeshTriangulation@easy3d@@AEBA_NUVertex@SurfaceMesh@2@0@Z
	?is_interior_edge@SurfaceMeshHoleFilling@easy3d@@AEBA_NUVertex@SurfaceMesh@2@0@Z
	?laplace@geom@easy3d@@YA?AV?$Vec@$02M@2@PEBVSurfaceMesh@2@UVertex@42@@Z
	?leaf@?$Octree@M@@QEBAPEBV?$OctNode@VTreeNodeData@@@@U?$Point3D@M@@@Z
	?leaves@?$OctNode@VTreeNodeData@@@@QEBA_KXZ
	?lexicographically_smaller@SurfaceMeshStitching@easy3d@@AEBA_NAEBV?$Vec@$02M@2@0@Z
	?loop@SurfaceMeshSubdivision@easy3d@@SA_NPEAVSurfaceMesh@2@@Z
	?lscm@SurfaceMeshParameterization@easy3d@@QEAAXXZ
	?matched_border@SurfaceMeshStitching@easy3d@@AEBA?AUHalfedge@SurfaceMesh@2@U342@M@Z
	?maxDepth@?$OctNode@VTreeNodeData@@@@QEBAHXZ
	?max_coord@?$GenericBox@$02M@easy3d@@QEBAMI@Z
	?memoryUsage@?$Octree@M@@QEAANXZ
	?merge@NormalCone@easy3d@@QEAAAEAV12@AEBV12@@Z
	?merge_colinear_edges@SurfaceMeshPolygonization@easy3d@@QEAAXPEAVSurfaceMesh@2@M@Z
	?min_coord@?$GenericBox@$02M@easy3d@@QEBAMI@Z
	?minimize_squared_areas@SurfaceMeshRemeshing@easy3d@@AEAA?AV?$Vec@$02M@2@UVertex@SurfaceMesh@2@@Z
	?nearest@TriangleMeshKdTree@easy3d@@QEBA?AUNearestNeighbor@12@AEBV?$Vec@$02M@2@@Z
	?nearest_recurse@TriangleMeshKdTree@easy3d@@AEBAXPEAUNode@12@AEBV?$Vec@$02M@2@AEAUNearestNeighbor@12@@Z
	?nearest_vertex@Delaunay2@easy3d@@UEBAIPEBM@Z
	?nearest_vertex@Delaunay3@easy3d@@UEBAIPEBM@Z
	?nearest_vertex@Delaunay@easy3d@@UEBAIPEBM@Z
	?newElements@?$Allocator@V?$OctNode@VTreeNodeData@@@@@@QEAAPEAV?$OctNode@VTreeNodeData@@@@H@Z
	?nextBranch@?$OctNode@VTreeNodeData@@@@QEAAPEAV1@PEAV1@@Z
	?nextBranch@?$OctNode@VTreeNodeData@@@@QEBAPEBV1@PEBV1@@Z
	?nextNode@?$OctNode@VTreeNodeData@@@@QEAAPEAV1@PEAV1@@Z
	?nextNode@?$OctNode@VTreeNodeData@@@@QEBAPEBV1@PEBV1@@Z
	?nextOutOfCorePoint@?$CoredFileMeshData@V?$PlyColorAndValueVertex@M@@@@UEAAHAEAV?$PlyColorAndValueVertex@M@@@Z
	?nextPolygon@?$CoredFileMeshData@V?$PlyColorAndValueVertex@M@@@@UEAAHAEAV?$vector@UCoredVertexIndex@@V?$allocator@UCoredVertexIndex@@@std@@@std@@@Z
	?nonZeros@?$SparseCompressedBase@V?$SparseMatrix@N$0A@H@Eigen@@@Eigen@@QEBA_JXZ
	?normal@?$GenericPlane@M@easy3d@@QEBA?AV?$Vec@$02M@2@XZ
	?octahedron@SurfaceMeshFactory@easy3d@@SA?AVSurfaceMesh@2@XZ
	?omp_get_num_procs@@YAHXZ
	?omp_get_thread_num@@YAHXZ
	?opposite_vertex@SurfaceMeshHoleFilling@easy3d@@AEBA?AUVertex@SurfaceMesh@2@I@Z
	?ordering@?$SimplicialCholeskyBase@V?$SimplicialLDLT@V?$SparseMatrix@N$0A@H@Eigen@@$00V?$AMDOrdering@H@2@@Eigen@@@Eigen@@IEAAXAEBV?$SparseMatrix@N$0A@H@2@AEAPEBV32@AEAV32@@Z
	?other@internal@easy3d@@YAIIII@Z
	?other_in_face@Delaunay3@easy3d@@KAIIII@Z
	?outOfCorePointCount@?$CoredFileMeshData@V?$PlyColorAndValueVertex@M@@@@UEAAHXZ
	?overflow@?$basic_stringbuf@DU?$char_traits@D@std@@V?$allocator@D@2@@std@@MEAAHH@Z
	?pbackfail@?$basic_stringbuf@DU?$char_traits@D@std@@V?$allocator@D@2@@std@@MEAAHH@Z
	?plane@SurfaceMeshFactory@easy3d@@SA?AVSurfaceMesh@2@_K@Z
	?points@SurfaceMesh@easy3d@@$4PPPPPPPM@A@EAAAEAV?$vector@V?$Vec@$02M@easy3d@@V?$allocator@V?$Vec@$02M@easy3d@@@std@@@std@@XZ
	?points@SurfaceMesh@easy3d@@$4PPPPPPPM@A@EBAAEBV?$vector@V?$Vec@$02M@easy3d@@V?$allocator@V?$Vec@$02M@easy3d@@@std@@@std@@XZ
	?points@SurfaceMesh@easy3d@@UEAAAEAV?$vector@V?$Vec@$02M@easy3d@@V?$allocator@V?$Vec@$02M@easy3d@@@std@@@std@@XZ
	?points@SurfaceMesh@easy3d@@UEBAAEBV?$vector@V?$Vec@$02M@easy3d@@V?$allocator@V?$Vec@$02M@easy3d@@@std@@@std@@XZ
	?polygonCount@?$CoredFileMeshData@V?$PlyColorAndValueVertex@M@@@@UEAAHXZ
	?postprocess_collapse@SurfaceMeshSimplification@easy3d@@AEAAXAEBUCollapseData@12@@Z
	?postprocessing@SurfaceMeshRemeshing@easy3d@@AEAAXXZ
	?preprocessing@SurfaceMeshRemeshing@easy3d@@AEAAXXZ
	?preserve_heap_property_down@?$d_ary_heap_indirect@_K$03V?$iterator_property_map@PEA_KU?$vec_adj_list_vertex_id_map@UVertexProperty@internal@easy3d@@_K@boost@@_KAEA_K@boost@@V?$iterator_property_map@V?$_Vector_iterator@V?$_Vector_val@U?$_Simple_types@M@std@@@std@@@std@@U?$vec_adj_list_vertex_id_map@UVertexProperty@internal@easy3d@@_K@boost@@MAEAM@2@U?$less@M@std@@V?$vector@_KV?$allocator@_K@std@@@5@@boost@@AEAAXXZ
	?preserve_heap_property_up@?$d_ary_heap_indirect@_K$03V?$iterator_property_map@PEA_KU?$vec_adj_list_vertex_id_map@UVertexProperty@internal@easy3d@@_K@boost@@_KAEA_K@boost@@V?$iterator_property_map@V?$_Vector_iterator@V?$_Vector_val@U?$_Simple_types@M@std@@@std@@@std@@U?$vec_adj_list_vertex_id_map@UVertexProperty@internal@easy3d@@_K@boost@@MAEAM@2@U?$less@M@std@@V?$vector@_KV?$allocator@_K@std@@@5@@boost@@AEAAX_K@Z
	?print@?$OctreeProfiler@M@easy3d@@QEBAXPEBD@Z
	?priority@SurfaceMeshSimplification@easy3d@@AEAAMAEBUCollapseData@12@@Z
	?project_to_reference@SurfaceMeshRemeshing@easy3d@@AEAAXUVertex@SurfaceMesh@2@@Z
	?project_to_unit_sphere@internal@easy3d@@YAXAEAVSurfaceMesh@2@@Z
	?propagate_connected_component@SurfaceMeshEnumerator@easy3d@@SAXPEAVSurfaceMesh@2@V?$FaceProperty@H@32@UFace@32@H@Z
	?propagate_connected_component@SurfaceMeshEnumerator@easy3d@@SAXPEAVSurfaceMesh@2@V?$VertexProperty@H@32@UVertex@32@H@Z
	?propagate_front@SurfaceMeshGeodesic@easy3d@@AEAAIMIPEAV?$vector@UVertex@SurfaceMesh@easy3d@@V?$allocator@UVertex@SurfaceMesh@easy3d@@@std@@@std@@@Z
	?propagate_normal@internal@easy3d@@YAXV?$edge_desc_impl@Udirected_tag@boost@@_K@detail@boost@@AEAVMST_Graph@12@@Z
	?propagate_planar_component@SurfaceMeshEnumerator@easy3d@@SAXPEAVSurfaceMesh@2@V?$FaceProperty@H@32@UFace@32@HM@Z
	?properties@PropertyContainer@easy3d@@QEBA?AV?$vector@V?$basic_string@DU?$char_traits@D@std@@V?$allocator@D@2@@std@@V?$allocator@V?$basic_string@DU?$char_traits@D@std@@V?$allocator@D@2@@std@@@2@@std@@XZ
	?property_stats@SurfaceMesh@easy3d@@$4PPPPPPPM@A@EBAXAEAV?$basic_ostream@DU?$char_traits@D@std@@@std@@@Z
	?push_back@?$PropertyArray@D@easy3d@@UEAAXXZ
	?push_back@?$PropertyArray@E@easy3d@@UEAAXXZ
	?push_back@?$PropertyArray@H@easy3d@@UEAAXXZ
	?push_back@?$PropertyArray@I@easy3d@@UEAAXXZ
	?push_back@?$PropertyArray@M@easy3d@@UEAAXXZ
	?push_back@?$PropertyArray@N@easy3d@@UEAAXXZ
	?push_back@?$PropertyArray@UFace@SurfaceMesh@easy3d@@@easy3d@@UEAAXXZ
	?push_back@?$PropertyArray@UHalfedge@SurfaceMesh@easy3d@@@easy3d@@UEAAXXZ
	?push_back@?$PropertyArray@UVertex@SurfaceMesh@easy3d@@@easy3d@@UEAAXXZ
	?push_back@?$PropertyArray@V?$Vec@$01M@easy3d@@@easy3d@@UEAAXXZ
	?push_back@?$PropertyArray@V?$Vec@$01N@easy3d@@@easy3d@@UEAAXXZ
	?push_back@?$PropertyArray@V?$Vec@$02M@easy3d@@@easy3d@@UEAAXXZ
	?push_back@?$PropertyArray@V?$Vec@$02N@easy3d@@@easy3d@@UEAAXXZ
	?push_back@?$PropertyArray@V?$vector@V?$Vec@$02M@easy3d@@V?$allocator@V?$Vec@$02M@easy3d@@@std@@@std@@@easy3d@@UEAAXXZ
	?push_back@?$PropertyArray@VNormalCone@easy3d@@@easy3d@@UEAAXXZ
	?push_back@?$PropertyArray@VQuadric@easy3d@@@easy3d@@UEAAXXZ
	?push_back@?$PropertyArray@_K@easy3d@@UEAAXXZ
	?push_back@?$PropertyArray@_N@easy3d@@UEAAXXZ
	?push_back@?$vector@V?$GenericPolygon@M@easy3d@@V?$allocator@V?$GenericPolygon@M@easy3d@@@std@@@std@@QEAAXAEBV?$GenericPolygon@M@easy3d@@@Z
	?push_back@?$vector@_NV?$allocator@_N@std@@@std@@QEAAXAEB_N@Z
	?ql_algorithm@?$EigenSolver@N@easy3d@@CA_NHPEAN0PEAPEAN@Z
	?quad_sphere@SurfaceMeshFactory@easy3d@@SA?AVSurfaceMesh@2@_K@Z
	?reallocate@?$CompressedStorage@NH@internal@Eigen@@IEAAX_J@Z
	?refine@SurfaceMeshHoleFilling@easy3d@@AEAAXXZ
	?relaxation@SurfaceMeshHoleFilling@easy3d@@AEAAXXZ
	?remapIndices@?$SparseNodeData@M$01@@QEAAXAEBV?$vector@HV?$allocator@H@std@@@std@@@Z
	?remapIndices@?$SparseNodeData@U?$Point3D@M@@$01@@QEAAXAEBV?$vector@HV?$allocator@H@std@@@std@@@Z
	?remove_caps@SurfaceMeshRemeshing@easy3d@@AEAAXXZ
	?remove_primitive_type@PrimitivesRansac@easy3d@@QEAAXW4PrimType@12@@Z
	?reorient@PointCloudNormals@easy3d@@SA_NPEAVPointCloud@2@I@Z
	?reserve@?$PropertyArray@D@easy3d@@UEAAX_K@Z
	?reserve@?$PropertyArray@E@easy3d@@UEAAX_K@Z
	?reserve@?$PropertyArray@H@easy3d@@UEAAX_K@Z
	?reserve@?$PropertyArray@I@easy3d@@UEAAX_K@Z
	?reserve@?$PropertyArray@M@easy3d@@UEAAX_K@Z
	?reserve@?$PropertyArray@N@easy3d@@UEAAX_K@Z
	?reserve@?$PropertyArray@UFace@SurfaceMesh@easy3d@@@easy3d@@UEAAX_K@Z
	?reserve@?$PropertyArray@UHalfedge@SurfaceMesh@easy3d@@@easy3d@@UEAAX_K@Z
	?reserve@?$PropertyArray@UVertex@SurfaceMesh@easy3d@@@easy3d@@UEAAX_K@Z
	?reserve@?$PropertyArray@V?$Vec@$01M@easy3d@@@easy3d@@UEAAX_K@Z
	?reserve@?$PropertyArray@V?$Vec@$01N@easy3d@@@easy3d@@UEAAX_K@Z
	?reserve@?$PropertyArray@V?$Vec@$02M@easy3d@@@easy3d@@UEAAX_K@Z
	?reserve@?$PropertyArray@V?$Vec@$02N@easy3d@@@easy3d@@UEAAX_K@Z
	?reserve@?$PropertyArray@V?$vector@V?$Vec@$02M@easy3d@@V?$allocator@V?$Vec@$02M@easy3d@@@std@@@std@@@easy3d@@UEAAX_K@Z
	?reserve@?$PropertyArray@VNormalCone@easy3d@@@easy3d@@UEAAX_K@Z
	?reserve@?$PropertyArray@VQuadric@easy3d@@@easy3d@@UEAAX_K@Z
	?reserve@?$PropertyArray@_K@easy3d@@UEAAX_K@Z
	?reserve@?$PropertyArray@_N@easy3d@@UEAAX_K@Z
	?reset@?$Allocator@V?$OctNode@VTreeNodeData@@@@@@QEAAXXZ
	?reset@?$PropertyArray@D@easy3d@@UEAAX_K@Z
	?reset@?$PropertyArray@E@easy3d@@UEAAX_K@Z
	?reset@?$PropertyArray@H@easy3d@@UEAAX_K@Z
	?reset@?$PropertyArray@I@easy3d@@UEAAX_K@Z
	?reset@?$PropertyArray@M@easy3d@@UEAAX_K@Z
	?reset@?$PropertyArray@N@easy3d@@UEAAX_K@Z
	?reset@?$PropertyArray@UFace@SurfaceMesh@easy3d@@@easy3d@@UEAAX_K@Z
	?reset@?$PropertyArray@UHalfedge@SurfaceMesh@easy3d@@@easy3d@@UEAAX_K@Z
	?reset@?$PropertyArray@UVertex@SurfaceMesh@easy3d@@@easy3d@@UEAAX_K@Z
	?reset@?$PropertyArray@V?$Vec@$01M@easy3d@@@easy3d@@UEAAX_K@Z
	?reset@?$PropertyArray@V?$Vec@$01N@easy3d@@@easy3d@@UEAAX_K@Z
	?reset@?$PropertyArray@V?$Vec@$02M@easy3d@@@easy3d@@UEAAX_K@Z
	?reset@?$PropertyArray@V?$Vec@$02N@easy3d@@@easy3d@@UEAAX_K@Z
	?reset@?$PropertyArray@V?$vector@V?$Vec@$02M@easy3d@@V?$allocator@V?$Vec@$02M@easy3d@@@std@@@std@@@easy3d@@UEAAX_K@Z
	?reset@?$PropertyArray@VNormalCone@easy3d@@@easy3d@@UEAAX_K@Z
	?reset@?$PropertyArray@VQuadric@easy3d@@@easy3d@@UEAAX_K@Z
	?reset@?$PropertyArray@_K@easy3d@@UEAAX_K@Z
	?reset@?$PropertyArray@_N@easy3d@@UEAAX_K@Z
	?reset@?$_SliceValues@V?$PlyColorAndValueVertex@M@@@?$Octree@M@@QEAAX_N@Z
	?reset@?$_XSliceValues@V?$PlyColorAndValueVertex@M@@@?$Octree@M@@QEAAXXZ
	?reset@Tessellator@easy3d@@QEAAXXZ
	?resetIterator@?$CoredFileMeshData@V?$PlyColorAndValueVertex@M@@@@UEAAXXZ
	?resize@?$DenseStorage@N$0?0$0?0$0?0$0A@@Eigen@@QEAAX_J00@Z
	?resize@?$PropertyArray@D@easy3d@@UEAAX_K@Z
	?resize@?$PropertyArray@E@easy3d@@UEAAX_K@Z
	?resize@?$PropertyArray@H@easy3d@@UEAAX_K@Z
	?resize@?$PropertyArray@I@easy3d@@UEAAX_K@Z
	?resize@?$PropertyArray@M@easy3d@@UEAAX_K@Z
	?resize@?$PropertyArray@N@easy3d@@UEAAX_K@Z
	?resize@?$PropertyArray@UFace@SurfaceMesh@easy3d@@@easy3d@@UEAAX_K@Z
	?resize@?$PropertyArray@UHalfedge@SurfaceMesh@easy3d@@@easy3d@@UEAAX_K@Z
	?resize@?$PropertyArray@UVertex@SurfaceMesh@easy3d@@@easy3d@@UEAAX_K@Z
	?resize@?$PropertyArray@V?$Vec@$01M@easy3d@@@easy3d@@UEAAX_K@Z
	?resize@?$PropertyArray@V?$Vec@$01N@easy3d@@@easy3d@@UEAAX_K@Z
	?resize@?$PropertyArray@V?$Vec@$02M@easy3d@@@easy3d@@UEAAX_K@Z
	?resize@?$PropertyArray@V?$Vec@$02N@easy3d@@@easy3d@@UEAAX_K@Z
	?resize@?$PropertyArray@V?$vector@V?$Vec@$02M@easy3d@@V?$allocator@V?$Vec@$02M@easy3d@@@std@@@std@@@easy3d@@UEAAX_K@Z
	?resize@?$PropertyArray@VNormalCone@easy3d@@@easy3d@@UEAAX_K@Z
	?resize@?$PropertyArray@VQuadric@easy3d@@@easy3d@@UEAAX_K@Z
	?resize@?$PropertyArray@_K@easy3d@@UEAAX_K@Z
	?resize@?$PropertyArray@_N@easy3d@@UEAAX_K@Z
	?resize@?$SparseMatrix@N$0A@H@Eigen@@QEAAX_J0@Z
	?resize@?$Vector@UPoint@@V?$AlignedAllocator@UPoint@@$07@MiscLib@@@MiscLib@@QEAAX_KAEBUPoint@@@Z
	?resize@?$vector@HV?$allocator@H@std@@@std@@QEAAX_K@Z
	?resize@?$vector@IV?$allocator@I@std@@@std@@QEAAX_K@Z
	?resize@?$vector@UVertex@SurfaceMesh@easy3d@@V?$allocator@UVertex@SurfaceMesh@easy3d@@@std@@@std@@QEAAX_K@Z
	?resize@?$vector@Ustored_vertex@config@?$adj_list_gen@V?$adjacency_list@UvecS@boost@@U12@UdirectedS@2@UMST_VertexProperty@internal@easy3d@@Uno_property@2@U72@UlistS@2@@boost@@UvecS@2@U32@UdirectedS@2@UMST_VertexProperty@internal@easy3d@@Uno_property@2@U82@UlistS@2@@detail@boost@@V?$allocator@Ustored_vertex@config@?$adj_list_gen@V?$adjacency_list@UvecS@boost@@U12@UdirectedS@2@UMST_VertexProperty@internal@easy3d@@Uno_property@2@U72@UlistS@2@@boost@@UvecS@2@U32@UdirectedS@2@UMST_VertexProperty@internal@easy3d@@Uno_property@2@U82@UlistS@2@@detail@boost@@@std@@@std@@QEAAX_K@Z
	?resize@?$vector@V?$vector@HV?$allocator@H@std@@@std@@V?$allocator@V?$vector@HV?$allocator@H@std@@@std@@@2@@std@@QEAAX_K@Z
	?resize@?$vector@VTriangleIndex@@V?$allocator@VTriangleIndex@@@std@@@std@@QEAAX_K@Z
	?resize@?$vector@_NV?$allocator@_N@std@@@std@@QEAAX_K_N@Z
	?rethrow@?$wrapexcept@Unegative_edge@boost@@@boost@@UEBAXXZ
	?scale@?$Polynomial@$00@@QEBA?AV1@N@Z
	?scale@?$Polynomial@$01@@QEBA?AV1@N@Z
	?seekoff@?$basic_stringbuf@DU?$char_traits@D@std@@V?$allocator@D@2@@std@@MEAA?AV?$fpos@U_Mbstatet@@@2@_JHH@Z
	?seekpos@?$basic_stringbuf@DU?$char_traits@D@std@@V?$allocator@D@2@@std@@MEAA?AV?$fpos@U_Mbstatet@@@2@V32@H@Z
	?set@?$ConstNeighborKey@$00$00@?$OctNode@VTreeNodeData@@@@QEAAXH@Z
	?set@?$ConstNeighborKey@$0A@$00@?$OctNode@VTreeNodeData@@@@QEAAXH@Z
	?set@?$NeighborKey@$00$00@?$OctNode@VTreeNodeData@@@@QEAAXH@Z
	?set@?$NeighborKey@$00$01@?$OctNode@VTreeNodeData@@@@QEAAXH@Z
	?set@?$NeighborKey@$01$01@?$OctNode@VTreeNodeData@@@@QEAAXH@Z
	?set@?$NeighborKey@$0A@$00@?$OctNode@VTreeNodeData@@@@QEAAXH@Z
	?set@?$PPolynomial@$0A@@@QEAAX_K@Z
	?set@?$_Evaluator@$01$01@?$Octree@M@@QEAAXH@Z
	?set@SortedTreeNodes@@QEAAXAEAV?$OctNode@VTreeNodeData@@@@@Z
	?set@SortedTreeNodes@@QEAAXAEAV?$OctNode@VTreeNodeData@@@@PEAV?$vector@HV?$allocator@H@std@@@std@@@Z
	?setSliceTableData@SortedTreeNodes@@QEBAXAEAUSliceTableData@1@HHH@Z
	?setXSliceTableData@SortedTreeNodes@@QEBAXAEAUXSliceTableData@1@HHH@Z
	?setZero@?$SparseMatrix@N$0A@H@Eigen@@QEAAXXZ
	?set_arrays@Delaunay@easy3d@@MEAAXIPEBH0@Z
	?set_boundary_only@Tessellator@easy3d@@QEAAX_N@Z
	?set_font@TextMesher@easy3d@@QEAAXAEBV?$basic_string@DU?$char_traits@D@std@@V?$allocator@D@2@@std@@@Z
	?set_vertices@Delaunay2@easy3d@@UEAAXIPEBM@Z
	?set_vertices@Delaunay3@easy3d@@UEAAXIPEBM@Z
	?set_vertices@Delaunay@easy3d@@UEAAXIPEBM@Z
	?set_winding_rule@Tessellator@easy3d@@QEAAXW4WindingRule@12@@Z
	?setup_boundary_constraints@SurfaceMeshParameterization@easy3d@@AEAA_NXZ
	?setup_lscm_boundary@SurfaceMeshParameterization@easy3d@@AEAA_NXZ
	?setup_matrix_row@SurfaceMeshFairing@easy3d@@AEAAXUVertex@SurfaceMesh@2@V?$VertexProperty@N@42@V?$EdgeProperty@N@42@IAEAV?$map@UVertex@SurfaceMesh@easy3d@@NU?$less@UVertex@SurfaceMesh@easy3d@@@std@@V?$allocator@U?$pair@$$CBUVertex@SurfaceMesh@easy3d@@N@std@@@5@@std@@@Z
	?shift@?$Polynomial@$00@@QEBA?AV1@N@Z
	?shift@?$Polynomial@$01@@QEBA?AV1@N@Z
	?shrink_to_fit@?$PropertyArray@D@easy3d@@UEAAXXZ
	?shrink_to_fit@?$PropertyArray@E@easy3d@@UEAAXXZ
	?shrink_to_fit@?$PropertyArray@H@easy3d@@UEAAXXZ
	?shrink_to_fit@?$PropertyArray@I@easy3d@@UEAAXXZ
	?shrink_to_fit@?$PropertyArray@M@easy3d@@UEAAXXZ
	?shrink_to_fit@?$PropertyArray@N@easy3d@@UEAAXXZ
	?shrink_to_fit@?$PropertyArray@UFace@SurfaceMesh@easy3d@@@easy3d@@UEAAXXZ
	?shrink_to_fit@?$PropertyArray@UHalfedge@SurfaceMesh@easy3d@@@easy3d@@UEAAXXZ
	?shrink_to_fit@?$PropertyArray@UVertex@SurfaceMesh@easy3d@@@easy3d@@UEAAXXZ
	?shrink_to_fit@?$PropertyArray@V?$Vec@$01M@easy3d@@@easy3d@@UEAAXXZ
	?shrink_to_fit@?$PropertyArray@V?$Vec@$01N@easy3d@@@easy3d@@UEAAXXZ
	?shrink_to_fit@?$PropertyArray@V?$Vec@$02M@easy3d@@@easy3d@@UEAAXXZ
	?shrink_to_fit@?$PropertyArray@V?$Vec@$02N@easy3d@@@easy3d@@UEAAXXZ
	?shrink_to_fit@?$PropertyArray@V?$vector@V?$Vec@$02M@easy3d@@V?$allocator@V?$Vec@$02M@easy3d@@@std@@@std@@@easy3d@@UEAAXXZ
	?shrink_to_fit@?$PropertyArray@VNormalCone@easy3d@@@easy3d@@UEAAXXZ
	?shrink_to_fit@?$PropertyArray@VQuadric@easy3d@@@easy3d@@UEAAXXZ
	?shrink_to_fit@?$PropertyArray@_K@easy3d@@UEAAXXZ
	?shrink_to_fit@?$PropertyArray@_N@easy3d@@UEAAXXZ
	?simplify@SurfaceMeshSimplification@easy3d@@QEAAXI@Z
	?smooth_curvatures@SurfaceMeshCurvature@easy3d@@AEAAXI@Z
	?solve@?$EigenSolver@N@easy3d@@QEAAXPEAPEANW4SortingMethod@12@@Z
	?split_complex_contour@SurfaceMeshPolygonization@easy3d@@AEBA?AV?$vector@V?$vector@UVertex@SurfaceMesh@easy3d@@V?$allocator@UVertex@SurfaceMesh@easy3d@@@std@@@std@@V?$allocator@V?$vector@UVertex@SurfaceMesh@easy3d@@V?$allocator@UVertex@SurfaceMesh@easy3d@@@std@@@std@@@2@@std@@AEBV?$vector@UVertex@SurfaceMesh@easy3d@@V?$allocator@UVertex@SurfaceMesh@easy3d@@@std@@@4@AEBV34@AEBV?$Vec@$02M@2@PEBVSurfaceMesh@2@@Z
	?split_long_edges@SurfaceMeshHoleFilling@easy3d@@AEAAXM@Z
	?split_long_edges@SurfaceMeshRemeshing@easy3d@@AEAAXXZ
	?sqrt3@SurfaceMeshSubdivision@easy3d@@SA_NPEAVSurfaceMesh@2@@Z
	?squared_distance@SurfaceMeshStitching@easy3d@@AEBAMUHalfedge@SurfaceMesh@2@0@Z
	?start@?$OctreeProfiler@M@easy3d@@QEAAXXZ
	?stbtt_FindSVGDoc@@YAPEAEPEBUstbtt_fontinfo@@H@Z
	?str@?$basic_stringbuf@DU?$char_traits@D@std@@V?$allocator@D@2@@std@@QEBA?AV?$basic_string@DU?$char_traits@D@std@@V?$allocator@D@2@@2@XZ
	?subDeterminant@?$XForm4x4@M@@QEBAMHH@Z
	?surface_area@geom@easy3d@@YAMPEBVSurfaceMesh@2@@Z
	?swap@?$PropertyArray@D@easy3d@@UEAAX_K0@Z
	?swap@?$PropertyArray@E@easy3d@@UEAAX_K0@Z
	?swap@?$PropertyArray@H@easy3d@@UEAAX_K0@Z
	?swap@?$PropertyArray@I@easy3d@@UEAAX_K0@Z
	?swap@?$PropertyArray@M@easy3d@@UEAAX_K0@Z
	?swap@?$PropertyArray@N@easy3d@@UEAAX_K0@Z
	?swap@?$PropertyArray@UFace@SurfaceMesh@easy3d@@@easy3d@@UEAAX_K0@Z
	?swap@?$PropertyArray@UHalfedge@SurfaceMesh@easy3d@@@easy3d@@UEAAX_K0@Z
	?swap@?$PropertyArray@UVertex@SurfaceMesh@easy3d@@@easy3d@@UEAAX_K0@Z
	?swap@?$PropertyArray@V?$Vec@$01M@easy3d@@@easy3d@@UEAAX_K0@Z
	?swap@?$PropertyArray@V?$Vec@$01N@easy3d@@@easy3d@@UEAAX_K0@Z
	?swap@?$PropertyArray@V?$Vec@$02M@easy3d@@@easy3d@@UEAAX_K0@Z
	?swap@?$PropertyArray@V?$Vec@$02N@easy3d@@@easy3d@@UEAAX_K0@Z
	?swap@?$PropertyArray@V?$vector@V?$Vec@$02M@easy3d@@V?$allocator@V?$Vec@$02M@easy3d@@@std@@@std@@@easy3d@@UEAAX_K0@Z
	?swap@?$PropertyArray@VNormalCone@easy3d@@@easy3d@@UEAAX_K0@Z
	?swap@?$PropertyArray@VQuadric@easy3d@@@easy3d@@UEAAX_K0@Z
	?swap@?$PropertyArray@_K@easy3d@@UEAAX_K0@Z
	?swap@?$PropertyArray@_N@easy3d@@UEAAX_K0@Z
	?tangential_smoothing@SurfaceMeshRemeshing@easy3d@@AEAAXI@Z
	?tessellate@csg@easy3d@@YAXAEAV?$vector@V?$GenericPolygon@M@easy3d@@V?$allocator@V?$GenericPolygon@M@easy3d@@@std@@@std@@W4WindingRule@Tessellator@2@@Z
	?tet_circumcenter@Delaunay3@easy3d@@QEBA?AV?$Vec@$02M@2@I@Z
	?tetrahedron@SurfaceMeshFactory@easy3d@@SA?AVSurfaceMesh@2@XZ
	?throw_std_bad_alloc@internal@Eigen@@YAXXZ
	?to_2d@?$GenericPlane@M@easy3d@@QEBA?AV?$Vec@$01M@2@AEBV?$Vec@$02M@2@@Z
	?to_easy3d_poly_mesh@SurfaceMeshTetrehedralization@easy3d@@IEBAPEAVPolyMesh@2@PEAVtetgenio@@@Z
	?to_mesh@SurfaceMeshComponent@easy3d@@QEBAPEAVSurfaceMesh@2@XZ
	?to_tetgen_surface@SurfaceMeshTetrehedralization@easy3d@@IEBAPEAVtetgenio@@PEAVSurfaceMesh@2@@Z
	?torus@SurfaceMeshFactory@easy3d@@SA?AVSurfaceMesh@2@_K0MM@Z
	?transfer@?$PropertyArray@D@easy3d@@UEAA_NAEBVBasePropertyArray@2@@Z
	?transfer@?$PropertyArray@D@easy3d@@UEAA_NAEBVBasePropertyArray@2@_K1@Z
	?transfer@?$PropertyArray@E@easy3d@@UEAA_NAEBVBasePropertyArray@2@@Z
	?transfer@?$PropertyArray@E@easy3d@@UEAA_NAEBVBasePropertyArray@2@_K1@Z
	?transfer@?$PropertyArray@H@easy3d@@UEAA_NAEBVBasePropertyArray@2@@Z
	?transfer@?$PropertyArray@H@easy3d@@UEAA_NAEBVBasePropertyArray@2@_K1@Z
	?transfer@?$PropertyArray@I@easy3d@@UEAA_NAEBVBasePropertyArray@2@@Z
	?transfer@?$PropertyArray@I@easy3d@@UEAA_NAEBVBasePropertyArray@2@_K1@Z
	?transfer@?$PropertyArray@M@easy3d@@UEAA_NAEBVBasePropertyArray@2@@Z
	?transfer@?$PropertyArray@M@easy3d@@UEAA_NAEBVBasePropertyArray@2@_K1@Z
	?transfer@?$PropertyArray@N@easy3d@@UEAA_NAEBVBasePropertyArray@2@@Z
	?transfer@?$PropertyArray@N@easy3d@@UEAA_NAEBVBasePropertyArray@2@_K1@Z
	?transfer@?$PropertyArray@UFace@SurfaceMesh@easy3d@@@easy3d@@UEAA_NAEBVBasePropertyArray@2@@Z
	?transfer@?$PropertyArray@UFace@SurfaceMesh@easy3d@@@easy3d@@UEAA_NAEBVBasePropertyArray@2@_K1@Z
	?transfer@?$PropertyArray@UHalfedge@SurfaceMesh@easy3d@@@easy3d@@UEAA_NAEBVBasePropertyArray@2@@Z
	?transfer@?$PropertyArray@UHalfedge@SurfaceMesh@easy3d@@@easy3d@@UEAA_NAEBVBasePropertyArray@2@_K1@Z
	?transfer@?$PropertyArray@UVertex@SurfaceMesh@easy3d@@@easy3d@@UEAA_NAEBVBasePropertyArray@2@@Z
	?transfer@?$PropertyArray@UVertex@SurfaceMesh@easy3d@@@easy3d@@UEAA_NAEBVBasePropertyArray@2@_K1@Z
	?transfer@?$PropertyArray@V?$Vec@$01M@easy3d@@@easy3d@@UEAA_NAEBVBasePropertyArray@2@@Z
	?transfer@?$PropertyArray@V?$Vec@$01M@easy3d@@@easy3d@@UEAA_NAEBVBasePropertyArray@2@_K1@Z
	?transfer@?$PropertyArray@V?$Vec@$01N@easy3d@@@easy3d@@UEAA_NAEBVBasePropertyArray@2@@Z
	?transfer@?$PropertyArray@V?$Vec@$01N@easy3d@@@easy3d@@UEAA_NAEBVBasePropertyArray@2@_K1@Z
	?transfer@?$PropertyArray@V?$Vec@$02M@easy3d@@@easy3d@@UEAA_NAEBVBasePropertyArray@2@@Z
	?transfer@?$PropertyArray@V?$Vec@$02M@easy3d@@@easy3d@@UEAA_NAEBVBasePropertyArray@2@_K1@Z
	?transfer@?$PropertyArray@V?$Vec@$02N@easy3d@@@easy3d@@UEAA_NAEBVBasePropertyArray@2@@Z
	?transfer@?$PropertyArray@V?$Vec@$02N@easy3d@@@easy3d@@UEAA_NAEBVBasePropertyArray@2@_K1@Z
	?transfer@?$PropertyArray@V?$vector@V?$Vec@$02M@easy3d@@V?$allocator@V?$Vec@$02M@easy3d@@@std@@@std@@@easy3d@@UEAA_NAEBVBasePropertyArray@2@@Z
	?transfer@?$PropertyArray@V?$vector@V?$Vec@$02M@easy3d@@V?$allocator@V?$Vec@$02M@easy3d@@@std@@@std@@@easy3d@@UEAA_NAEBVBasePropertyArray@2@_K1@Z
	?transfer@?$PropertyArray@VNormalCone@easy3d@@@easy3d@@UEAA_NAEBVBasePropertyArray@2@@Z
	?transfer@?$PropertyArray@VNormalCone@easy3d@@@easy3d@@UEAA_NAEBVBasePropertyArray@2@_K1@Z
	?transfer@?$PropertyArray@VQuadric@easy3d@@@easy3d@@UEAA_NAEBVBasePropertyArray@2@@Z
	?transfer@?$PropertyArray@VQuadric@easy3d@@@easy3d@@UEAA_NAEBVBasePropertyArray@2@_K1@Z
	?transfer@?$PropertyArray@_K@easy3d@@UEAA_NAEBVBasePropertyArray@2@@Z
	?transfer@?$PropertyArray@_K@easy3d@@UEAA_NAEBVBasePropertyArray@2@_K1@Z
	?transfer@?$PropertyArray@_N@easy3d@@UEAA_NAEBVBasePropertyArray@2@@Z
	?transfer@?$PropertyArray@_N@easy3d@@UEAA_NAEBVBasePropertyArray@2@_K1@Z
	?translate@SurfaceMeshComponent@easy3d@@QEAAXAEBV?$Vec@$02M@2@@Z
	?triangle_area@geom@easy3d@@YAMPEBVSurfaceMesh@2@UFace@32@@Z
	?triangulate@SurfaceMeshTriangulation@easy3d@@QEAAXUFace@SurfaceMesh@2@W4Objective@12@@Z
	?triangulate@SurfaceMeshTriangulation@easy3d@@QEAAXW4Objective@12@@Z
	?triangulate_hole@SurfaceMeshHoleFilling@easy3d@@AEAA_NUHalfedge@SurfaceMesh@2@@Z
	?tridiagonal_4@?$EigenSolver@N@easy3d@@CAXPEAPEANPEAN1@Z
	?tridiagonal_n@?$EigenSolver@N@easy3d@@CAXHPEAPEANPEAN1@Z
	?trim@PoissonReconstruction@easy3d@@SAPEAVSurfaceMesh@2@PEAV32@AEBV?$basic_string@DU?$char_traits@D@std@@V?$allocator@D@2@@std@@MM_N@Z
	?type@?$PropertyArray@D@easy3d@@UEBAAEBVtype_info@@XZ
	?type@?$PropertyArray@E@easy3d@@UEBAAEBVtype_info@@XZ
	?type@?$PropertyArray@H@easy3d@@UEBAAEBVtype_info@@XZ
	?type@?$PropertyArray@I@easy3d@@UEBAAEBVtype_info@@XZ
	?type@?$PropertyArray@M@easy3d@@UEBAAEBVtype_info@@XZ
	?type@?$PropertyArray@N@easy3d@@UEBAAEBVtype_info@@XZ
	?type@?$PropertyArray@UFace@SurfaceMesh@easy3d@@@easy3d@@UEBAAEBVtype_info@@XZ
	?type@?$PropertyArray@UHalfedge@SurfaceMesh@easy3d@@@easy3d@@UEBAAEBVtype_info@@XZ
	?type@?$PropertyArray@UVertex@SurfaceMesh@easy3d@@@easy3d@@UEBAAEBVtype_info@@XZ
	?type@?$PropertyArray@V?$Vec@$01M@easy3d@@@easy3d@@UEBAAEBVtype_info@@XZ
	?type@?$PropertyArray@V?$Vec@$01N@easy3d@@@easy3d@@UEBAAEBVtype_info@@XZ
	?type@?$PropertyArray@V?$Vec@$02M@easy3d@@@easy3d@@UEBAAEBVtype_info@@XZ
	?type@?$PropertyArray@V?$Vec@$02N@easy3d@@@easy3d@@UEBAAEBVtype_info@@XZ
	?type@?$PropertyArray@V?$vector@V?$Vec@$02M@easy3d@@V?$allocator@V?$Vec@$02M@easy3d@@@std@@@std@@@easy3d@@UEBAAEBVtype_info@@XZ
	?type@?$PropertyArray@VNormalCone@easy3d@@@easy3d@@UEBAAEBVtype_info@@XZ
	?type@?$PropertyArray@VQuadric@easy3d@@@easy3d@@UEBAAEBVtype_info@@XZ
	?type@?$PropertyArray@_K@easy3d@@UEBAAEBVtype_info@@XZ
	?type@?$PropertyArray@_N@easy3d@@UEBAAEBVtype_info@@XZ
	?underflow@?$basic_stringbuf@DU?$char_traits@D@std@@V?$allocator@D@2@@std@@MEAAHXZ
	?uniform_remeshing@SurfaceMeshRemeshing@easy3d@@QEAAXMI_N@Z
	?uniform_simplification@PointCloudSimplification@easy3d@@SA?AV?$vector@UVertex@PointCloud@easy3d@@V?$allocator@UVertex@PointCloud@easy3d@@@std@@@std@@PEAVPointCloud@2@I@Z
	?uniform_simplification@PointCloudSimplification@easy3d@@SA?AV?$vector@UVertex@PointCloud@easy3d@@V?$allocator@UVertex@PointCloud@easy3d@@@std@@@std@@PEAVPointCloud@2@MPEAVKdTreeSearch@2@@Z
	?union_of@csg@easy3d@@YAXAEAV?$vector@V?$GenericPolygon@M@easy3d@@V?$allocator@V?$GenericPolygon@M@easy3d@@@std@@@std@@@Z
	?upSample@?$BSplineElements@$01@@QEBAXAEAU1@@Z
	?update_cicl@Delaunay@easy3d@@IEAAXXZ
	?update_neighbors@Delaunay@easy3d@@IEAAXXZ
	?update_v_to_cell@Delaunay@easy3d@@IEAAXXZ
	?upheap@?$Heap@UVertex@SurfaceMesh@easy3d@@VHeapInterface@SurfaceMeshSimplification@3@@easy3d@@AEAAXI@Z
	?uv_sphere@SurfaceMeshFactory@easy3d@@SA?AVSurfaceMesh@2@AEBV?$Vec@$02M@2@M_K1@Z
	?value@?$MultiThreadedEvaluator@$01$01@?$Octree@M@@QEAAMU?$Point3D@M@@HPEBV?$OctNode@VTreeNodeData@@@@@Z
	?value@ChildEvaluator@CenterEvaluator@?$BSplineEvaluationData@$01$01@@QEBANHH_N@Z
	?value@ChildEvaluator@CornerEvaluator@?$BSplineEvaluationData@$01$01@@QEBANHH_N@Z
	?value@Evaluator@CenterEvaluator@?$BSplineEvaluationData@$01$01@@QEBANHH_N@Z
	?value@Evaluator@CornerEvaluator@?$BSplineEvaluationData@$01$01@@QEBANHH_N@Z
	?value@UpSampleEvaluator@?$BSplineEvaluationData@$01$01@@QEBANHH@Z
	?vertexCallback@Tessellator@easy3d@@CAXPEAX0@Z
	?vertex_curvature@geom@easy3d@@YA?AUVertexCurvature@12@PEBVSurfaceMesh@2@UVertex@42@@Z
	?vertex_properties@SurfaceMesh@easy3d@@QEBA?AV?$vector@V?$basic_string@DU?$char_traits@D@std@@V?$allocator@D@2@@std@@V?$allocator@V?$basic_string@DU?$char_traits@D@std@@V?$allocator@D@2@@std@@@2@@std@@XZ
	?vertices@PointCloud@easy3d@@QEBA?AVVertexContainer@12@XZ
	?vertices@SurfaceMesh@easy3d@@QEBA?AVVertexAroundFaceCirculator@12@UFace@12@@Z
	?vertices@SurfaceMesh@easy3d@@QEBA?AVVertexContainer@12@XZ
	?vertices@Tessellator@easy3d@@QEBAAEBV?$vector@PEAUVertex@Tessellator@easy3d@@V?$allocator@PEAUVertex@Tessellator@easy3d@@@std@@@std@@XZ
	?volume@geom@easy3d@@YAMAEBVSurfaceMesh@2@@Z
	?voronoi_area@geom@easy3d@@YANPEBVSurfaceMesh@2@UVertex@32@@Z
	?voronoi_area_barycentric@geom@easy3d@@YANPEBVSurfaceMesh@2@UVertex@32@@Z
	?weighted_centroid@SurfaceMeshRemeshing@easy3d@@AEAA?AV?$Vec@$02M@2@UVertex@SurfaceMesh@2@@Z
	?what@exception@std@@UEBAPEBDXZ
	__local_stdio_printf_options
	fprintf
	printf
	stbtt_BakeFontBitmap
	stbtt_CompareUTF8toUTF16_bigendian
	stbtt_FindGlyphIndex
	stbtt_FindMatchingFont
	stbtt_FreeBitmap
	stbtt_FreeSDF
	stbtt_FreeShape
	stbtt_GetBakedQuad
	stbtt_GetCodepointBitmap
	stbtt_GetCodepointBitmapBox
	stbtt_GetCodepointBitmapBoxSubpixel
	stbtt_GetCodepointBitmapSubpixel
	stbtt_GetCodepointBox
	stbtt_GetCodepointHMetrics
	stbtt_GetCodepointKernAdvance
	stbtt_GetCodepointSDF
	stbtt_GetCodepointSVG
	stbtt_GetCodepointShape
	stbtt_GetFontBoundingBox
	stbtt_GetFontNameString
	stbtt_GetFontOffsetForIndex
	stbtt_GetFontVMetrics
	stbtt_GetFontVMetricsOS2
	stbtt_GetGlyphBitmap
	stbtt_GetGlyphBitmapBox
	stbtt_GetGlyphBitmapBoxSubpixel
	stbtt_GetGlyphBitmapSubpixel
	stbtt_GetGlyphBox
	stbtt_GetGlyphHMetrics
	stbtt_GetGlyphKernAdvance
	stbtt_GetGlyphSDF
	stbtt_GetGlyphSVG
	stbtt_GetGlyphShape
	stbtt_GetKerningTable
	stbtt_GetKerningTableLength
	stbtt_GetNumberOfFonts
	stbtt_GetPackedQuad
	stbtt_GetScaledFontVMetrics
	stbtt_InitFont
	stbtt_IsGlyphEmpty
	stbtt_MakeCodepointBitmap
	stbtt_MakeCodepointBitmapSubpixel
	stbtt_MakeCodepointBitmapSubpixelPrefilter
	stbtt_MakeGlyphBitmap
	stbtt_MakeGlyphBitmapSubpixel
	stbtt_MakeGlyphBitmapSubpixelPrefilter
	stbtt_PackBegin
	stbtt_PackEnd
	stbtt_PackFontRange
	stbtt_PackFontRanges
	stbtt_PackFontRangesGatherRects
	stbtt_PackFontRangesPackRects
	stbtt_PackFontRangesRenderIntoRects
	stbtt_PackSetOversampling
	stbtt_PackSetSkipMissingCodepoints
	stbtt_Rasterize
	stbtt_ScaleForMappingEmToPixels
	stbtt_ScaleForPixelHeight
