EXPORTS 
	?$TSS0@?1??manage_caching_sizes@internal@Eigen@@YAXW4Action@3@PEA_J11@Z@4HA 	 DATA
	??_R0?AUCellConnectivity@PolyMesh@easy3d@@@8 	 DATA
	??_R0?AUEdgeConnectivity@Graph@easy3d@@@8 	 DATA
	??_R0?AUEdgeConnectivity@PolyMesh@easy3d@@@8 	 DATA
	??_R0?AUFace@SurfaceMesh@easy3d@@@8 	 DATA
	??_R0?AUFaceConnectivity@SurfaceMesh@easy3d@@@8 	 DATA
	??_R0?AUHalfFaceConnectivity@PolyMesh@easy3d@@@8 	 DATA
	??_R0?AUHalfedge@SurfaceMesh@easy3d@@@8 	 DATA
	??_R0?AUHalfedgeConnectivity@SurfaceMesh@easy3d@@@8 	 DATA
	??_R0?AUVertex@PointCloud@easy3d@@@8 	 DATA
	??_R0?AUVertex@SurfaceMesh@easy3d@@@8 	 DATA
	??_R0?AUVertexConnectivity@Graph@easy3d@@@8 	 DATA
	??_R0?AUVertexConnectivity@PolyMesh@easy3d@@@8 	 DATA
	??_R0?AUVertexConnectivity@SurfaceMesh@easy3d@@@8 	 DATA
	??_R0?AV?$CellProperty@UCellConnectivity@PolyMesh@easy3d@@@PolyMesh@easy3d@@@8 	 DATA
	??_R0?AV?$EdgeProperty@UEdgeConnectivity@Graph@easy3d@@@Graph@easy3d@@@8 	 DATA
	??_R0?AV?$EdgeProperty@UEdgeConnectivity@PolyMesh@easy3d@@@PolyMesh@easy3d@@@8 	 DATA
	??_R0?AV?$EdgeProperty@_N@Graph@easy3d@@@8 	 DATA
	??_R0?AV?$EdgeProperty@_N@SurfaceMesh@easy3d@@@8 	 DATA
	??_R0?AV?$FaceProperty@UFace@SurfaceMesh@easy3d@@@SurfaceMesh@easy3d@@@8 	 DATA
	??_R0?AV?$FaceProperty@UFaceConnectivity@SurfaceMesh@easy3d@@@SurfaceMesh@easy3d@@@8 	 DATA
	??_R0?AV?$FaceProperty@V?$Vec@$02M@easy3d@@@PolyMesh@easy3d@@@8 	 DATA
	??_R0?AV?$FaceProperty@V?$Vec@$02M@easy3d@@@SurfaceMesh@easy3d@@@8 	 DATA
	??_R0?AV?$FaceProperty@_N@SurfaceMesh@easy3d@@@8 	 DATA
	??_R0?AV?$HalfFaceProperty@UHalfFaceConnectivity@PolyMesh@easy3d@@@PolyMesh@easy3d@@@8 	 DATA
	??_R0?AV?$HalfedgeProperty@UHalfedge@SurfaceMesh@easy3d@@@SurfaceMesh@easy3d@@@8 	 DATA
	??_R0?AV?$HalfedgeProperty@UHalfedgeConnectivity@SurfaceMesh@easy3d@@@SurfaceMesh@easy3d@@@8 	 DATA
	??_R0?AV?$HalfedgeProperty@_N@SurfaceMesh@easy3d@@@8 	 DATA
	??_R0?AV?$Property@UCellConnectivity@PolyMesh@easy3d@@@easy3d@@@8 	 DATA
	??_R0?AV?$Property@UEdgeConnectivity@Graph@easy3d@@@easy3d@@@8 	 DATA
	??_R0?AV?$Property@UEdgeConnectivity@PolyMesh@easy3d@@@easy3d@@@8 	 DATA
	??_R0?AV?$Property@UFace@SurfaceMesh@easy3d@@@easy3d@@@8 	 DATA
	??_R0?AV?$Property@UFaceConnectivity@SurfaceMesh@easy3d@@@easy3d@@@8 	 DATA
	??_R0?AV?$Property@UHalfFaceConnectivity@PolyMesh@easy3d@@@easy3d@@@8 	 DATA
	??_R0?AV?$Property@UHalfedge@SurfaceMesh@easy3d@@@easy3d@@@8 	 DATA
	??_R0?AV?$Property@UHalfedgeConnectivity@SurfaceMesh@easy3d@@@easy3d@@@8 	 DATA
	??_R0?AV?$Property@UVertex@PointCloud@easy3d@@@easy3d@@@8 	 DATA
	??_R0?AV?$Property@UVertex@SurfaceMesh@easy3d@@@easy3d@@@8 	 DATA
	??_R0?AV?$Property@UVertexConnectivity@Graph@easy3d@@@easy3d@@@8 	 DATA
	??_R0?AV?$Property@UVertexConnectivity@PolyMesh@easy3d@@@easy3d@@@8 	 DATA
	??_R0?AV?$Property@UVertexConnectivity@SurfaceMesh@easy3d@@@easy3d@@@8 	 DATA
	??_R0?AV?$Property@V?$Vec@$02M@easy3d@@@easy3d@@@8 	 DATA
	??_R0?AV?$Property@_N@easy3d@@@8 	 DATA
	??_R0?AV?$PropertyArray@UCellConnectivity@PolyMesh@easy3d@@@easy3d@@@8 	 DATA
	??_R0?AV?$PropertyArray@UEdgeConnectivity@Graph@easy3d@@@easy3d@@@8 	 DATA
	??_R0?AV?$PropertyArray@UEdgeConnectivity@PolyMesh@easy3d@@@easy3d@@@8 	 DATA
	??_R0?AV?$PropertyArray@UFace@SurfaceMesh@easy3d@@@easy3d@@@8 	 DATA
	??_R0?AV?$PropertyArray@UFaceConnectivity@SurfaceMesh@easy3d@@@easy3d@@@8 	 DATA
	??_R0?AV?$PropertyArray@UHalfFaceConnectivity@PolyMesh@easy3d@@@easy3d@@@8 	 DATA
	??_R0?AV?$PropertyArray@UHalfedge@SurfaceMesh@easy3d@@@easy3d@@@8 	 DATA
	??_R0?AV?$PropertyArray@UHalfedgeConnectivity@SurfaceMesh@easy3d@@@easy3d@@@8 	 DATA
	??_R0?AV?$PropertyArray@UVertex@PointCloud@easy3d@@@easy3d@@@8 	 DATA
	??_R0?AV?$PropertyArray@UVertex@SurfaceMesh@easy3d@@@easy3d@@@8 	 DATA
	??_R0?AV?$PropertyArray@UVertexConnectivity@Graph@easy3d@@@easy3d@@@8 	 DATA
	??_R0?AV?$PropertyArray@UVertexConnectivity@PolyMesh@easy3d@@@easy3d@@@8 	 DATA
	??_R0?AV?$PropertyArray@UVertexConnectivity@SurfaceMesh@easy3d@@@easy3d@@@8 	 DATA
	??_R0?AV?$PropertyArray@V?$Vec@$02M@easy3d@@@easy3d@@@8 	 DATA
	??_R0?AV?$PropertyArray@_N@easy3d@@@8 	 DATA
	??_R0?AV?$Vec@$02M@easy3d@@@8 	 DATA
	??_R0?AV?$VertexProperty@UHalfedge@SurfaceMesh@easy3d@@@SurfaceMesh@easy3d@@@8 	 DATA
	??_R0?AV?$VertexProperty@UVertex@PointCloud@easy3d@@@PointCloud@easy3d@@@8 	 DATA
	??_R0?AV?$VertexProperty@UVertex@SurfaceMesh@easy3d@@@SurfaceMesh@easy3d@@@8 	 DATA
	??_R0?AV?$VertexProperty@UVertexConnectivity@Graph@easy3d@@@Graph@easy3d@@@8 	 DATA
	??_R0?AV?$VertexProperty@UVertexConnectivity@PolyMesh@easy3d@@@PolyMesh@easy3d@@@8 	 DATA
	??_R0?AV?$VertexProperty@UVertexConnectivity@SurfaceMesh@easy3d@@@SurfaceMesh@easy3d@@@8 	 DATA
	??_R0?AV?$VertexProperty@V?$Vec@$02M@easy3d@@@Graph@easy3d@@@8 	 DATA
	??_R0?AV?$VertexProperty@V?$Vec@$02M@easy3d@@@PointCloud@easy3d@@@8 	 DATA
	??_R0?AV?$VertexProperty@V?$Vec@$02M@easy3d@@@PolyMesh@easy3d@@@8 	 DATA
	??_R0?AV?$VertexProperty@V?$Vec@$02M@easy3d@@@SurfaceMesh@easy3d@@@8 	 DATA
	??_R0?AV?$VertexProperty@_N@Graph@easy3d@@@8 	 DATA
	??_R0?AV?$VertexProperty@_N@PointCloud@easy3d@@@8 	 DATA
	??_R0?AV?$VertexProperty@_N@SurfaceMesh@easy3d@@@8 	 DATA
	??_R0?AV?$_Iosb@H@std@@@8 	 DATA
	??_R0?AV?$basic_filebuf@DU?$char_traits@D@std@@@std@@@8 	 DATA
	??_R0?AV?$basic_ifstream@DU?$char_traits@D@std@@@std@@@8 	 DATA
	??_R0?AV?$basic_ios@DU?$char_traits@D@std@@@std@@@8 	 DATA
	??_R0?AV?$basic_istream@DU?$char_traits@D@std@@@std@@@8 	 DATA
	??_R0?AV?$basic_ofstream@DU?$char_traits@D@std@@@std@@@8 	 DATA
	??_R0?AV?$basic_ostream@DU?$char_traits@D@std@@@std@@@8 	 DATA
	??_R0?AV?$basic_streambuf@DU?$char_traits@D@std@@@std@@@8 	 DATA
	??_R0?AVBasePropertyArray@easy3d@@@8 	 DATA
	??_R0?AVGraph@easy3d@@@8 	 DATA
	??_R0?AVModel@easy3d@@@8 	 DATA
	??_R0?AVNoCopy@base@el@@@8 	 DATA
	??_R0?AVPointCloud@easy3d@@@8 	 DATA
	??_R0?AVPolyMesh@easy3d@@@8 	 DATA
	??_R0?AVPropertyContainer@easy3d@@@8 	 DATA
	??_R0?AVSurfaceMesh@easy3d@@@8 	 DATA
	??_R0?AVWriter@base@el@@@8 	 DATA
	??_R0?AVbad_alloc@std@@@8 	 DATA
	??_R0?AVbad_array_new_length@std@@@8 	 DATA
	??_R0?AVbad_cast@std@@@8 	 DATA
	??_R0?AVexception@std@@@8 	 DATA
	??_R0?AVios_base@std@@@8 	 DATA
	??_R0_N@8 	 DATA
	?_Psave@?$_Facetptr@V?$codecvt@DDU_Mbstatet@@@std@@@std@@2PEBVfacet@locale@2@EB 	 DATA
	?_Stinit@?1??_Init@?$basic_filebuf@DU?$char_traits@D@std@@@std@@IEAAXPEAU_iobuf@@W4_Initfl@23@@Z@4U_Mbstatet@@A 	 DATA
	?m_cacheSizes@?1??manage_caching_sizes@internal@Eigen@@YAXW4Action@3@PEA_J11@Z@4UCacheSizes@23@A 	 DATA
	??$?0PEAD$0A@@?$basic_string@DU?$char_traits@D@std@@V?$allocator@D@2@@std@@QEAA@PEAD0AEBV?$allocator@D@1@@Z
	??$?0V?$Matrix@N$0?0$0?0$0A@$0?0$0?0@Eigen@@@?$ColPivHouseholderQR@V?$Matrix@N$0?0$0?0$0A@$0?0$0?0@Eigen@@@Eigen@@QEAA@AEBU?$EigenBase@V?$Matrix@N$0?0$0?0$0A@$0?0$0?0@Eigen@@@1@@Z
	??$?0V?$Matrix@N$0?0$0?0$0A@$0?0$0?0@Eigen@@@?$PartialPivLU@V?$Matrix@N$0?0$0?0$0A@$0?0$0?0@Eigen@@@Eigen@@QEAA@AEBU?$EigenBase@V?$Matrix@N$0?0$0?0$0A@$0?0$0?0@Eigen@@@1@@Z
	??$?0V?$_Vector_const_iterator@V?$_Vector_val@U?$_Simple_types@H@std@@@std@@@std@@@?$set@HU?$less@H@std@@V?$allocator@H@2@@std@@QEAA@V?$_Vector_const_iterator@V?$_Vector_val@U?$_Simple_types@H@std@@@std@@@1@0@Z
	??$?4V?$CwiseNullaryOp@U?$scalar_constant_op@N@internal@Eigen@@V?$Matrix@N$0?0$0?0$0A@$0?0$0?0@3@@Eigen@@@?$TriangularViewImpl@V?$Matrix@N$0?0$0?0$0A@$0?0$0?0@Eigen@@$09UDense@2@@Eigen@@QEAAAEAV?$TriangularView@V?$Matrix@N$0?0$0?0$0A@$0?0$0?0@Eigen@@$09@1@AEBV?$MatrixBase@V?$CwiseNullaryOp@U?$scalar_constant_op@N@internal@Eigen@@V?$Matrix@N$0?0$0?0$0A@$0?0$0?0@3@@Eigen@@@1@@Z
	??$?4V?$PermutationMatrix@$0?0$0?0H@Eigen@@@?$MatrixBase@V?$Matrix@N$0?0$0?0$0A@$0?0$0?0@Eigen@@@Eigen@@QEAAAEAV?$Matrix@N$0?0$0?0$0A@$0?0$0?0@1@AEBU?$EigenBase@V?$PermutationMatrix@$0?0$0?0H@Eigen@@@1@@Z
	??$?4V?$TriangularView@$$CBV?$Block@$$CBV?$Matrix@N$0?0$0?0$0A@$0?0$0?0@Eigen@@$0?0$0?0$0A@@Eigen@@$01@Eigen@@@?$MatrixBase@V?$Matrix@N$0?0$0?0$0A@$0?0$0?0@Eigen@@@Eigen@@QEAAAEAV?$Matrix@N$0?0$0?0$0A@$0?0$0?0@1@AEBU?$EigenBase@V?$TriangularView@$$CBV?$Block@$$CBV?$Matrix@N$0?0$0?0$0A@$0?0$0?0@Eigen@@$0?0$0?0$0A@@Eigen@@$01@Eigen@@@1@@Z
	??$?4V?$TriangularView@$$CBV?$Transpose@$$CBV?$Block@$$CBV?$Matrix@N$0?0$0?0$0A@$0?0$0?0@Eigen@@$0?0$0?0$0A@@Eigen@@@Eigen@@$00@Eigen@@@?$MatrixBase@V?$Matrix@N$0?0$0?0$0A@$0?0$0?0@Eigen@@@Eigen@@QEAAAEAV?$Matrix@N$0?0$0?0$0A@$0?0$0?0@1@AEBU?$EigenBase@V?$TriangularView@$$CBV?$Transpose@$$CBV?$Block@$$CBV?$Matrix@N$0?0$0?0$0A@$0?0$0?0@Eigen@@$0?0$0?0$0A@@Eigen@@@Eigen@@$00@Eigen@@@1@@Z
	??$?6$$BY03D@Writer@base@el@@QEAAAEAV012@AEAY03$$CBD@Z
	??$?6$$BY05D@Writer@base@el@@QEAAAEAV012@AEAY05$$CBD@Z
	??$?6$$BY07D@Writer@base@el@@QEAAAEAV012@AEAY07$$CBD@Z
	??$?6$$BY09D@Writer@base@el@@QEAAAEAV012@AEAY09$$CBD@Z
	??$?6$$BY0BC@D@Writer@base@el@@QEAAAEAV012@AEAY0BC@$$CBD@Z
	??$?6$$BY0BF@D@Writer@base@el@@QEAAAEAV012@AEAY0BF@$$CBD@Z
	??$?6$$BY0BG@D@Writer@base@el@@QEAAAEAV012@AEAY0BG@$$CBD@Z
	??$?6$$BY0O@D@Writer@base@el@@QEAAAEAV012@AEAY0O@$$CBD@Z
	??$?6DU?$char_traits@D@std@@V?$allocator@D@1@@std@@YAAEAV?$basic_ostream@DU?$char_traits@D@std@@@0@AEAV10@AEBV?$basic_string@DU?$char_traits@D@std@@V?$allocator@D@2@@0@@Z
	??$?6U?$char_traits@D@std@@@std@@YAAEAV?$basic_ostream@DU?$char_traits@D@std@@@0@AEAV10@D@Z
	??$?6U?$char_traits@D@std@@@std@@YAAEAV?$basic_ostream@DU?$char_traits@D@std@@@0@AEAV10@PEBD@Z
	??$?6UEdge@SurfaceMesh@easy3d@@@Writer@base@el@@QEAAAEAV012@AEBUEdge@SurfaceMesh@easy3d@@@Z
	??$?6UFace@SurfaceMesh@easy3d@@@Writer@base@el@@QEAAAEAV012@AEBUFace@SurfaceMesh@easy3d@@@Z
	??$?6UHalfedge@SurfaceMesh@easy3d@@@Writer@base@el@@QEAAAEAV012@AEBUHalfedge@SurfaceMesh@easy3d@@@Z
	??$?6UVertex@Graph@easy3d@@@Writer@base@el@@QEAAAEAV012@AEBUVertex@Graph@easy3d@@@Z
	??$?6UVertex@SurfaceMesh@easy3d@@@MessageBuilder@base@el@@QEAAAEAV012@AEBUVertex@SurfaceMesh@easy3d@@@Z
	??$?6UVertex@SurfaceMesh@easy3d@@@Writer@base@el@@QEAAAEAV012@AEBUVertex@SurfaceMesh@easy3d@@@Z
	??$?6V?$basic_string@DU?$char_traits@D@std@@V?$allocator@D@2@@std@@@Writer@base@el@@QEAAAEAV012@AEBV?$basic_string@DU?$char_traits@D@std@@V?$allocator@D@2@@std@@@Z
	??$?6_K@Writer@base@el@@QEAAAEAV012@AEB_K@Z
	??$?DV?$Block@$$CBV?$Matrix@N$0?0$0?0$0A@$0?0$0?0@Eigen@@$0?0$00$0A@@Eigen@@@?$MatrixBase@V?$Block@V?$Block@V?$Matrix@N$0?0$0?0$0A@$0?0$0?0@Eigen@@$0?0$0?0$0A@@Eigen@@$0?0$0?0$0A@@Eigen@@@Eigen@@QEBA?BV?$Product@V?$Block@V?$Block@V?$Matrix@N$0?0$0?0$0A@$0?0$0?0@Eigen@@$0?0$0?0$0A@@Eigen@@$0?0$0?0$0A@@Eigen@@V?$Block@$$CBV?$Matrix@N$0?0$0?0$0A@$0?0$0?0@Eigen@@$0?0$00$0A@@2@$0A@@1@AEBV?$MatrixBase@V?$Block@$$CBV?$Matrix@N$0?0$0?0$0A@$0?0$0?0@Eigen@@$0?0$00$0A@@Eigen@@@1@@Z
	??$?DV?$Block@V?$Block@V?$Matrix@N$0?0$00$0A@$0?0$00@Eigen@@$0?0$0?0$0A@@Eigen@@$0?0$0?0$0A@@Eigen@@@?$MatrixBase@V?$Transpose@$$CBV?$Block@$$CBV?$Matrix@N$0?0$0?0$0A@$0?0$0?0@Eigen@@$0?0$00$0A@@Eigen@@@Eigen@@@Eigen@@QEBA?BV?$Product@V?$Transpose@$$CBV?$Block@$$CBV?$Matrix@N$0?0$0?0$0A@$0?0$0?0@Eigen@@$0?0$00$0A@@Eigen@@@Eigen@@V?$Block@V?$Block@V?$Matrix@N$0?0$00$0A@$0?0$00@Eigen@@$0?0$0?0$0A@@Eigen@@$0?0$0?0$0A@@2@$0A@@1@AEBV?$MatrixBase@V?$Block@V?$Block@V?$Matrix@N$0?0$00$0A@$0?0$00@Eigen@@$0?0$0?0$0A@@Eigen@@$0?0$0?0$0A@@Eigen@@@1@@Z
	??$?DV?$Block@V?$Block@V?$Matrix@N$0?0$0?0$0A@$0?0$0?0@Eigen@@$0?0$0?0$0A@@Eigen@@$0?0$0?0$0A@@Eigen@@@?$MatrixBase@V?$Transpose@$$CBV?$Block@$$CBV?$Matrix@N$0?0$0?0$0A@$0?0$0?0@Eigen@@$0?0$00$0A@@Eigen@@@Eigen@@@Eigen@@QEBA?BV?$Product@V?$Transpose@$$CBV?$Block@$$CBV?$Matrix@N$0?0$0?0$0A@$0?0$0?0@Eigen@@$0?0$00$0A@@Eigen@@@Eigen@@V?$Block@V?$Block@V?$Matrix@N$0?0$0?0$0A@$0?0$0?0@Eigen@@$0?0$0?0$0A@@Eigen@@$0?0$0?0$0A@@2@$0A@@1@AEBV?$MatrixBase@V?$Block@V?$Block@V?$Matrix@N$0?0$0?0$0A@$0?0$0?0@Eigen@@$0?0$0?0$0A@@Eigen@@$0?0$0?0$0A@@Eigen@@@1@@Z
	??$?DV?$Block@V?$Block@V?$Matrix@N$0?0$0?0$0A@$0?0$0?0@Eigen@@$0?0$0?0$0A@@Eigen@@$0?0$0?0$0A@@Eigen@@@?$MatrixBase@V?$Transpose@$$CBV?$Block@V?$Block@V?$Matrix@N$0?0$0?0$0A@$0?0$0?0@Eigen@@$0?0$00$00@Eigen@@$0?0$00$0A@@Eigen@@@Eigen@@@Eigen@@QEBA?BV?$Product@V?$Transpose@$$CBV?$Block@V?$Block@V?$Matrix@N$0?0$0?0$0A@$0?0$0?0@Eigen@@$0?0$00$00@Eigen@@$0?0$00$0A@@Eigen@@@Eigen@@V?$Block@V?$Block@V?$Matrix@N$0?0$0?0$0A@$0?0$0?0@Eigen@@$0?0$0?0$0A@@Eigen@@$0?0$0?0$0A@@2@$0A@@1@AEBV?$MatrixBase@V?$Block@V?$Block@V?$Matrix@N$0?0$0?0$0A@$0?0$0?0@Eigen@@$0?0$0?0$0A@@Eigen@@$0?0$0?0$0A@@Eigen@@@1@@Z
	??$?DV?$Block@V?$Block@V?$Ref@V?$Matrix@N$0?0$0?0$0A@$0?0$0?0@Eigen@@$0A@V?$OuterStride@$0?0@2@@Eigen@@$00$0?0$0A@@Eigen@@$00$0?0$0A@@Eigen@@@?$MatrixBase@V?$Block@V?$Block@V?$Ref@V?$Matrix@N$0?0$0?0$0A@$0?0$0?0@Eigen@@$0A@V?$OuterStride@$0?0@2@@Eigen@@$0?0$00$00@Eigen@@$0?0$00$0A@@Eigen@@@Eigen@@QEBA?BV?$Product@V?$Block@V?$Block@V?$Ref@V?$Matrix@N$0?0$0?0$0A@$0?0$0?0@Eigen@@$0A@V?$OuterStride@$0?0@2@@Eigen@@$0?0$00$00@Eigen@@$0?0$00$0A@@Eigen@@V?$Block@V?$Block@V?$Ref@V?$Matrix@N$0?0$0?0$0A@$0?0$0?0@Eigen@@$0A@V?$OuterStride@$0?0@2@@Eigen@@$00$0?0$0A@@Eigen@@$00$0?0$0A@@2@$0A@@1@AEBV?$MatrixBase@V?$Block@V?$Block@V?$Ref@V?$Matrix@N$0?0$0?0$0A@$0?0$0?0@Eigen@@$0A@V?$OuterStride@$0?0@2@@Eigen@@$00$0?0$0A@@Eigen@@$00$0?0$0A@@Eigen@@@1@@Z
	??$?DV?$Map@V?$Matrix@N$00$0?0$00$00$00@Eigen@@$0A@V?$Stride@$0A@$0A@@2@@Eigen@@@?$MatrixBase@V?$CwiseBinaryOp@U?$scalar_product_op@NN@internal@Eigen@@$$CBV?$CwiseNullaryOp@U?$scalar_constant_op@N@internal@Eigen@@$$CBV?$Matrix@N$0?0$00$0A@$0?0$00@3@@3@$$CBV?$Block@$$CBV?$Matrix@N$0?0$0?0$0A@$0?0$0?0@Eigen@@$0?0$00$0A@@3@@Eigen@@@Eigen@@QEBA?BV?$Product@V?$CwiseBinaryOp@U?$scalar_product_op@NN@internal@Eigen@@$$CBV?$CwiseNullaryOp@U?$scalar_constant_op@N@internal@Eigen@@$$CBV?$Matrix@N$0?0$00$0A@$0?0$00@3@@3@$$CBV?$Block@$$CBV?$Matrix@N$0?0$0?0$0A@$0?0$0?0@Eigen@@$0?0$00$0A@@3@@Eigen@@V?$Map@V?$Matrix@N$00$0?0$00$00$00@Eigen@@$0A@V?$Stride@$0A@$0A@@2@@2@$0A@@1@AEBV?$MatrixBase@V?$Map@V?$Matrix@N$00$0?0$00$00$00@Eigen@@$0A@V?$Stride@$0A@$0A@@2@@Eigen@@@1@@Z
	??$?DV?$Map@V?$Matrix@N$00$0?0$00$00$0?0@Eigen@@$0A@V?$Stride@$0A@$0A@@2@@Eigen@@@?$MatrixBase@V?$CwiseBinaryOp@U?$scalar_product_op@NN@internal@Eigen@@$$CBV?$CwiseNullaryOp@U?$scalar_constant_op@N@internal@Eigen@@$$CBV?$Matrix@N$0?0$00$0A@$0?0$00@3@@3@$$CBV?$Block@$$CBV?$Matrix@N$0?0$0?0$0A@$0?0$0?0@Eigen@@$0?0$00$0A@@3@@Eigen@@@Eigen@@QEBA?BV?$Product@V?$CwiseBinaryOp@U?$scalar_product_op@NN@internal@Eigen@@$$CBV?$CwiseNullaryOp@U?$scalar_constant_op@N@internal@Eigen@@$$CBV?$Matrix@N$0?0$00$0A@$0?0$00@3@@3@$$CBV?$Block@$$CBV?$Matrix@N$0?0$0?0$0A@$0?0$0?0@Eigen@@$0?0$00$0A@@3@@Eigen@@V?$Map@V?$Matrix@N$00$0?0$00$00$0?0@Eigen@@$0A@V?$Stride@$0A@$0A@@2@@2@$0A@@1@AEBV?$MatrixBase@V?$Map@V?$Matrix@N$00$0?0$00$00$0?0@Eigen@@$0A@V?$Stride@$0A@$0A@@2@@Eigen@@@1@@Z
	??$?DV?$Map@V?$Matrix@N$00$0?0$00$00$0?0@Eigen@@$0A@V?$Stride@$0A@$0A@@2@@Eigen@@@?$MatrixBase@V?$CwiseBinaryOp@U?$scalar_product_op@NN@internal@Eigen@@$$CBV?$CwiseNullaryOp@U?$scalar_constant_op@N@internal@Eigen@@$$CBV?$Matrix@N$0?0$00$0A@$0?0$00@3@@3@$$CBV?$Block@V?$Block@V?$Matrix@N$0?0$0?0$0A@$0?0$0?0@Eigen@@$0?0$00$00@Eigen@@$0?0$00$0A@@3@@Eigen@@@Eigen@@QEBA?BV?$Product@V?$CwiseBinaryOp@U?$scalar_product_op@NN@internal@Eigen@@$$CBV?$CwiseNullaryOp@U?$scalar_constant_op@N@internal@Eigen@@$$CBV?$Matrix@N$0?0$00$0A@$0?0$00@3@@3@$$CBV?$Block@V?$Block@V?$Matrix@N$0?0$0?0$0A@$0?0$0?0@Eigen@@$0?0$00$00@Eigen@@$0?0$00$0A@@3@@Eigen@@V?$Map@V?$Matrix@N$00$0?0$00$00$0?0@Eigen@@$0A@V?$Stride@$0A@$0A@@2@@2@$0A@@1@AEBV?$MatrixBase@V?$Map@V?$Matrix@N$00$0?0$00$00$0?0@Eigen@@$0A@V?$Stride@$0A@$0A@@2@@Eigen@@@1@@Z
	??$?DV?$PermutationMatrix@$0?0$0?0H@Eigen@@V?$CwiseNullaryOp@U?$scalar_identity_op@N@internal@Eigen@@V?$Matrix@N$0?0$0?0$0A@$0?0$0?0@3@@1@@Eigen@@YA?BV?$Product@V?$PermutationMatrix@$0?0$0?0H@Eigen@@V?$CwiseNullaryOp@U?$scalar_identity_op@N@internal@Eigen@@V?$Matrix@N$0?0$0?0$0A@$0?0$0?0@3@@2@$01@0@AEBV?$PermutationBase@V?$PermutationMatrix@$0?0$0?0H@Eigen@@@0@AEBV?$MatrixBase@V?$CwiseNullaryOp@U?$scalar_identity_op@N@internal@Eigen@@V?$Matrix@N$0?0$0?0$0A@$0?0$0?0@3@@Eigen@@@0@@Z
	??$?DV?$Ref@V?$Matrix@N$0?0$0?0$0A@$0?0$0?0@Eigen@@$0A@V?$OuterStride@$0?0@2@@Eigen@@@?$MatrixBase@V?$Ref@V?$Matrix@N$0?0$0?0$0A@$0?0$0?0@Eigen@@$0A@V?$OuterStride@$0?0@2@@Eigen@@@Eigen@@QEBA?BV?$Product@V?$Ref@V?$Matrix@N$0?0$0?0$0A@$0?0$0?0@Eigen@@$0A@V?$OuterStride@$0?0@2@@Eigen@@V12@$0A@@1@AEBV01@@Z
	??$?DV?$Transpose@$$CBV?$Block@$$CBV?$Matrix@N$0?0$0?0$0A@$0?0$0?0@Eigen@@$0?0$00$0A@@Eigen@@@Eigen@@@?$MatrixBase@V?$CwiseBinaryOp@U?$scalar_product_op@NN@internal@Eigen@@$$CBV?$CwiseNullaryOp@U?$scalar_constant_op@N@internal@Eigen@@$$CBV?$Matrix@N$0?0$00$0A@$0?0$00@3@@3@$$CBV?$Map@V?$Matrix@N$0?0$00$0A@$0?0$00@Eigen@@$0A@V?$Stride@$0A@$0A@@2@@3@@Eigen@@@Eigen@@QEBA?BV?$Product@V?$CwiseBinaryOp@U?$scalar_product_op@NN@internal@Eigen@@$$CBV?$CwiseNullaryOp@U?$scalar_constant_op@N@internal@Eigen@@$$CBV?$Matrix@N$0?0$00$0A@$0?0$00@3@@3@$$CBV?$Map@V?$Matrix@N$0?0$00$0A@$0?0$00@Eigen@@$0A@V?$Stride@$0A@$0A@@2@@3@@Eigen@@V?$Transpose@$$CBV?$Block@$$CBV?$Matrix@N$0?0$0?0$0A@$0?0$0?0@Eigen@@$0?0$00$0A@@Eigen@@@2@$0A@@1@AEBV?$MatrixBase@V?$Transpose@$$CBV?$Block@$$CBV?$Matrix@N$0?0$0?0$0A@$0?0$0?0@Eigen@@$0?0$00$0A@@Eigen@@@Eigen@@@1@@Z
	??$?HDU?$char_traits@D@std@@V?$allocator@D@1@@std@@YA?AV?$basic_string@DU?$char_traits@D@std@@V?$allocator@D@2@@0@QEBD$$QEAV10@@Z
	??$NullaryExpr@U?$scalar_constant_op@N@internal@Eigen@@@?$DenseBase@V?$Block@V?$Block@V?$Block@V?$Matrix@N$0?0$0?0$0A@$0?0$0?0@Eigen@@$0?0$00$00@Eigen@@$0?0$00$0A@@Eigen@@$0?0$00$0A@@Eigen@@@Eigen@@SA?BV?$CwiseNullaryOp@U?$scalar_constant_op@N@internal@Eigen@@V?$Matrix@N$0?0$00$0A@$0?0$00@3@@1@_J0AEBU?$scalar_constant_op@N@internal@1@@Z
	??$NullaryExpr@U?$scalar_constant_op@N@internal@Eigen@@@?$DenseBase@V?$Block@V?$Block@V?$Matrix@N$0?0$0?0$00$0?0$0?0@Eigen@@$00$0?0$00@Eigen@@$00$0?0$0A@@Eigen@@@Eigen@@SA?BV?$CwiseNullaryOp@U?$scalar_constant_op@N@internal@Eigen@@V?$Matrix@N$00$0?0$00$00$0?0@3@@1@_J0AEBU?$scalar_constant_op@N@internal@1@@Z
	??$NullaryExpr@U?$scalar_constant_op@N@internal@Eigen@@@?$DenseBase@V?$Block@V?$Block@V?$Matrix@N$0?0$0?0$0A@$0?0$0?0@Eigen@@$0?0$00$00@Eigen@@$0?0$00$0A@@Eigen@@@Eigen@@SA?BV?$CwiseNullaryOp@U?$scalar_constant_op@N@internal@Eigen@@V?$Matrix@N$0?0$00$0A@$0?0$00@3@@1@_J0AEBU?$scalar_constant_op@N@internal@1@@Z
	??$NullaryExpr@U?$scalar_constant_op@N@internal@Eigen@@@?$DenseBase@V?$Block@V?$Matrix@N$0?0$00$0A@$0?0$00@Eigen@@$00$00$0A@@Eigen@@@Eigen@@SA?BV?$CwiseNullaryOp@U?$scalar_constant_op@N@internal@Eigen@@V?$Matrix@N$00$00$0A@$00$00@3@@1@_J0AEBU?$scalar_constant_op@N@internal@1@@Z
	??$NullaryExpr@U?$scalar_constant_op@N@internal@Eigen@@@?$DenseBase@V?$Diagonal@V?$Matrix@N$07$07$00$07$07@Eigen@@$0A@@Eigen@@@Eigen@@SA?BV?$CwiseNullaryOp@U?$scalar_constant_op@N@internal@Eigen@@V?$Matrix@N$07$00$0A@$07$00@3@@1@_J0AEBU?$scalar_constant_op@N@internal@1@@Z
	??$NullaryExpr@U?$scalar_constant_op@N@internal@Eigen@@@?$DenseBase@V?$Diagonal@V?$Matrix@N$07$07$0A@$07$07@Eigen@@$0A@@Eigen@@@Eigen@@SA?BV?$CwiseNullaryOp@U?$scalar_constant_op@N@internal@Eigen@@V?$Matrix@N$07$00$0A@$07$00@3@@1@_J0AEBU?$scalar_constant_op@N@internal@1@@Z
	??$NullaryExpr@U?$scalar_constant_op@N@internal@Eigen@@@?$DenseBase@V?$Diagonal@V?$Matrix@N$0?0$0?0$0A@$0?0$0?0@Eigen@@$0A@@Eigen@@@Eigen@@SA?BV?$CwiseNullaryOp@U?$scalar_constant_op@N@internal@Eigen@@V?$Matrix@N$0?0$00$0A@$0?0$00@3@@1@_J0AEBU?$scalar_constant_op@N@internal@1@@Z
	??$NullaryExpr@U?$scalar_constant_op@N@internal@Eigen@@@?$DenseBase@V?$Map@V?$Matrix@N$00$0?0$00$00$0?0@Eigen@@$0A@V?$Stride@$0A@$0A@@2@@Eigen@@@Eigen@@SA?BV?$CwiseNullaryOp@U?$scalar_constant_op@N@internal@Eigen@@V?$Matrix@N$00$0?0$00$00$0?0@3@@1@_J0AEBU?$scalar_constant_op@N@internal@1@@Z
	??$NullaryExpr@U?$scalar_constant_op@N@internal@Eigen@@@?$DenseBase@V?$Map@V?$Matrix@N$0?0$00$0A@$0?0$00@Eigen@@$01V?$Stride@$0A@$0A@@2@@Eigen@@@Eigen@@SA?BV?$CwiseNullaryOp@U?$scalar_constant_op@N@internal@Eigen@@V?$Matrix@N$0?0$00$0A@$0?0$00@3@@1@_J0AEBU?$scalar_constant_op@N@internal@1@@Z
	??$NullaryExpr@U?$scalar_constant_op@N@internal@Eigen@@@?$DenseBase@V?$Map@V?$Matrix@N$0?0$00$0A@$0?0$00@Eigen@@$0A@V?$Stride@$0A@$0A@@2@@Eigen@@@Eigen@@SA?BV?$CwiseNullaryOp@U?$scalar_constant_op@N@internal@Eigen@@V?$Matrix@N$0?0$00$0A@$0?0$00@3@@1@_J0AEBU?$scalar_constant_op@N@internal@1@@Z
	??$NullaryExpr@U?$scalar_constant_op@N@internal@Eigen@@@?$DenseBase@V?$Matrix@N$07$07$00$07$07@Eigen@@@Eigen@@SA?BV?$CwiseNullaryOp@U?$scalar_constant_op@N@internal@Eigen@@V?$Matrix@N$07$07$00$07$07@3@@1@_J0AEBU?$scalar_constant_op@N@internal@1@@Z
	??$NullaryExpr@U?$scalar_constant_op@N@internal@Eigen@@@?$DenseBase@V?$Matrix@N$07$07$0A@$07$07@Eigen@@@Eigen@@SA?BV?$CwiseNullaryOp@U?$scalar_constant_op@N@internal@Eigen@@V?$Matrix@N$07$07$0A@$07$07@3@@1@_J0AEBU?$scalar_constant_op@N@internal@1@@Z
	??$NullaryExpr@U?$scalar_constant_op@N@internal@Eigen@@@?$DenseBase@V?$Matrix@N$0?0$00$0A@$0?0$00@Eigen@@@Eigen@@SA?BV?$CwiseNullaryOp@U?$scalar_constant_op@N@internal@Eigen@@V?$Matrix@N$0?0$00$0A@$0?0$00@3@@1@_J0AEBU?$scalar_constant_op@N@internal@1@@Z
	??$NullaryExpr@U?$scalar_constant_op@N@internal@Eigen@@@?$DenseBase@V?$Matrix@N$0?0$0?0$0A@$0?0$00@Eigen@@@Eigen@@SA?BV?$CwiseNullaryOp@U?$scalar_constant_op@N@internal@Eigen@@V?$Matrix@N$0?0$0?0$0A@$0?0$00@3@@1@_J0AEBU?$scalar_constant_op@N@internal@1@@Z
	??$NullaryExpr@U?$scalar_constant_op@N@internal@Eigen@@@?$DenseBase@V?$Matrix@N$0?0$0?0$0A@$0?0$0?0@Eigen@@@Eigen@@SA?BV?$CwiseNullaryOp@U?$scalar_constant_op@N@internal@Eigen@@V?$Matrix@N$0?0$0?0$0A@$0?0$0?0@3@@1@_J0AEBU?$scalar_constant_op@N@internal@1@@Z
	??$NullaryExpr@U?$scalar_constant_op@_N@internal@Eigen@@@?$DenseBase@V?$Matrix@_N$0?0$00$0A@$0?0$00@Eigen@@@Eigen@@SA?BV?$CwiseNullaryOp@U?$scalar_constant_op@_N@internal@Eigen@@V?$Matrix@_N$0?0$00$0A@$0?0$00@3@@1@_J0AEBU?$scalar_constant_op@_N@internal@1@@Z
	??$NullaryExpr@U?$scalar_identity_op@N@internal@Eigen@@@?$DenseBase@V?$Matrix@N$0?0$0?0$0A@$0?0$0?0@Eigen@@@Eigen@@SA?BV?$CwiseNullaryOp@U?$scalar_identity_op@N@internal@Eigen@@V?$Matrix@N$0?0$0?0$0A@$0?0$0?0@3@@1@_J0AEBU?$scalar_identity_op@N@internal@1@@Z
	??$_Allocate_manually_vector_aligned@U_Default_allocate_traits@std@@@std@@YAPEAX_K@Z
	??$_Assign_counted_range@PEAI@?$vector@IV?$allocator@I@std@@@std@@AEAAXPEAI_K@Z
	??$_Assign_counted_range@PEAUCellConnectivity@PolyMesh@easy3d@@@?$vector@UCellConnectivity@PolyMesh@easy3d@@V?$allocator@UCellConnectivity@PolyMesh@easy3d@@@std@@@std@@AEAAXPEAUCellConnectivity@PolyMesh@easy3d@@_K@Z
	??$_Assign_counted_range@PEAUEdge@Graph@easy3d@@@?$vector@UEdge@Graph@easy3d@@V?$allocator@UEdge@Graph@easy3d@@@std@@@std@@AEAAXPEAUEdge@Graph@easy3d@@_K@Z
	??$_Assign_counted_range@PEAUEdgeConnectivity@Graph@easy3d@@@?$vector@UEdgeConnectivity@Graph@easy3d@@V?$allocator@UEdgeConnectivity@Graph@easy3d@@@std@@@std@@AEAAXPEAUEdgeConnectivity@Graph@easy3d@@_K@Z
	??$_Assign_counted_range@PEAUEdgeConnectivity@PolyMesh@easy3d@@@?$vector@UEdgeConnectivity@PolyMesh@easy3d@@V?$allocator@UEdgeConnectivity@PolyMesh@easy3d@@@std@@@std@@AEAAXPEAUEdgeConnectivity@PolyMesh@easy3d@@_K@Z
	??$_Assign_counted_range@PEAUFace@SurfaceMesh@easy3d@@@?$vector@UFace@SurfaceMesh@easy3d@@V?$allocator@UFace@SurfaceMesh@easy3d@@@std@@@std@@AEAAXPEAUFace@SurfaceMesh@easy3d@@_K@Z
	??$_Assign_counted_range@PEAUFaceConnectivity@SurfaceMesh@easy3d@@@?$vector@UFaceConnectivity@SurfaceMesh@easy3d@@V?$allocator@UFaceConnectivity@SurfaceMesh@easy3d@@@std@@@std@@AEAAXPEAUFaceConnectivity@SurfaceMesh@easy3d@@_K@Z
	??$_Assign_counted_range@PEAUHalfFace@PolyMesh@easy3d@@@?$vector@UHalfFace@PolyMesh@easy3d@@V?$allocator@UHalfFace@PolyMesh@easy3d@@@std@@@std@@AEAAXPEAUHalfFace@PolyMesh@easy3d@@_K@Z
	??$_Assign_counted_range@PEAUHalfFaceConnectivity@PolyMesh@easy3d@@@?$vector@UHalfFaceConnectivity@PolyMesh@easy3d@@V?$allocator@UHalfFaceConnectivity@PolyMesh@easy3d@@@std@@@std@@AEAAXPEAUHalfFaceConnectivity@PolyMesh@easy3d@@_K@Z
	??$_Assign_counted_range@PEAUHalfedge@SurfaceMesh@easy3d@@@?$vector@UHalfedge@SurfaceMesh@easy3d@@V?$allocator@UHalfedge@SurfaceMesh@easy3d@@@std@@@std@@AEAAXPEAUHalfedge@SurfaceMesh@easy3d@@_K@Z
	??$_Assign_counted_range@PEAUHalfedgeConnectivity@SurfaceMesh@easy3d@@@?$vector@UHalfedgeConnectivity@SurfaceMesh@easy3d@@V?$allocator@UHalfedgeConnectivity@SurfaceMesh@easy3d@@@std@@@std@@AEAAXPEAUHalfedgeConnectivity@SurfaceMesh@easy3d@@_K@Z
	??$_Assign_counted_range@PEAUVertex@PointCloud@easy3d@@@?$vector@UVertex@PointCloud@easy3d@@V?$allocator@UVertex@PointCloud@easy3d@@@std@@@std@@AEAAXPEAUVertex@PointCloud@easy3d@@_K@Z
	??$_Assign_counted_range@PEAUVertex@SurfaceMesh@easy3d@@@?$vector@UVertex@SurfaceMesh@easy3d@@V?$allocator@UVertex@SurfaceMesh@easy3d@@@std@@@std@@AEAAXPEAUVertex@SurfaceMesh@easy3d@@_K@Z
	??$_Assign_counted_range@PEAUVertexConnectivity@Graph@easy3d@@@?$vector@UVertexConnectivity@Graph@easy3d@@V?$allocator@UVertexConnectivity@Graph@easy3d@@@std@@@std@@AEAAXPEAUVertexConnectivity@Graph@easy3d@@_K@Z
	??$_Assign_counted_range@PEAUVertexConnectivity@PolyMesh@easy3d@@@?$vector@UVertexConnectivity@PolyMesh@easy3d@@V?$allocator@UVertexConnectivity@PolyMesh@easy3d@@@std@@@std@@AEAAXPEAUVertexConnectivity@PolyMesh@easy3d@@_K@Z
	??$_Assign_counted_range@PEAUVertexConnectivity@SurfaceMesh@easy3d@@@?$vector@UVertexConnectivity@SurfaceMesh@easy3d@@V?$allocator@UVertexConnectivity@SurfaceMesh@easy3d@@@std@@@std@@AEAAXPEAUVertexConnectivity@SurfaceMesh@easy3d@@_K@Z
	??$_Assign_counted_range@PEAV?$Vec@$02M@easy3d@@@?$vector@V?$Vec@$02M@easy3d@@V?$allocator@V?$Vec@$02M@easy3d@@@std@@@std@@AEAAXPEAV?$Vec@$02M@easy3d@@_K@Z
	??$_Construct@$00PEBD@?$basic_string@DU?$char_traits@D@std@@V?$allocator@D@2@@std@@AEAAXQEBD_K@Z
	??$_Copy@$0A@@?$_Tree@V?$_Tset_traits@UCell@PolyMesh@easy3d@@U?$less@UCell@PolyMesh@easy3d@@@std@@V?$allocator@UCell@PolyMesh@easy3d@@@5@$0A@@std@@@std@@IEAAXAEBV01@@Z
	??$_Copy@$0A@@?$_Tree@V?$_Tset_traits@UEdge@PolyMesh@easy3d@@U?$less@UEdge@PolyMesh@easy3d@@@std@@V?$allocator@UEdge@PolyMesh@easy3d@@@5@$0A@@std@@@std@@IEAAXAEBV01@@Z
	??$_Copy@$0A@@?$_Tree@V?$_Tset_traits@UHalfFace@PolyMesh@easy3d@@U?$less@UHalfFace@PolyMesh@easy3d@@@std@@V?$allocator@UHalfFace@PolyMesh@easy3d@@@5@$0A@@std@@@std@@IEAAXAEBV01@@Z
	??$_Copy@$0A@@?$_Tree@V?$_Tset_traits@UVertex@PolyMesh@easy3d@@U?$less@UVertex@PolyMesh@easy3d@@@std@@V?$allocator@UVertex@PolyMesh@easy3d@@@5@$0A@@std@@@std@@IEAAXAEBV01@@Z
	??$_Copy_backward_memmove@PEAUVertex@SurfaceMesh@easy3d@@PEAU123@@std@@YAPEAUVertex@SurfaceMesh@easy3d@@PEAU123@00@Z
	??$_Copy_memmove@PEAHPEAH@std@@YAPEAHPEAH00@Z
	??$_Copy_memmove@PEAIPEAI@std@@YAPEAIPEAI00@Z
	??$_Copy_memmove@PEANPEAN@std@@YAPEANPEAN00@Z
	??$_Copy_memmove@PEAPEAVBasePropertyArray@easy3d@@PEAPEAV12@@std@@YAPEAPEAVBasePropertyArray@easy3d@@PEAPEAV12@00@Z
	??$_Copy_memmove@PEAU?$pair@UHalfedge@SurfaceMesh@easy3d@@U123@@std@@PEAU12@@std@@YAPEAU?$pair@UHalfedge@SurfaceMesh@easy3d@@U123@@0@PEAU10@00@Z
	??$_Copy_memmove@PEAUEdge@Graph@easy3d@@PEAU123@@std@@YAPEAUEdge@Graph@easy3d@@PEAU123@00@Z
	??$_Copy_memmove@PEAUEdge@SurfaceMesh@easy3d@@PEAU123@@std@@YAPEAUEdge@SurfaceMesh@easy3d@@PEAU123@00@Z
	??$_Copy_memmove@PEAUEdgeConnectivity@Graph@easy3d@@PEAU123@@std@@YAPEAUEdgeConnectivity@Graph@easy3d@@PEAU123@00@Z
	??$_Copy_memmove@PEAUFace@SurfaceMesh@easy3d@@PEAU123@@std@@YAPEAUFace@SurfaceMesh@easy3d@@PEAU123@00@Z
	??$_Copy_memmove@PEAUFaceConnectivity@SurfaceMesh@easy3d@@PEAU123@@std@@YAPEAUFaceConnectivity@SurfaceMesh@easy3d@@PEAU123@00@Z
	??$_Copy_memmove@PEAUHalfFace@PolyMesh@easy3d@@PEAU123@@std@@YAPEAUHalfFace@PolyMesh@easy3d@@PEAU123@00@Z
	??$_Copy_memmove@PEAUHalfedge@SurfaceMesh@easy3d@@PEAU123@@std@@YAPEAUHalfedge@SurfaceMesh@easy3d@@PEAU123@00@Z
	??$_Copy_memmove@PEAUHalfedgeConnectivity@SurfaceMesh@easy3d@@PEAU123@@std@@YAPEAUHalfedgeConnectivity@SurfaceMesh@easy3d@@PEAU123@00@Z
	??$_Copy_memmove@PEAUVertex@PointCloud@easy3d@@PEAU123@@std@@YAPEAUVertex@PointCloud@easy3d@@PEAU123@00@Z
	??$_Copy_memmove@PEAUVertex@PolyMesh@easy3d@@PEAU123@@std@@YAPEAUVertex@PolyMesh@easy3d@@PEAU123@00@Z
	??$_Copy_memmove@PEAUVertex@SurfaceMesh@easy3d@@PEAU123@@std@@YAPEAUVertex@SurfaceMesh@easy3d@@PEAU123@00@Z
	??$_Copy_memmove@PEAUVertexConnectivity@SurfaceMesh@easy3d@@PEAU123@@std@@YAPEAUVertexConnectivity@SurfaceMesh@easy3d@@PEAU123@00@Z
	??$_Copy_memmove@PEAV?$Vec@$02M@easy3d@@PEAV12@@std@@YAPEAV?$Vec@$02M@easy3d@@PEAV12@00@Z
	??$_Copy_memmove@PEBUEdgeConnectivity@Graph@easy3d@@PEAU123@@std@@YAPEAUEdgeConnectivity@Graph@easy3d@@PEBU123@0PEAU123@@Z
	??$_Copy_memmove@PEBUFace@SurfaceMesh@easy3d@@PEAU123@@std@@YAPEAUFace@SurfaceMesh@easy3d@@PEBU123@0PEAU123@@Z
	??$_Copy_memmove@PEBUFaceConnectivity@SurfaceMesh@easy3d@@PEAU123@@std@@YAPEAUFaceConnectivity@SurfaceMesh@easy3d@@PEBU123@0PEAU123@@Z
	??$_Copy_memmove@PEBUHalfFace@PolyMesh@easy3d@@PEAU123@@std@@YAPEAUHalfFace@PolyMesh@easy3d@@PEBU123@0PEAU123@@Z
	??$_Copy_memmove@PEBUHalfedge@SurfaceMesh@easy3d@@PEAU123@@std@@YAPEAUHalfedge@SurfaceMesh@easy3d@@PEBU123@0PEAU123@@Z
	??$_Copy_memmove@PEBUHalfedgeConnectivity@SurfaceMesh@easy3d@@PEAU123@@std@@YAPEAUHalfedgeConnectivity@SurfaceMesh@easy3d@@PEBU123@0PEAU123@@Z
	??$_Copy_memmove@PEBUVertex@PointCloud@easy3d@@PEAU123@@std@@YAPEAUVertex@PointCloud@easy3d@@PEBU123@0PEAU123@@Z
	??$_Copy_memmove@PEBUVertex@PolyMesh@easy3d@@PEAU123@@std@@YAPEAUVertex@PolyMesh@easy3d@@PEBU123@0PEAU123@@Z
	??$_Copy_memmove@PEBUVertex@SurfaceMesh@easy3d@@PEAU123@@std@@YAPEAUVertex@SurfaceMesh@easy3d@@PEBU123@0PEAU123@@Z
	??$_Copy_memmove@PEBUVertexConnectivity@SurfaceMesh@easy3d@@PEAU123@@std@@YAPEAUVertexConnectivity@SurfaceMesh@easy3d@@PEBU123@0PEAU123@@Z
	??$_Copy_memmove@PEBV?$Vec@$02M@easy3d@@PEAV12@@std@@YAPEAV?$Vec@$02M@easy3d@@PEBV12@0PEAV12@@Z
	??$_Copy_memmove_n@PEAIPEAI@std@@YAPEAIPEAI_K0@Z
	??$_Copy_memmove_n@PEAUEdge@Graph@easy3d@@PEAU123@@std@@YAPEAUEdge@Graph@easy3d@@PEAU123@_K0@Z
	??$_Copy_memmove_n@PEAUEdgeConnectivity@Graph@easy3d@@PEAU123@@std@@YAPEAUEdgeConnectivity@Graph@easy3d@@PEAU123@_K0@Z
	??$_Copy_memmove_n@PEAUFace@SurfaceMesh@easy3d@@PEAU123@@std@@YAPEAUFace@SurfaceMesh@easy3d@@PEAU123@_K0@Z
	??$_Copy_memmove_n@PEAUFaceConnectivity@SurfaceMesh@easy3d@@PEAU123@@std@@YAPEAUFaceConnectivity@SurfaceMesh@easy3d@@PEAU123@_K0@Z
	??$_Copy_memmove_n@PEAUHalfFace@PolyMesh@easy3d@@PEAU123@@std@@YAPEAUHalfFace@PolyMesh@easy3d@@PEAU123@_K0@Z
	??$_Copy_memmove_n@PEAUHalfedge@SurfaceMesh@easy3d@@PEAU123@@std@@YAPEAUHalfedge@SurfaceMesh@easy3d@@PEAU123@_K0@Z
	??$_Copy_memmove_n@PEAUHalfedgeConnectivity@SurfaceMesh@easy3d@@PEAU123@@std@@YAPEAUHalfedgeConnectivity@SurfaceMesh@easy3d@@PEAU123@_K0@Z
	??$_Copy_memmove_n@PEAUVertex@PointCloud@easy3d@@PEAU123@@std@@YAPEAUVertex@PointCloud@easy3d@@PEAU123@_K0@Z
	??$_Copy_memmove_n@PEAUVertex@PolyMesh@easy3d@@PEAU123@@std@@YAPEAUVertex@PolyMesh@easy3d@@PEAU123@_K0@Z
	??$_Copy_memmove_n@PEAUVertex@SurfaceMesh@easy3d@@PEAU123@@std@@YAPEAUVertex@SurfaceMesh@easy3d@@PEAU123@_K0@Z
	??$_Copy_memmove_n@PEAUVertexConnectivity@SurfaceMesh@easy3d@@PEAU123@@std@@YAPEAUVertexConnectivity@SurfaceMesh@easy3d@@PEAU123@_K0@Z
	??$_Copy_memmove_n@PEAV?$Vec@$02M@easy3d@@PEAV12@@std@@YAPEAV?$Vec@$02M@easy3d@@PEAV12@_K0@Z
	??$_Copy_memmove_n@PEBUVertex@PolyMesh@easy3d@@PEAU123@@std@@YAPEAUVertex@PolyMesh@easy3d@@PEBU123@_KPEAU123@@Z
	??$_Copy_nodes@$0A@@?$_Tree@V?$_Tset_traits@UCell@PolyMesh@easy3d@@U?$less@UCell@PolyMesh@easy3d@@@std@@V?$allocator@UCell@PolyMesh@easy3d@@@5@$0A@@std@@@std@@IEAAPEAU?$_Tree_node@UCell@PolyMesh@easy3d@@PEAX@1@PEAU21@0@Z
	??$_Copy_nodes@$0A@@?$_Tree@V?$_Tset_traits@UEdge@PolyMesh@easy3d@@U?$less@UEdge@PolyMesh@easy3d@@@std@@V?$allocator@UEdge@PolyMesh@easy3d@@@5@$0A@@std@@@std@@IEAAPEAU?$_Tree_node@UEdge@PolyMesh@easy3d@@PEAX@1@PEAU21@0@Z
	??$_Copy_nodes@$0A@@?$_Tree@V?$_Tset_traits@UHalfFace@PolyMesh@easy3d@@U?$less@UHalfFace@PolyMesh@easy3d@@@std@@V?$allocator@UHalfFace@PolyMesh@easy3d@@@5@$0A@@std@@@std@@IEAAPEAU?$_Tree_node@UHalfFace@PolyMesh@easy3d@@PEAX@1@PEAU21@0@Z
	??$_Copy_nodes@$0A@@?$_Tree@V?$_Tset_traits@UVertex@PolyMesh@easy3d@@U?$less@UVertex@PolyMesh@easy3d@@@std@@V?$allocator@UVertex@PolyMesh@easy3d@@@5@$0A@@std@@@std@@IEAAPEAU?$_Tree_node@UVertex@PolyMesh@easy3d@@PEAX@1@PEAU21@0@Z
	??$_Destroy_range@V?$allocator@UCellConnectivity@PolyMesh@easy3d@@@std@@@std@@YAXPEAUCellConnectivity@PolyMesh@easy3d@@QEAU123@AEAV?$allocator@UCellConnectivity@PolyMesh@easy3d@@@0@@Z
	??$_Destroy_range@V?$allocator@UEdgeConnectivity@PolyMesh@easy3d@@@std@@@std@@YAXPEAUEdgeConnectivity@PolyMesh@easy3d@@QEAU123@AEAV?$allocator@UEdgeConnectivity@PolyMesh@easy3d@@@0@@Z
	??$_Destroy_range@V?$allocator@UHalfFaceConnectivity@PolyMesh@easy3d@@@std@@@std@@YAXPEAUHalfFaceConnectivity@PolyMesh@easy3d@@QEAU123@AEAV?$allocator@UHalfFaceConnectivity@PolyMesh@easy3d@@@0@@Z
	??$_Destroy_range@V?$allocator@UVertexConnectivity@Graph@easy3d@@@std@@@std@@YAXPEAUVertexConnectivity@Graph@easy3d@@QEAU123@AEAV?$allocator@UVertexConnectivity@Graph@easy3d@@@0@@Z
	??$_Destroy_range@V?$allocator@UVertexConnectivity@PolyMesh@easy3d@@@std@@@std@@YAXPEAUVertexConnectivity@PolyMesh@easy3d@@QEAU123@AEAV?$allocator@UVertexConnectivity@PolyMesh@easy3d@@@0@@Z
	??$_Destroy_range@V?$allocator@V?$basic_string@DU?$char_traits@D@std@@V?$allocator@D@2@@std@@@std@@@std@@YAXPEAV?$basic_string@DU?$char_traits@D@std@@V?$allocator@D@2@@0@QEAV10@AEAV?$allocator@V?$basic_string@DU?$char_traits@D@std@@V?$allocator@D@2@@std@@@0@@Z
	??$_Destroy_range@V?$allocator@V?$vector@UVertex@PolyMesh@easy3d@@V?$allocator@UVertex@PolyMesh@easy3d@@@std@@@std@@@std@@@std@@YAXPEAV?$vector@UVertex@PolyMesh@easy3d@@V?$allocator@UVertex@PolyMesh@easy3d@@@std@@@0@QEAV10@AEAV?$allocator@V?$vector@UVertex@PolyMesh@easy3d@@V?$allocator@UVertex@PolyMesh@easy3d@@@std@@@std@@@0@@Z
	??$_Emplace_reallocate@AEBH@?$vector@HV?$allocator@H@std@@@std@@AEAAPEAHQEAHAEBH@Z
	??$_Emplace_reallocate@AEBUCellConnectivity@PolyMesh@easy3d@@@?$vector@UCellConnectivity@PolyMesh@easy3d@@V?$allocator@UCellConnectivity@PolyMesh@easy3d@@@std@@@std@@AEAAPEAUCellConnectivity@PolyMesh@easy3d@@QEAU234@AEBU234@@Z
	??$_Emplace_reallocate@AEBUEdge@Graph@easy3d@@@?$vector@UEdge@Graph@easy3d@@V?$allocator@UEdge@Graph@easy3d@@@std@@@std@@AEAAPEAUEdge@Graph@easy3d@@QEAU234@AEBU234@@Z
	??$_Emplace_reallocate@AEBUEdgeConnectivity@Graph@easy3d@@@?$vector@UEdgeConnectivity@Graph@easy3d@@V?$allocator@UEdgeConnectivity@Graph@easy3d@@@std@@@std@@AEAAPEAUEdgeConnectivity@Graph@easy3d@@QEAU234@AEBU234@@Z
	??$_Emplace_reallocate@AEBUEdgeConnectivity@PolyMesh@easy3d@@@?$vector@UEdgeConnectivity@PolyMesh@easy3d@@V?$allocator@UEdgeConnectivity@PolyMesh@easy3d@@@std@@@std@@AEAAPEAUEdgeConnectivity@PolyMesh@easy3d@@QEAU234@AEBU234@@Z
	??$_Emplace_reallocate@AEBUFace@SurfaceMesh@easy3d@@@?$vector@UFace@SurfaceMesh@easy3d@@V?$allocator@UFace@SurfaceMesh@easy3d@@@std@@@std@@AEAAPEAUFace@SurfaceMesh@easy3d@@QEAU234@AEBU234@@Z
	??$_Emplace_reallocate@AEBUFaceConnectivity@SurfaceMesh@easy3d@@@?$vector@UFaceConnectivity@SurfaceMesh@easy3d@@V?$allocator@UFaceConnectivity@SurfaceMesh@easy3d@@@std@@@std@@AEAAPEAUFaceConnectivity@SurfaceMesh@easy3d@@QEAU234@AEBU234@@Z
	??$_Emplace_reallocate@AEBUHalfFaceConnectivity@PolyMesh@easy3d@@@?$vector@UHalfFaceConnectivity@PolyMesh@easy3d@@V?$allocator@UHalfFaceConnectivity@PolyMesh@easy3d@@@std@@@std@@AEAAPEAUHalfFaceConnectivity@PolyMesh@easy3d@@QEAU234@AEBU234@@Z
	??$_Emplace_reallocate@AEBUHalfedge@SurfaceMesh@easy3d@@@?$vector@UHalfedge@SurfaceMesh@easy3d@@V?$allocator@UHalfedge@SurfaceMesh@easy3d@@@std@@@std@@AEAAPEAUHalfedge@SurfaceMesh@easy3d@@QEAU234@AEBU234@@Z
	??$_Emplace_reallocate@AEBUHalfedgeConnectivity@SurfaceMesh@easy3d@@@?$vector@UHalfedgeConnectivity@SurfaceMesh@easy3d@@V?$allocator@UHalfedgeConnectivity@SurfaceMesh@easy3d@@@std@@@std@@AEAAPEAUHalfedgeConnectivity@SurfaceMesh@easy3d@@QEAU234@AEBU234@@Z
	??$_Emplace_reallocate@AEBUVertex@PointCloud@easy3d@@@?$vector@UVertex@PointCloud@easy3d@@V?$allocator@UVertex@PointCloud@easy3d@@@std@@@std@@AEAAPEAUVertex@PointCloud@easy3d@@QEAU234@AEBU234@@Z
	??$_Emplace_reallocate@AEBUVertex@SurfaceMesh@easy3d@@@?$vector@UVertex@SurfaceMesh@easy3d@@V?$allocator@UVertex@SurfaceMesh@easy3d@@@std@@@std@@AEAAPEAUVertex@SurfaceMesh@easy3d@@QEAU234@AEBU234@@Z
	??$_Emplace_reallocate@AEBUVertexConnectivity@Graph@easy3d@@@?$vector@UVertexConnectivity@Graph@easy3d@@V?$allocator@UVertexConnectivity@Graph@easy3d@@@std@@@std@@AEAAPEAUVertexConnectivity@Graph@easy3d@@QEAU234@AEBU234@@Z
	??$_Emplace_reallocate@AEBUVertexConnectivity@PolyMesh@easy3d@@@?$vector@UVertexConnectivity@PolyMesh@easy3d@@V?$allocator@UVertexConnectivity@PolyMesh@easy3d@@@std@@@std@@AEAAPEAUVertexConnectivity@PolyMesh@easy3d@@QEAU234@AEBU234@@Z
	??$_Emplace_reallocate@AEBUVertexConnectivity@SurfaceMesh@easy3d@@@?$vector@UVertexConnectivity@SurfaceMesh@easy3d@@V?$allocator@UVertexConnectivity@SurfaceMesh@easy3d@@@std@@@std@@AEAAPEAUVertexConnectivity@SurfaceMesh@easy3d@@QEAU234@AEBU234@@Z
	??$_Emplace_reallocate@AEBV?$Vec@$02M@easy3d@@@?$vector@V?$Vec@$02M@easy3d@@V?$allocator@V?$Vec@$02M@easy3d@@@std@@@std@@AEAAPEAV?$Vec@$02M@easy3d@@QEAV23@AEBV23@@Z
	??$_Emplace_reallocate@AEBV?$basic_string@DU?$char_traits@D@std@@V?$allocator@D@2@@std@@@?$vector@V?$basic_string@DU?$char_traits@D@std@@V?$allocator@D@2@@std@@V?$allocator@V?$basic_string@DU?$char_traits@D@std@@V?$allocator@D@2@@std@@@2@@std@@AEAAPEAV?$basic_string@DU?$char_traits@D@std@@V?$allocator@D@2@@1@QEAV21@AEBV21@@Z
	??$_Emplace_reallocate@AEBV?$vector@UVertex@PolyMesh@easy3d@@V?$allocator@UVertex@PolyMesh@easy3d@@@std@@@std@@@?$vector@V?$vector@UVertex@PolyMesh@easy3d@@V?$allocator@UVertex@PolyMesh@easy3d@@@std@@@std@@V?$allocator@V?$vector@UVertex@PolyMesh@easy3d@@V?$allocator@UVertex@PolyMesh@easy3d@@@std@@@std@@@2@@std@@AEAAPEAV?$vector@UVertex@PolyMesh@easy3d@@V?$allocator@UVertex@PolyMesh@easy3d@@@std@@@1@QEAV21@AEBV21@@Z
	??$_Emplace_reallocate@PEAVBasePropertyArray@easy3d@@@?$vector@PEAVBasePropertyArray@easy3d@@V?$allocator@PEAVBasePropertyArray@easy3d@@@std@@@std@@AEAAPEAPEAVBasePropertyArray@easy3d@@QEAPEAV23@$$QEAPEAV23@@Z
	??$_Emplace_reallocate@U?$pair@UHalfedge@SurfaceMesh@easy3d@@U123@@std@@@?$vector@U?$pair@UHalfedge@SurfaceMesh@easy3d@@U123@@std@@V?$allocator@U?$pair@UHalfedge@SurfaceMesh@easy3d@@U123@@std@@@2@@std@@AEAAPEAU?$pair@UHalfedge@SurfaceMesh@easy3d@@U123@@1@QEAU21@$$QEAU21@@Z
	??$_Emplace_reallocate@UEdge@SurfaceMesh@easy3d@@@?$vector@UEdge@SurfaceMesh@easy3d@@V?$allocator@UEdge@SurfaceMesh@easy3d@@@std@@@std@@AEAAPEAUEdge@SurfaceMesh@easy3d@@QEAU234@$$QEAU234@@Z
	??$_Emplace_reallocate@UFace@SurfaceMesh@easy3d@@@?$vector@UFace@SurfaceMesh@easy3d@@V?$allocator@UFace@SurfaceMesh@easy3d@@@std@@@std@@AEAAPEAUFace@SurfaceMesh@easy3d@@QEAU234@$$QEAU234@@Z
	??$_Emplace_reallocate@UVertex@SurfaceMesh@easy3d@@@?$vector@UVertex@SurfaceMesh@easy3d@@V?$allocator@UVertex@SurfaceMesh@easy3d@@@std@@@std@@AEAAPEAUVertex@SurfaceMesh@easy3d@@QEAU234@$$QEAU234@@Z
	??$_Erase_head@V?$allocator@U?$_Tree_node@UCell@PolyMesh@easy3d@@PEAX@std@@@std@@@?$_Tree_val@U?$_Tree_simple_types@UCell@PolyMesh@easy3d@@@std@@@std@@QEAAXAEAV?$allocator@U?$_Tree_node@UCell@PolyMesh@easy3d@@PEAX@std@@@1@@Z
	??$_Erase_head@V?$allocator@U?$_Tree_node@UEdge@PolyMesh@easy3d@@PEAX@std@@@std@@@?$_Tree_val@U?$_Tree_simple_types@UEdge@PolyMesh@easy3d@@@std@@@std@@QEAAXAEAV?$allocator@U?$_Tree_node@UEdge@PolyMesh@easy3d@@PEAX@std@@@1@@Z
	??$_Erase_head@V?$allocator@U?$_Tree_node@UHalfFace@PolyMesh@easy3d@@PEAX@std@@@std@@@?$_Tree_val@U?$_Tree_simple_types@UHalfFace@PolyMesh@easy3d@@@std@@@std@@QEAAXAEAV?$allocator@U?$_Tree_node@UHalfFace@PolyMesh@easy3d@@PEAX@std@@@1@@Z
	??$_Erase_head@V?$allocator@U?$_Tree_node@UVertex@PolyMesh@easy3d@@PEAX@std@@@std@@@?$_Tree_val@U?$_Tree_simple_types@UVertex@PolyMesh@easy3d@@@std@@@std@@QEAAXAEAV?$allocator@U?$_Tree_node@UVertex@PolyMesh@easy3d@@PEAX@std@@@1@@Z
	??$_Erase_tree@V?$allocator@U?$_Tree_node@HPEAX@std@@@std@@@?$_Tree_val@U?$_Tree_simple_types@H@std@@@std@@QEAAXAEAV?$allocator@U?$_Tree_node@HPEAX@std@@@1@PEAU?$_Tree_node@HPEAX@1@@Z
	??$_Erase_tree@V?$allocator@U?$_Tree_node@UCell@PolyMesh@easy3d@@PEAX@std@@@std@@@?$_Tree_val@U?$_Tree_simple_types@UCell@PolyMesh@easy3d@@@std@@@std@@QEAAXAEAV?$allocator@U?$_Tree_node@UCell@PolyMesh@easy3d@@PEAX@std@@@1@PEAU?$_Tree_node@UCell@PolyMesh@easy3d@@PEAX@1@@Z
	??$_Erase_tree@V?$allocator@U?$_Tree_node@UEdge@PolyMesh@easy3d@@PEAX@std@@@std@@@?$_Tree_val@U?$_Tree_simple_types@UEdge@PolyMesh@easy3d@@@std@@@std@@QEAAXAEAV?$allocator@U?$_Tree_node@UEdge@PolyMesh@easy3d@@PEAX@std@@@1@PEAU?$_Tree_node@UEdge@PolyMesh@easy3d@@PEAX@1@@Z
	??$_Erase_tree@V?$allocator@U?$_Tree_node@UHalfFace@PolyMesh@easy3d@@PEAX@std@@@std@@@?$_Tree_val@U?$_Tree_simple_types@UHalfFace@PolyMesh@easy3d@@@std@@@std@@QEAAXAEAV?$allocator@U?$_Tree_node@UHalfFace@PolyMesh@easy3d@@PEAX@std@@@1@PEAU?$_Tree_node@UHalfFace@PolyMesh@easy3d@@PEAX@1@@Z
	??$_Erase_tree@V?$allocator@U?$_Tree_node@UVertex@PolyMesh@easy3d@@PEAX@std@@@std@@@?$_Tree_val@U?$_Tree_simple_types@UVertex@PolyMesh@easy3d@@@std@@@std@@QEAAXAEAV?$allocator@U?$_Tree_node@UVertex@PolyMesh@easy3d@@PEAX@std@@@1@PEAU?$_Tree_node@UVertex@PolyMesh@easy3d@@PEAX@1@@Z
	??$_Erase_tree_and_orphan@V?$allocator@U?$_Tree_node@UCell@PolyMesh@easy3d@@PEAX@std@@@std@@@?$_Tree_val@U?$_Tree_simple_types@UCell@PolyMesh@easy3d@@@std@@@std@@QEAAXAEAV?$allocator@U?$_Tree_node@UCell@PolyMesh@easy3d@@PEAX@std@@@1@PEAU?$_Tree_node@UCell@PolyMesh@easy3d@@PEAX@1@@Z
	??$_Erase_tree_and_orphan@V?$allocator@U?$_Tree_node@UEdge@PolyMesh@easy3d@@PEAX@std@@@std@@@?$_Tree_val@U?$_Tree_simple_types@UEdge@PolyMesh@easy3d@@@std@@@std@@QEAAXAEAV?$allocator@U?$_Tree_node@UEdge@PolyMesh@easy3d@@PEAX@std@@@1@PEAU?$_Tree_node@UEdge@PolyMesh@easy3d@@PEAX@1@@Z
	??$_Erase_tree_and_orphan@V?$allocator@U?$_Tree_node@UHalfFace@PolyMesh@easy3d@@PEAX@std@@@std@@@?$_Tree_val@U?$_Tree_simple_types@UHalfFace@PolyMesh@easy3d@@@std@@@std@@QEAAXAEAV?$allocator@U?$_Tree_node@UHalfFace@PolyMesh@easy3d@@PEAX@std@@@1@PEAU?$_Tree_node@UHalfFace@PolyMesh@easy3d@@PEAX@1@@Z
	??$_Erase_tree_and_orphan@V?$allocator@U?$_Tree_node@UVertex@PolyMesh@easy3d@@PEAX@std@@@std@@@?$_Tree_val@U?$_Tree_simple_types@UVertex@PolyMesh@easy3d@@@std@@@std@@QEAAXAEAV?$allocator@U?$_Tree_node@UVertex@PolyMesh@easy3d@@PEAX@std@@@1@PEAU?$_Tree_node@UVertex@PolyMesh@easy3d@@PEAX@1@@Z
	??$_Fill_zero_memset@PEAI@std@@YAXPEAI_K@Z
	??$_Find_hint@H@?$_Tree@V?$_Tset_traits@HU?$less@H@std@@V?$allocator@H@2@$0A@@std@@@std@@IEBA?AU?$_Tree_find_hint_result@PEAU?$_Tree_node@HPEAX@std@@@1@QEAU?$_Tree_node@HPEAX@1@AEBH@Z
	??$_Find_hint@UCell@PolyMesh@easy3d@@@?$_Tree@V?$_Tset_traits@UCell@PolyMesh@easy3d@@U?$less@UCell@PolyMesh@easy3d@@@std@@V?$allocator@UCell@PolyMesh@easy3d@@@5@$0A@@std@@@std@@IEBA?AU?$_Tree_find_hint_result@PEAU?$_Tree_node@UCell@PolyMesh@easy3d@@PEAX@std@@@1@QEAU?$_Tree_node@UCell@PolyMesh@easy3d@@PEAX@1@AEBUCell@PolyMesh@easy3d@@@Z
	??$_Find_hint@UEdge@PolyMesh@easy3d@@@?$_Tree@V?$_Tset_traits@UEdge@PolyMesh@easy3d@@U?$less@UEdge@PolyMesh@easy3d@@@std@@V?$allocator@UEdge@PolyMesh@easy3d@@@5@$0A@@std@@@std@@IEBA?AU?$_Tree_find_hint_result@PEAU?$_Tree_node@UEdge@PolyMesh@easy3d@@PEAX@std@@@1@QEAU?$_Tree_node@UEdge@PolyMesh@easy3d@@PEAX@1@AEBUEdge@PolyMesh@easy3d@@@Z
	??$_Find_hint@UHalfFace@PolyMesh@easy3d@@@?$_Tree@V?$_Tset_traits@UHalfFace@PolyMesh@easy3d@@U?$less@UHalfFace@PolyMesh@easy3d@@@std@@V?$allocator@UHalfFace@PolyMesh@easy3d@@@5@$0A@@std@@@std@@IEBA?AU?$_Tree_find_hint_result@PEAU?$_Tree_node@UHalfFace@PolyMesh@easy3d@@PEAX@std@@@1@QEAU?$_Tree_node@UHalfFace@PolyMesh@easy3d@@PEAX@1@AEBUHalfFace@PolyMesh@easy3d@@@Z
	??$_Find_hint@UVertex@PolyMesh@easy3d@@@?$_Tree@V?$_Tset_traits@UVertex@PolyMesh@easy3d@@U?$less@UVertex@PolyMesh@easy3d@@@std@@V?$allocator@UVertex@PolyMesh@easy3d@@@5@$0A@@std@@@std@@IEBA?AU?$_Tree_find_hint_result@PEAU?$_Tree_node@UVertex@PolyMesh@easy3d@@PEAX@std@@@1@QEAU?$_Tree_node@UVertex@PolyMesh@easy3d@@PEAX@1@AEBUVertex@PolyMesh@easy3d@@@Z
	??$_Fnv1a_append_value@H@std@@YA_K_KAEBH@Z
	??$_Free_non_head@V?$allocator@U?$_List_node@U?$pair@$$CBHV?$vector@HV?$allocator@H@std@@@std@@@std@@PEAX@std@@@std@@@?$_List_node@U?$pair@$$CBHV?$vector@HV?$allocator@H@std@@@std@@@std@@PEAX@std@@SAXAEAV?$allocator@U?$_List_node@U?$pair@$$CBHV?$vector@HV?$allocator@H@std@@@std@@@std@@PEAX@std@@@1@PEAU01@@Z
	??$_Free_non_head@V?$allocator@U?$_List_node@U?$pair@$$CBUVertex@SurfaceMesh@easy3d@@V?$vector@UVertex@SurfaceMesh@easy3d@@V?$allocator@UVertex@SurfaceMesh@easy3d@@@std@@@std@@@std@@PEAX@std@@@std@@@?$_List_node@U?$pair@$$CBUVertex@SurfaceMesh@easy3d@@V?$vector@UVertex@SurfaceMesh@easy3d@@V?$allocator@UVertex@SurfaceMesh@easy3d@@@std@@@std@@@std@@PEAX@std@@SAXAEAV?$allocator@U?$_List_node@U?$pair@$$CBUVertex@SurfaceMesh@easy3d@@V?$vector@UVertex@SurfaceMesh@easy3d@@V?$allocator@UVertex@SurfaceMesh@easy3d@@@std@@@std@@@std@@PEAX@std@@@1@PEAU01@@Z
	??$_Freenode@V?$allocator@U?$_List_node@U?$pair@$$CBHV?$vector@HV?$allocator@H@std@@@std@@@std@@PEAX@std@@@std@@@?$_List_node@U?$pair@$$CBHV?$vector@HV?$allocator@H@std@@@std@@@std@@PEAX@std@@SAXAEAV?$allocator@U?$_List_node@U?$pair@$$CBHV?$vector@HV?$allocator@H@std@@@std@@@std@@PEAX@std@@@1@PEAU01@@Z
	??$_Getvals@_W@?$time_get@DV?$istreambuf_iterator@DU?$char_traits@D@std@@@std@@@std@@IEAAX_WAEBV_Locinfo@1@@Z
	??$_Getvals@_W@?$time_get@_WV?$istreambuf_iterator@_WU?$char_traits@_W@std@@@std@@@std@@IEAAX_WAEBV_Locinfo@1@@Z
	??$_Guess_median_unchecked@PEAUVertex@SurfaceMesh@easy3d@@U?$less@X@std@@@std@@YAXPEAUVertex@SurfaceMesh@easy3d@@00U?$less@X@0@@Z
	??$_Hash_representation@H@std@@YA_KAEBH@Z
	??$_Insert_string@DU?$char_traits@D@std@@_K@std@@YAAEAV?$basic_ostream@DU?$char_traits@D@std@@@0@AEAV10@QEBD_K@Z
	??$_Is_all_bits_zero@I@std@@YA_NAEBI@Z
	??$_Maklocstr@D@std@@YAPEADPEBDPEADAEBU_Cvtvec@@@Z
	??$_Reallocate_grow_by@V<lambda_319d5e083f45f90dcdce5dce53cbb275>@@D@?$basic_string@DU?$char_traits@D@std@@V?$allocator@D@2@@std@@AEAAAEAV01@_KV<lambda_319d5e083f45f90dcdce5dce53cbb275>@@D@Z
	??$_Reallocate_grow_by@V<lambda_65e615be2a453ca0576c979606f46740>@@PEBD_K@?$basic_string@DU?$char_traits@D@std@@V?$allocator@D@2@@std@@AEAAAEAV01@_KV<lambda_65e615be2a453ca0576c979606f46740>@@PEBD_K@Z
	??$_Reallocate_grow_by@V<lambda_f3a66ab6a0570788f31503db83886f49>@@_KPEBD_K@?$basic_string@DU?$char_traits@D@std@@V?$allocator@D@2@@std@@AEAAAEAV01@_KV<lambda_f3a66ab6a0570788f31503db83886f49>@@_KPEBD2@Z
	??$_Resize@UEdgeConnectivity@Graph@easy3d@@@?$vector@UEdgeConnectivity@Graph@easy3d@@V?$allocator@UEdgeConnectivity@Graph@easy3d@@@std@@@std@@AEAAX_KAEBUEdgeConnectivity@Graph@easy3d@@@Z
	??$_Resize@UFace@SurfaceMesh@easy3d@@@?$vector@UFace@SurfaceMesh@easy3d@@V?$allocator@UFace@SurfaceMesh@easy3d@@@std@@@std@@AEAAX_KAEBUFace@SurfaceMesh@easy3d@@@Z
	??$_Resize@UFaceConnectivity@SurfaceMesh@easy3d@@@?$vector@UFaceConnectivity@SurfaceMesh@easy3d@@V?$allocator@UFaceConnectivity@SurfaceMesh@easy3d@@@std@@@std@@AEAAX_KAEBUFaceConnectivity@SurfaceMesh@easy3d@@@Z
	??$_Resize@UHalfedge@SurfaceMesh@easy3d@@@?$vector@UHalfedge@SurfaceMesh@easy3d@@V?$allocator@UHalfedge@SurfaceMesh@easy3d@@@std@@@std@@AEAAX_KAEBUHalfedge@SurfaceMesh@easy3d@@@Z
	??$_Resize@UHalfedgeConnectivity@SurfaceMesh@easy3d@@@?$vector@UHalfedgeConnectivity@SurfaceMesh@easy3d@@V?$allocator@UHalfedgeConnectivity@SurfaceMesh@easy3d@@@std@@@std@@AEAAX_KAEBUHalfedgeConnectivity@SurfaceMesh@easy3d@@@Z
	??$_Resize@UVertex@PointCloud@easy3d@@@?$vector@UVertex@PointCloud@easy3d@@V?$allocator@UVertex@PointCloud@easy3d@@@std@@@std@@AEAAX_KAEBUVertex@PointCloud@easy3d@@@Z
	??$_Resize@UVertex@SurfaceMesh@easy3d@@@?$vector@UVertex@SurfaceMesh@easy3d@@V?$allocator@UVertex@SurfaceMesh@easy3d@@@std@@@std@@AEAAX_KAEBUVertex@SurfaceMesh@easy3d@@@Z
	??$_Resize@UVertexConnectivity@SurfaceMesh@easy3d@@@?$vector@UVertexConnectivity@SurfaceMesh@easy3d@@V?$allocator@UVertexConnectivity@SurfaceMesh@easy3d@@@std@@@std@@AEAAX_KAEBUVertexConnectivity@SurfaceMesh@easy3d@@@Z
	??$_Resize@V?$Vec@$02M@easy3d@@@?$vector@V?$Vec@$02M@easy3d@@V?$allocator@V?$Vec@$02M@easy3d@@@std@@@std@@AEAAX_KAEBV?$Vec@$02M@easy3d@@@Z
	??$_Resize_reallocate@I@?$vector@IV?$allocator@I@std@@@std@@AEAAX_KAEBI@Z
	??$_Resize_reallocate@UCellConnectivity@PolyMesh@easy3d@@@?$vector@UCellConnectivity@PolyMesh@easy3d@@V?$allocator@UCellConnectivity@PolyMesh@easy3d@@@std@@@std@@AEAAX_KAEBUCellConnectivity@PolyMesh@easy3d@@@Z
	??$_Resize_reallocate@UEdgeConnectivity@Graph@easy3d@@@?$vector@UEdgeConnectivity@Graph@easy3d@@V?$allocator@UEdgeConnectivity@Graph@easy3d@@@std@@@std@@AEAAX_KAEBUEdgeConnectivity@Graph@easy3d@@@Z
	??$_Resize_reallocate@UEdgeConnectivity@PolyMesh@easy3d@@@?$vector@UEdgeConnectivity@PolyMesh@easy3d@@V?$allocator@UEdgeConnectivity@PolyMesh@easy3d@@@std@@@std@@AEAAX_KAEBUEdgeConnectivity@PolyMesh@easy3d@@@Z
	??$_Resize_reallocate@UFace@SurfaceMesh@easy3d@@@?$vector@UFace@SurfaceMesh@easy3d@@V?$allocator@UFace@SurfaceMesh@easy3d@@@std@@@std@@AEAAX_KAEBUFace@SurfaceMesh@easy3d@@@Z
	??$_Resize_reallocate@UFaceConnectivity@SurfaceMesh@easy3d@@@?$vector@UFaceConnectivity@SurfaceMesh@easy3d@@V?$allocator@UFaceConnectivity@SurfaceMesh@easy3d@@@std@@@std@@AEAAX_KAEBUFaceConnectivity@SurfaceMesh@easy3d@@@Z
	??$_Resize_reallocate@UHalfFaceConnectivity@PolyMesh@easy3d@@@?$vector@UHalfFaceConnectivity@PolyMesh@easy3d@@V?$allocator@UHalfFaceConnectivity@PolyMesh@easy3d@@@std@@@std@@AEAAX_KAEBUHalfFaceConnectivity@PolyMesh@easy3d@@@Z
	??$_Resize_reallocate@UHalfedge@SurfaceMesh@easy3d@@@?$vector@UHalfedge@SurfaceMesh@easy3d@@V?$allocator@UHalfedge@SurfaceMesh@easy3d@@@std@@@std@@AEAAX_KAEBUHalfedge@SurfaceMesh@easy3d@@@Z
	??$_Resize_reallocate@UHalfedgeConnectivity@SurfaceMesh@easy3d@@@?$vector@UHalfedgeConnectivity@SurfaceMesh@easy3d@@V?$allocator@UHalfedgeConnectivity@SurfaceMesh@easy3d@@@std@@@std@@AEAAX_KAEBUHalfedgeConnectivity@SurfaceMesh@easy3d@@@Z
	??$_Resize_reallocate@UVertex@PointCloud@easy3d@@@?$vector@UVertex@PointCloud@easy3d@@V?$allocator@UVertex@PointCloud@easy3d@@@std@@@std@@AEAAX_KAEBUVertex@PointCloud@easy3d@@@Z
	??$_Resize_reallocate@UVertex@SurfaceMesh@easy3d@@@?$vector@UVertex@SurfaceMesh@easy3d@@V?$allocator@UVertex@SurfaceMesh@easy3d@@@std@@@std@@AEAAX_KAEBUVertex@SurfaceMesh@easy3d@@@Z
	??$_Resize_reallocate@UVertexConnectivity@Graph@easy3d@@@?$vector@UVertexConnectivity@Graph@easy3d@@V?$allocator@UVertexConnectivity@Graph@easy3d@@@std@@@std@@AEAAX_KAEBUVertexConnectivity@Graph@easy3d@@@Z
	??$_Resize_reallocate@UVertexConnectivity@PolyMesh@easy3d@@@?$vector@UVertexConnectivity@PolyMesh@easy3d@@V?$allocator@UVertexConnectivity@PolyMesh@easy3d@@@std@@@std@@AEAAX_KAEBUVertexConnectivity@PolyMesh@easy3d@@@Z
	??$_Resize_reallocate@UVertexConnectivity@SurfaceMesh@easy3d@@@?$vector@UVertexConnectivity@SurfaceMesh@easy3d@@V?$allocator@UVertexConnectivity@SurfaceMesh@easy3d@@@std@@@std@@AEAAX_KAEBUVertexConnectivity@SurfaceMesh@easy3d@@@Z
	??$_Resize_reallocate@U_Value_init_tag@std@@@?$vector@NV?$allocator@N@std@@@std@@AEAAX_KAEBU_Value_init_tag@1@@Z
	??$_Resize_reallocate@U_Value_init_tag@std@@@?$vector@PEAVBasePropertyArray@easy3d@@V?$allocator@PEAVBasePropertyArray@easy3d@@@std@@@std@@AEAAX_KAEBU_Value_init_tag@1@@Z
	??$_Resize_reallocate@U_Value_init_tag@std@@@?$vector@UHalfFace@PolyMesh@easy3d@@V?$allocator@UHalfFace@PolyMesh@easy3d@@@std@@@std@@AEAAX_KAEBU_Value_init_tag@1@@Z
	??$_Resize_reallocate@U_Value_init_tag@std@@@?$vector@UHalfedge@SurfaceMesh@easy3d@@V?$allocator@UHalfedge@SurfaceMesh@easy3d@@@std@@@std@@AEAAX_KAEBU_Value_init_tag@1@@Z
	??$_Resize_reallocate@U_Value_init_tag@std@@@?$vector@UVertex@PolyMesh@easy3d@@V?$allocator@UVertex@PolyMesh@easy3d@@@std@@@std@@AEAAX_KAEBU_Value_init_tag@1@@Z
	??$_Resize_reallocate@U_Value_init_tag@std@@@?$vector@UVertex@SurfaceMesh@easy3d@@V?$allocator@UVertex@SurfaceMesh@easy3d@@@std@@@std@@AEAAX_KAEBU_Value_init_tag@1@@Z
	??$_Resize_reallocate@V?$Vec@$02M@easy3d@@@?$vector@V?$Vec@$02M@easy3d@@V?$allocator@V?$Vec@$02M@easy3d@@@std@@@std@@AEAAX_KAEBV?$Vec@$02M@easy3d@@@Z
	??$_Sort_unchecked@PEAUVertex@SurfaceMesh@easy3d@@U?$less@X@std@@@std@@YAXPEAUVertex@SurfaceMesh@easy3d@@0_JU?$less@X@0@@Z
	??$_Try_emplace@AEBH$$V@?$_Hash@V?$_Umap_traits@HV?$vector@HV?$allocator@H@std@@@std@@V?$_Uhash_compare@HU?$hash@H@std@@U?$equal_to@H@2@@2@V?$allocator@U?$pair@$$CBHV?$vector@HV?$allocator@H@std@@@std@@@std@@@2@$0A@@std@@@std@@IEAA?AU?$pair@PEAU?$_List_node@U?$pair@$$CBHV?$vector@HV?$allocator@H@std@@@std@@@std@@PEAX@std@@_N@1@AEBH@Z
	??$_Try_emplace@AEBUVertex@SurfaceMesh@easy3d@@$$V@?$_Hash@V?$_Umap_traits@UVertex@SurfaceMesh@easy3d@@V?$vector@UVertex@SurfaceMesh@easy3d@@V?$allocator@UVertex@SurfaceMesh@easy3d@@@std@@@std@@V?$_Uhash_compare@UVertex@SurfaceMesh@easy3d@@UHash@BaseHandle@23@U?$equal_to@UVertex@SurfaceMesh@easy3d@@@std@@@5@V?$allocator@U?$pair@$$CBUVertex@SurfaceMesh@easy3d@@V?$vector@UVertex@SurfaceMesh@easy3d@@V?$allocator@UVertex@SurfaceMesh@easy3d@@@std@@@std@@@std@@@5@$0A@@std@@@std@@IEAA?AU?$pair@PEAU?$_List_node@U?$pair@$$CBUVertex@SurfaceMesh@easy3d@@V?$vector@UVertex@SurfaceMesh@easy3d@@V?$allocator@UVertex@SurfaceMesh@easy3d@@@std@@@std@@@std@@PEAX@std@@_N@1@AEBUVertex@SurfaceMesh@easy3d@@@Z
	??$_UIntegral_to_buff@D_K@std@@YAPEADPEAD_K@Z
	??$_UIntegral_to_string@D_K@std@@YA?AV?$basic_string@DU?$char_traits@D@std@@V?$allocator@D@2@@0@_K@Z
	??$_Uninitialized_copy@PEAUCellConnectivity@PolyMesh@easy3d@@PEAU123@V?$allocator@UCellConnectivity@PolyMesh@easy3d@@@std@@@std@@YAPEAUCellConnectivity@PolyMesh@easy3d@@PEAU123@00AEAV?$allocator@UCellConnectivity@PolyMesh@easy3d@@@0@@Z
	??$_Uninitialized_copy@PEAUEdgeConnectivity@PolyMesh@easy3d@@PEAU123@V?$allocator@UEdgeConnectivity@PolyMesh@easy3d@@@std@@@std@@YAPEAUEdgeConnectivity@PolyMesh@easy3d@@PEAU123@00AEAV?$allocator@UEdgeConnectivity@PolyMesh@easy3d@@@0@@Z
	??$_Uninitialized_copy@PEAUHalfFaceConnectivity@PolyMesh@easy3d@@PEAU123@V?$allocator@UHalfFaceConnectivity@PolyMesh@easy3d@@@std@@@std@@YAPEAUHalfFaceConnectivity@PolyMesh@easy3d@@PEAU123@00AEAV?$allocator@UHalfFaceConnectivity@PolyMesh@easy3d@@@0@@Z
	??$_Uninitialized_copy@PEAUVertexConnectivity@PolyMesh@easy3d@@PEAU123@V?$allocator@UVertexConnectivity@PolyMesh@easy3d@@@std@@@std@@YAPEAUVertexConnectivity@PolyMesh@easy3d@@PEAU123@00AEAV?$allocator@UVertexConnectivity@PolyMesh@easy3d@@@0@@Z
	??$_Uninitialized_fill_n@V?$allocator@UCellConnectivity@PolyMesh@easy3d@@@std@@@std@@YAPEAUCellConnectivity@PolyMesh@easy3d@@PEAU123@_KAEBU123@AEAV?$allocator@UCellConnectivity@PolyMesh@easy3d@@@0@@Z
	??$_Uninitialized_fill_n@V?$allocator@UEdgeConnectivity@PolyMesh@easy3d@@@std@@@std@@YAPEAUEdgeConnectivity@PolyMesh@easy3d@@PEAU123@_KAEBU123@AEAV?$allocator@UEdgeConnectivity@PolyMesh@easy3d@@@0@@Z
	??$_Uninitialized_fill_n@V?$allocator@UHalfFaceConnectivity@PolyMesh@easy3d@@@std@@@std@@YAPEAUHalfFaceConnectivity@PolyMesh@easy3d@@PEAU123@_KAEBU123@AEAV?$allocator@UHalfFaceConnectivity@PolyMesh@easy3d@@@0@@Z
	??$_Uninitialized_fill_n@V?$allocator@UVertexConnectivity@Graph@easy3d@@@std@@@std@@YAPEAUVertexConnectivity@Graph@easy3d@@PEAU123@_KAEBU123@AEAV?$allocator@UVertexConnectivity@Graph@easy3d@@@0@@Z
	??$_Uninitialized_fill_n@V?$allocator@UVertexConnectivity@PolyMesh@easy3d@@@std@@@std@@YAPEAUVertexConnectivity@PolyMesh@easy3d@@PEAU123@_KAEBU123@AEAV?$allocator@UVertexConnectivity@PolyMesh@easy3d@@@0@@Z
	??$_Uninitialized_move@PEAUCellConnectivity@PolyMesh@easy3d@@V?$allocator@UCellConnectivity@PolyMesh@easy3d@@@std@@@std@@YAPEAUCellConnectivity@PolyMesh@easy3d@@QEAU123@0PEAU123@AEAV?$allocator@UCellConnectivity@PolyMesh@easy3d@@@0@@Z
	??$_Uninitialized_move@PEAUEdgeConnectivity@PolyMesh@easy3d@@V?$allocator@UEdgeConnectivity@PolyMesh@easy3d@@@std@@@std@@YAPEAUEdgeConnectivity@PolyMesh@easy3d@@QEAU123@0PEAU123@AEAV?$allocator@UEdgeConnectivity@PolyMesh@easy3d@@@0@@Z
	??$_Uninitialized_move@PEAUHalfFaceConnectivity@PolyMesh@easy3d@@V?$allocator@UHalfFaceConnectivity@PolyMesh@easy3d@@@std@@@std@@YAPEAUHalfFaceConnectivity@PolyMesh@easy3d@@QEAU123@0PEAU123@AEAV?$allocator@UHalfFaceConnectivity@PolyMesh@easy3d@@@0@@Z
	??$_Uninitialized_move@PEAUVertexConnectivity@Graph@easy3d@@V?$allocator@UVertexConnectivity@Graph@easy3d@@@std@@@std@@YAPEAUVertexConnectivity@Graph@easy3d@@QEAU123@0PEAU123@AEAV?$allocator@UVertexConnectivity@Graph@easy3d@@@0@@Z
	??$_Uninitialized_move@PEAUVertexConnectivity@PolyMesh@easy3d@@V?$allocator@UVertexConnectivity@PolyMesh@easy3d@@@std@@@std@@YAPEAUVertexConnectivity@PolyMesh@easy3d@@QEAU123@0PEAU123@AEAV?$allocator@UVertexConnectivity@PolyMesh@easy3d@@@0@@Z
	??$_Uninitialized_move@PEAV?$basic_string@DU?$char_traits@D@std@@V?$allocator@D@2@@std@@V?$allocator@V?$basic_string@DU?$char_traits@D@std@@V?$allocator@D@2@@std@@@2@@std@@YAPEAV?$basic_string@DU?$char_traits@D@std@@V?$allocator@D@2@@0@QEAV10@0PEAV10@AEAV?$allocator@V?$basic_string@DU?$char_traits@D@std@@V?$allocator@D@2@@std@@@0@@Z
	??$_Uninitialized_move@PEAV?$vector@UVertex@PolyMesh@easy3d@@V?$allocator@UVertex@PolyMesh@easy3d@@@std@@@std@@V?$allocator@V?$vector@UVertex@PolyMesh@easy3d@@V?$allocator@UVertex@PolyMesh@easy3d@@@std@@@std@@@2@@std@@YAPEAV?$vector@UVertex@PolyMesh@easy3d@@V?$allocator@UVertex@PolyMesh@easy3d@@@std@@@0@QEAV10@0PEAV10@AEAV?$allocator@V?$vector@UVertex@PolyMesh@easy3d@@V?$allocator@UVertex@PolyMesh@easy3d@@@std@@@std@@@0@@Z
	??$_Uninitialized_value_construct_n@V?$allocator@UHalfFace@PolyMesh@easy3d@@@std@@@std@@YAPEAUHalfFace@PolyMesh@easy3d@@PEAU123@_KAEAV?$allocator@UHalfFace@PolyMesh@easy3d@@@0@@Z
	??$_Uninitialized_value_construct_n@V?$allocator@UHalfedge@SurfaceMesh@easy3d@@@std@@@std@@YAPEAUHalfedge@SurfaceMesh@easy3d@@PEAU123@_KAEAV?$allocator@UHalfedge@SurfaceMesh@easy3d@@@0@@Z
	??$_Uninitialized_value_construct_n@V?$allocator@UVertex@PolyMesh@easy3d@@@std@@@std@@YAPEAUVertex@PolyMesh@easy3d@@PEAU123@_KAEAV?$allocator@UVertex@PolyMesh@easy3d@@@0@@Z
	??$_Uninitialized_value_construct_n@V?$allocator@UVertex@SurfaceMesh@easy3d@@@std@@@std@@YAPEAUVertex@SurfaceMesh@easy3d@@PEAU123@_KAEAV?$allocator@UVertex@SurfaceMesh@easy3d@@@0@@Z
	??$_Zero_range@PEAD@std@@YAPEADQEAD0@Z
	??$_Zero_range@PEAN@std@@YAPEANQEAN0@Z
	??$_Zero_range@PEAPEAVBasePropertyArray@easy3d@@@std@@YAPEAPEAVBasePropertyArray@easy3d@@QEAPEAV12@0@Z
	??$_solve_impl@V?$Matrix@N$0?0$00$0A@$0?0$00@Eigen@@V12@@?$ColPivHouseholderQR@V?$Matrix@N$0?0$0?0$0A@$0?0$0?0@Eigen@@@Eigen@@QEBAXAEBV?$Matrix@N$0?0$00$0A@$0?0$00@1@AEAV21@@Z
	??$add@UCellConnectivity@PolyMesh@easy3d@@@PropertyContainer@easy3d@@QEAA?AV?$Property@UCellConnectivity@PolyMesh@easy3d@@@1@AEBV?$basic_string@DU?$char_traits@D@std@@V?$allocator@D@2@@std@@UCellConnectivity@PolyMesh@1@@Z
	??$add@UEdgeConnectivity@Graph@easy3d@@@PropertyContainer@easy3d@@QEAA?AV?$Property@UEdgeConnectivity@Graph@easy3d@@@1@AEBV?$basic_string@DU?$char_traits@D@std@@V?$allocator@D@2@@std@@UEdgeConnectivity@Graph@1@@Z
	??$add@UEdgeConnectivity@PolyMesh@easy3d@@@PropertyContainer@easy3d@@QEAA?AV?$Property@UEdgeConnectivity@PolyMesh@easy3d@@@1@AEBV?$basic_string@DU?$char_traits@D@std@@V?$allocator@D@2@@std@@UEdgeConnectivity@PolyMesh@1@@Z
	??$add@UFace@SurfaceMesh@easy3d@@@PropertyContainer@easy3d@@QEAA?AV?$Property@UFace@SurfaceMesh@easy3d@@@1@AEBV?$basic_string@DU?$char_traits@D@std@@V?$allocator@D@2@@std@@UFace@SurfaceMesh@1@@Z
	??$add@UFaceConnectivity@SurfaceMesh@easy3d@@@PropertyContainer@easy3d@@QEAA?AV?$Property@UFaceConnectivity@SurfaceMesh@easy3d@@@1@AEBV?$basic_string@DU?$char_traits@D@std@@V?$allocator@D@2@@std@@UFaceConnectivity@SurfaceMesh@1@@Z
	??$add@UHalfFaceConnectivity@PolyMesh@easy3d@@@PropertyContainer@easy3d@@QEAA?AV?$Property@UHalfFaceConnectivity@PolyMesh@easy3d@@@1@AEBV?$basic_string@DU?$char_traits@D@std@@V?$allocator@D@2@@std@@UHalfFaceConnectivity@PolyMesh@1@@Z
	??$add@UHalfedge@SurfaceMesh@easy3d@@@PropertyContainer@easy3d@@QEAA?AV?$Property@UHalfedge@SurfaceMesh@easy3d@@@1@AEBV?$basic_string@DU?$char_traits@D@std@@V?$allocator@D@2@@std@@UHalfedge@SurfaceMesh@1@@Z
	??$add@UHalfedgeConnectivity@SurfaceMesh@easy3d@@@PropertyContainer@easy3d@@QEAA?AV?$Property@UHalfedgeConnectivity@SurfaceMesh@easy3d@@@1@AEBV?$basic_string@DU?$char_traits@D@std@@V?$allocator@D@2@@std@@UHalfedgeConnectivity@SurfaceMesh@1@@Z
	??$add@UVertex@PointCloud@easy3d@@@PropertyContainer@easy3d@@QEAA?AV?$Property@UVertex@PointCloud@easy3d@@@1@AEBV?$basic_string@DU?$char_traits@D@std@@V?$allocator@D@2@@std@@UVertex@PointCloud@1@@Z
	??$add@UVertex@SurfaceMesh@easy3d@@@PropertyContainer@easy3d@@QEAA?AV?$Property@UVertex@SurfaceMesh@easy3d@@@1@AEBV?$basic_string@DU?$char_traits@D@std@@V?$allocator@D@2@@std@@UVertex@SurfaceMesh@1@@Z
	??$add@UVertexConnectivity@Graph@easy3d@@@PropertyContainer@easy3d@@QEAA?AV?$Property@UVertexConnectivity@Graph@easy3d@@@1@AEBV?$basic_string@DU?$char_traits@D@std@@V?$allocator@D@2@@std@@UVertexConnectivity@Graph@1@@Z
	??$add@UVertexConnectivity@PolyMesh@easy3d@@@PropertyContainer@easy3d@@QEAA?AV?$Property@UVertexConnectivity@PolyMesh@easy3d@@@1@AEBV?$basic_string@DU?$char_traits@D@std@@V?$allocator@D@2@@std@@UVertexConnectivity@PolyMesh@1@@Z
	??$add@UVertexConnectivity@SurfaceMesh@easy3d@@@PropertyContainer@easy3d@@QEAA?AV?$Property@UVertexConnectivity@SurfaceMesh@easy3d@@@1@AEBV?$basic_string@DU?$char_traits@D@std@@V?$allocator@D@2@@std@@UVertexConnectivity@SurfaceMesh@1@@Z
	??$add@V?$Vec@$02M@easy3d@@@PropertyContainer@easy3d@@QEAA?AV?$Property@V?$Vec@$02M@easy3d@@@1@AEBV?$basic_string@DU?$char_traits@D@std@@V?$allocator@D@2@@std@@V?$Vec@$02M@1@@Z
	??$add@_N@PropertyContainer@easy3d@@QEAA?AV?$Property@_N@1@AEBV?$basic_string@DU?$char_traits@D@std@@V?$allocator@D@2@@std@@_N@Z
	??$angle@V?$Vec@$02M@easy3d@@@geom@easy3d@@YANAEBV?$Vec@$02M@1@0@Z
	??$applyHouseholderOnTheLeft@V?$Block@$$CBV?$Matrix@N$0?0$0?0$0A@$0?0$0?0@Eigen@@$0?0$00$0A@@Eigen@@@?$MatrixBase@V?$Block@V?$Matrix@N$0?0$00$0A@$0?0$00@Eigen@@$0?0$0?0$0A@@Eigen@@@Eigen@@QEAAXAEBV?$Block@$$CBV?$Matrix@N$0?0$0?0$0A@$0?0$0?0@Eigen@@$0?0$00$0A@@1@AEBNPEAN@Z
	??$applyHouseholderOnTheLeft@V?$Block@$$CBV?$Matrix@N$0?0$0?0$0A@$0?0$0?0@Eigen@@$0?0$00$0A@@Eigen@@@?$MatrixBase@V?$Block@V?$Matrix@N$0?0$0?0$0A@$0?0$0?0@Eigen@@$0?0$0?0$0A@@Eigen@@@Eigen@@QEAAXAEBV?$Block@$$CBV?$Matrix@N$0?0$0?0$0A@$0?0$0?0@Eigen@@$0?0$00$0A@@1@AEBNPEAN@Z
	??$applyHouseholderOnTheLeft@V?$VectorBlock@V?$Block@V?$Matrix@N$0?0$0?0$0A@$0?0$0?0@Eigen@@$0?0$00$00@Eigen@@$0?0@Eigen@@@?$MatrixBase@V?$Block@V?$Matrix@N$0?0$0?0$0A@$0?0$0?0@Eigen@@$0?0$0?0$0A@@Eigen@@@Eigen@@QEAAXAEBV?$VectorBlock@V?$Block@V?$Matrix@N$0?0$0?0$0A@$0?0$0?0@Eigen@@$0?0$00$00@Eigen@@$0?0@1@AEBNPEAN@Z
	??$applyHouseholderOnTheRight@V?$Block@$$CBV?$Matrix@N$0?0$0?0$0A@$0?0$0?0@Eigen@@$0?0$00$0A@@Eigen@@@?$MatrixBase@V?$Block@V?$Matrix@N$0?0$0?0$0A@$0?0$0?0@Eigen@@$0?0$0?0$0A@@Eigen@@@Eigen@@QEAAXAEBV?$Block@$$CBV?$Matrix@N$0?0$0?0$0A@$0?0$0?0@Eigen@@$0?0$00$0A@@1@AEBNPEAN@Z
	??$applyOnTheLeft@N@?$MatrixBase@V?$Matrix@N$01$01$0A@$01$01@Eigen@@@Eigen@@QEAAX_J0AEBV?$JacobiRotation@N@1@@Z
	??$applyOnTheLeft@N@?$MatrixBase@V?$Matrix@N$0?0$0?0$0A@$0?0$0?0@Eigen@@@Eigen@@QEAAX_J0AEBV?$JacobiRotation@N@1@@Z
	??$applyOnTheLeft@V?$HouseholderSequence@V?$Matrix@N$0?0$0?0$0A@$0?0$0?0@Eigen@@V?$Matrix@N$0?0$00$0A@$0?0$00@2@$00@Eigen@@@?$MatrixBase@V?$Matrix@N$0?0$00$0A@$0?0$00@Eigen@@@Eigen@@QEAAXAEBU?$EigenBase@V?$HouseholderSequence@V?$Matrix@N$0?0$0?0$0A@$0?0$0?0@Eigen@@V?$Matrix@N$0?0$00$0A@$0?0$00@2@$00@Eigen@@@1@@Z
	??$applyOnTheRight@N@?$MatrixBase@V?$Matrix@N$0?0$0?0$0A@$0?0$0?0@Eigen@@@Eigen@@QEAAX_J0AEBV?$JacobiRotation@N@1@@Z
	??$applyThisOnTheLeft@V?$Matrix@N$0?0$0?0$0A@$0?0$0?0@Eigen@@V?$Matrix@N$00$0?0$00$00$0?0@2@@?$HouseholderSequence@V?$Matrix@N$0?0$0?0$0A@$0?0$0?0@Eigen@@V?$Matrix@N$0?0$00$0A@$0?0$00@2@$00@Eigen@@QEBAXAEAV?$Matrix@N$0?0$0?0$0A@$0?0$0?0@1@AEAV?$Matrix@N$00$0?0$00$00$0?0@1@_N@Z
	??$applyThisOnTheLeft@V?$Matrix@N$0?0$0?0$0A@$0?0$0?0@Eigen@@V?$Matrix@N$0?0$00$0A@$0?0$00@2@@?$HouseholderSequence@V?$Matrix@N$0?0$0?0$0A@$0?0$0?0@Eigen@@V?$Matrix@N$0?0$00$0A@$0?0$00@2@$00@Eigen@@QEBAXAEAV?$Matrix@N$0?0$0?0$0A@$0?0$0?0@1@AEAV?$Matrix@N$0?0$00$0A@$0?0$00@1@_N@Z
	??$apply_block_householder_on_the_left@V?$Block@V?$Matrix@N$0?0$00$0A@$0?0$00@Eigen@@$0?0$0?0$0A@@Eigen@@V?$Block@V?$Matrix@N$0?0$0?0$0A@$0?0$0?0@Eigen@@$0?0$0?0$0A@@2@V?$VectorBlock@$$CBV?$Matrix@N$0?0$00$0A@$0?0$00@Eigen@@$0?0@2@@internal@Eigen@@YAXAEAV?$Block@V?$Matrix@N$0?0$00$0A@$0?0$00@Eigen@@$0?0$0?0$0A@@1@AEBV?$Block@V?$Matrix@N$0?0$0?0$0A@$0?0$0?0@Eigen@@$0?0$0?0$0A@@1@AEBV?$VectorBlock@$$CBV?$Matrix@N$0?0$00$0A@$0?0$00@Eigen@@$0?0@1@_N@Z
	??$apply_block_householder_on_the_left@V?$Block@V?$Matrix@N$0?0$0?0$0A@$0?0$0?0@Eigen@@$0?0$0?0$0A@@Eigen@@V12@V?$VectorBlock@$$CBV?$Matrix@N$0?0$00$0A@$0?0$00@Eigen@@$0?0@2@@internal@Eigen@@YAXAEAV?$Block@V?$Matrix@N$0?0$0?0$0A@$0?0$0?0@Eigen@@$0?0$0?0$0A@@1@AEBV21@AEBV?$VectorBlock@$$CBV?$Matrix@N$0?0$00$0A@$0?0$00@Eigen@@$0?0@1@_N@Z
	??$apply_rotation_in_the_plane@V?$Block@V?$Matrix@N$01$01$0A@$01$01@Eigen@@$00$01$0A@@Eigen@@V12@N@internal@Eigen@@YAXAEAV?$DenseBase@V?$Block@V?$Matrix@N$01$01$0A@$01$01@Eigen@@$00$01$0A@@Eigen@@@1@0AEBV?$JacobiRotation@N@1@@Z
	??$apply_rotation_in_the_plane@V?$Block@V?$Matrix@N$0?0$0?0$0A@$0?0$0?0@Eigen@@$00$0?0$0A@@Eigen@@V12@N@internal@Eigen@@YAXAEAV?$DenseBase@V?$Block@V?$Matrix@N$0?0$0?0$0A@$0?0$0?0@Eigen@@$00$0?0$0A@@Eigen@@@1@0AEBV?$JacobiRotation@N@1@@Z
	??$apply_rotation_in_the_plane@V?$Block@V?$Matrix@N$0?0$0?0$0A@$0?0$0?0@Eigen@@$0?0$00$00@Eigen@@V12@N@internal@Eigen@@YAXAEAV?$DenseBase@V?$Block@V?$Matrix@N$0?0$0?0$0A@$0?0$0?0@Eigen@@$0?0$00$00@Eigen@@@1@0AEBV?$JacobiRotation@N@1@@Z
	??$check_static_allocation_size@N$00@internal@Eigen@@YAXXZ
	??$check_static_allocation_size@N$03@internal@Eigen@@YAXXZ
	??$check_static_allocation_size@N$0EA@@internal@Eigen@@YAXXZ
	??$compute@V?$Matrix@N$0?0$0?0$0A@$0?0$0?0@Eigen@@@?$ColPivHouseholderQR@V?$Matrix@N$0?0$0?0$0A@$0?0$0?0@Eigen@@@Eigen@@QEAAAEAV01@AEBU?$EigenBase@V?$Matrix@N$0?0$0?0$0A@$0?0$0?0@Eigen@@@1@@Z
	??$computeProductBlockingSizes@NN$00_J@internal@Eigen@@YAXAEA_J00_J@Z
	??$computeProductBlockingSizes@NN$03_J@internal@Eigen@@YAXAEA_J00_J@Z
	??$conditional_aligned_new_auto@H$00@internal@Eigen@@YAPEAH_K@Z
	??$conditional_aligned_new_auto@N$00@internal@Eigen@@YAPEAN_K@Z
	??$conditional_aligned_new_auto@_J$00@internal@Eigen@@YAPEA_J_K@Z
	??$div_ceil@_J@numext@Eigen@@YA_JAEB_J0@Z
	??$endl@DU?$char_traits@D@std@@@std@@YAAEAV?$basic_ostream@DU?$char_traits@D@std@@@0@AEAV10@@Z
	??$evalTo@V?$Matrix@N$0?0$0?0$0A@$0?0$0?0@Eigen@@@?$PermutationBase@V?$PermutationMatrix@$0?0$0?0H@Eigen@@@Eigen@@QEBAXAEAV?$MatrixBase@V?$Matrix@N$0?0$0?0$0A@$0?0$0?0@Eigen@@@1@@Z
	??$evalTo@V?$Matrix@N$0?0$0?0$0A@$0?0$0?0@Eigen@@V?$Matrix@N$00$0?0$00$00$0?0@2@@?$HouseholderSequence@V?$Matrix@N$0?0$0?0$0A@$0?0$0?0@Eigen@@V?$Matrix@N$0?0$00$0A@$0?0$00@2@$00@Eigen@@QEBAXAEAV?$Matrix@N$0?0$0?0$0A@$0?0$0?0@1@AEAV?$Matrix@N$00$0?0$00$00$0?0@1@@Z
	??$evalTo@V?$Matrix@N$0?0$0?0$0A@$0?0$0?0@Eigen@@V?$Matrix@N$0?0$00$0A@$0?0$00@2@@?$HouseholderSequence@V?$Matrix@N$0?0$0?0$0A@$0?0$0?0@Eigen@@V?$Matrix@N$0?0$00$0A@$0?0$00@2@$00@Eigen@@QEBAXAEAV?$Matrix@N$0?0$0?0$0A@$0?0$0?0@1@AEAV?$Matrix@N$0?0$00$0A@$0?0$00@1@@Z
	??$evaluateProductBlockingSizesHeuristic@NN$00_J@internal@Eigen@@YAXAEA_J00_J@Z
	??$evaluateProductBlockingSizesHeuristic@NN$03_J@internal@Eigen@@YAXAEA_J00_J@Z
	??$fill@PEAV?$_List_unchecked_iterator@V?$_List_val@U?$_List_simple_types@U?$pair@$$CBHV?$vector@HV?$allocator@H@std@@@std@@@std@@@std@@@std@@@std@@V12@@std@@YAXQEAV?$_List_unchecked_iterator@V?$_List_val@U?$_List_simple_types@U?$pair@$$CBHV?$vector@HV?$allocator@H@std@@@std@@@std@@@std@@@std@@@0@0AEBV10@@Z
	??$fill@PEAV?$_List_unchecked_iterator@V?$_List_val@U?$_List_simple_types@U?$pair@$$CBUVertex@SurfaceMesh@easy3d@@V?$vector@UVertex@SurfaceMesh@easy3d@@V?$allocator@UVertex@SurfaceMesh@easy3d@@@std@@@std@@@std@@@std@@@std@@@std@@V12@@std@@YAXQEAV?$_List_unchecked_iterator@V?$_List_val@U?$_List_simple_types@U?$pair@$$CBUVertex@SurfaceMesh@easy3d@@V?$vector@UVertex@SurfaceMesh@easy3d@@V?$allocator@UVertex@SurfaceMesh@easy3d@@@std@@@std@@@std@@@std@@@std@@@0@0AEBV10@@Z
	??$get@UCellConnectivity@PolyMesh@easy3d@@@PropertyContainer@easy3d@@QEBA?AV?$Property@UCellConnectivity@PolyMesh@easy3d@@@1@AEBV?$basic_string@DU?$char_traits@D@std@@V?$allocator@D@2@@std@@@Z
	??$get@UEdgeConnectivity@PolyMesh@easy3d@@@PropertyContainer@easy3d@@QEBA?AV?$Property@UEdgeConnectivity@PolyMesh@easy3d@@@1@AEBV?$basic_string@DU?$char_traits@D@std@@V?$allocator@D@2@@std@@@Z
	??$get@UFaceConnectivity@SurfaceMesh@easy3d@@@PropertyContainer@easy3d@@QEBA?AV?$Property@UFaceConnectivity@SurfaceMesh@easy3d@@@1@AEBV?$basic_string@DU?$char_traits@D@std@@V?$allocator@D@2@@std@@@Z
	??$get@UHalfFaceConnectivity@PolyMesh@easy3d@@@PropertyContainer@easy3d@@QEBA?AV?$Property@UHalfFaceConnectivity@PolyMesh@easy3d@@@1@AEBV?$basic_string@DU?$char_traits@D@std@@V?$allocator@D@2@@std@@@Z
	??$get@UHalfedgeConnectivity@SurfaceMesh@easy3d@@@PropertyContainer@easy3d@@QEBA?AV?$Property@UHalfedgeConnectivity@SurfaceMesh@easy3d@@@1@AEBV?$basic_string@DU?$char_traits@D@std@@V?$allocator@D@2@@std@@@Z
	??$get@UVertexConnectivity@PolyMesh@easy3d@@@PropertyContainer@easy3d@@QEBA?AV?$Property@UVertexConnectivity@PolyMesh@easy3d@@@1@AEBV?$basic_string@DU?$char_traits@D@std@@V?$allocator@D@2@@std@@@Z
	??$get@UVertexConnectivity@SurfaceMesh@easy3d@@@PropertyContainer@easy3d@@QEBA?AV?$Property@UVertexConnectivity@SurfaceMesh@easy3d@@@1@AEBV?$basic_string@DU?$char_traits@D@std@@V?$allocator@D@2@@std@@@Z
	??$get@V?$Vec@$02M@easy3d@@@PropertyContainer@easy3d@@QEBA?AV?$Property@V?$Vec@$02M@easy3d@@@1@AEBV?$basic_string@DU?$char_traits@D@std@@V?$allocator@D@2@@std@@@Z
	??$get@_N@PropertyContainer@easy3d@@QEBA?AV?$Property@_N@1@AEBV?$basic_string@DU?$char_traits@D@std@@V?$allocator@D@2@@std@@@Z
	??$get_or_add@_N@PropertyContainer@easy3d@@QEAA?AV?$Property@_N@1@AEBV?$basic_string@DU?$char_traits@D@std@@V?$allocator@D@2@@std@@_N@Z
	??$get_runtime_value@V?$VariableAndFixedInt@$0?0@internal@Eigen@@@internal@Eigen@@YA_JAEBV?$VariableAndFixedInt@$0?0@01@@Z
	??$get_runtime_value@_J@internal@Eigen@@YA_JAEB_J@Z
	??$insert@$0A@$0A@@?$_Tree@V?$_Tset_traits@UEdge@PolyMesh@easy3d@@U?$less@UEdge@PolyMesh@easy3d@@@std@@V?$allocator@UEdge@PolyMesh@easy3d@@@5@$0A@@std@@@std@@QEAA?AU?$pair@V?$_Tree_const_iterator@V?$_Tree_val@U?$_Tree_simple_types@UEdge@PolyMesh@easy3d@@@std@@@std@@@std@@_N@1@AEBUEdge@PolyMesh@easy3d@@@Z
	??$insert@$0A@$0A@@?$_Tree@V?$_Tset_traits@UVertex@PolyMesh@easy3d@@U?$less@UVertex@PolyMesh@easy3d@@@std@@V?$allocator@UVertex@PolyMesh@easy3d@@@5@$0A@@std@@@std@@QEAA?AU?$pair@V?$_Tree_const_iterator@V?$_Tree_val@U?$_Tree_simple_types@UVertex@PolyMesh@easy3d@@@std@@@std@@@std@@_N@1@AEBUVertex@PolyMesh@easy3d@@@Z
	??$is_same_dense@V?$Matrix@N$0?0$0?0$0A@$0?0$0?0@Eigen@@V12@@internal@Eigen@@YA_NAEBV?$Matrix@N$0?0$0?0$0A@$0?0$0?0@1@0PEAX@Z
	??$is_same_dense@V?$Matrix@N$0?0$0?0$0A@$0?0$0?0@Eigen@@V?$CwiseNullaryOp@U?$scalar_identity_op@N@internal@Eigen@@V?$Matrix@N$0?0$0?0$0A@$0?0$0?0@3@@2@@internal@Eigen@@YA_NAEBV?$Matrix@N$0?0$0?0$0A@$0?0$0?0@1@AEBV?$CwiseNullaryOp@U?$scalar_identity_op@N@internal@Eigen@@V?$Matrix@N$0?0$0?0$0A@$0?0$0?0@3@@1@PEAX@Z
	??$lazyProduct@V?$Block@V?$Block@V?$Matrix@N$0?0$00$0A@$0?0$00@Eigen@@$0?0$0?0$0A@@Eigen@@$0?0$0?0$0A@@Eigen@@@?$MatrixBase@V?$Transpose@$$CBV?$Block@$$CBV?$Matrix@N$0?0$0?0$0A@$0?0$0?0@Eigen@@$0?0$00$0A@@Eigen@@@Eigen@@@Eigen@@QEBA?BV?$Product@V?$Transpose@$$CBV?$Block@$$CBV?$Matrix@N$0?0$0?0$0A@$0?0$0?0@Eigen@@$0?0$00$0A@@Eigen@@@Eigen@@V?$Block@V?$Block@V?$Matrix@N$0?0$00$0A@$0?0$00@Eigen@@$0?0$0?0$0A@@Eigen@@$0?0$0?0$0A@@2@$00@1@AEBV?$MatrixBase@V?$Block@V?$Block@V?$Matrix@N$0?0$00$0A@$0?0$00@Eigen@@$0?0$0?0$0A@@Eigen@@$0?0$0?0$0A@@Eigen@@@1@@Z
	??$lazyProduct@V?$Map@V?$Matrix@N$00$0?0$00$00$00@Eigen@@$0A@V?$Stride@$0A@$0A@@2@@Eigen@@@?$MatrixBase@V?$CwiseBinaryOp@U?$scalar_product_op@NN@internal@Eigen@@$$CBV?$CwiseNullaryOp@U?$scalar_constant_op@N@internal@Eigen@@$$CBV?$Matrix@N$0?0$00$0A@$0?0$00@3@@3@$$CBV?$Block@$$CBV?$Matrix@N$0?0$0?0$0A@$0?0$0?0@Eigen@@$0?0$00$0A@@3@@Eigen@@@Eigen@@QEBA?BV?$Product@V?$CwiseBinaryOp@U?$scalar_product_op@NN@internal@Eigen@@$$CBV?$CwiseNullaryOp@U?$scalar_constant_op@N@internal@Eigen@@$$CBV?$Matrix@N$0?0$00$0A@$0?0$00@3@@3@$$CBV?$Block@$$CBV?$Matrix@N$0?0$0?0$0A@$0?0$0?0@Eigen@@$0?0$00$0A@@3@@Eigen@@V?$Map@V?$Matrix@N$00$0?0$00$00$00@Eigen@@$0A@V?$Stride@$0A@$0A@@2@@2@$00@1@AEBV?$MatrixBase@V?$Map@V?$Matrix@N$00$0?0$00$00$00@Eigen@@$0A@V?$Stride@$0A@$0A@@2@@Eigen@@@1@@Z
	??$lazyProduct@V?$Ref@V?$Matrix@N$0?0$0?0$0A@$0?0$0?0@Eigen@@$0A@V?$OuterStride@$0?0@2@@Eigen@@@?$MatrixBase@V?$Ref@V?$Matrix@N$0?0$0?0$0A@$0?0$0?0@Eigen@@$0A@V?$OuterStride@$0?0@2@@Eigen@@@Eigen@@QEBA?BV?$Product@V?$Ref@V?$Matrix@N$0?0$0?0$0A@$0?0$0?0@Eigen@@$0A@V?$OuterStride@$0?0@2@@Eigen@@V12@$00@1@AEBV01@@Z
	??$makeHouseholder@V?$VectorBlock@V?$Block@V?$Block@V?$Matrix@N$0?0$0?0$0A@$0?0$0?0@Eigen@@$0?0$00$00@Eigen@@$0?0$00$0A@@Eigen@@$0?0@Eigen@@@?$MatrixBase@V?$Block@V?$Block@V?$Matrix@N$0?0$0?0$0A@$0?0$0?0@Eigen@@$0?0$00$00@Eigen@@$0?0$00$0A@@Eigen@@@Eigen@@QEBAXAEAV?$VectorBlock@V?$Block@V?$Block@V?$Matrix@N$0?0$0?0$0A@$0?0$0?0@Eigen@@$0?0$00$00@Eigen@@$0?0$00$0A@@Eigen@@$0?0@1@AEAN1@Z
	??$makeJacobi@V?$Matrix@N$01$01$0A@$01$01@Eigen@@@?$JacobiRotation@N@Eigen@@QEAA_NAEBV?$MatrixBase@V?$Matrix@N$01$01$0A@$01$01@Eigen@@@1@_J1@Z
	??$make_block_householder_triangular_factor@V?$Matrix@N$0?0$0?0$00$0?0$0?0@Eigen@@V?$Block@V?$Matrix@N$0?0$0?0$0A@$0?0$0?0@Eigen@@$0?0$0?0$0A@@2@V?$Block@$$CBV?$Matrix@N$0?0$00$0A@$0?0$00@Eigen@@$0?0$00$0A@@2@@internal@Eigen@@YAXAEAV?$Matrix@N$0?0$0?0$00$0?0$0?0@1@AEBV?$Block@V?$Matrix@N$0?0$0?0$0A@$0?0$0?0@Eigen@@$0?0$0?0$0A@@1@AEBV?$Block@$$CBV?$Matrix@N$0?0$00$0A@$0?0$00@Eigen@@$0?0$00$0A@@1@@Z
	??$make_block_householder_triangular_factor@V?$Matrix@N$0?0$0?0$00$0?0$0?0@Eigen@@V?$Block@V?$Matrix@N$0?0$0?0$0A@$0?0$0?0@Eigen@@$0?0$0?0$0A@@2@V?$VectorBlock@$$CBV?$Matrix@N$0?0$00$0A@$0?0$00@Eigen@@$0?0@2@@internal@Eigen@@YAXAEAV?$Matrix@N$0?0$0?0$00$0?0$0?0@1@AEBV?$Block@V?$Matrix@N$0?0$0?0$0A@$0?0$0?0@Eigen@@$0?0$0?0$0A@@1@AEBV?$VectorBlock@$$CBV?$Matrix@N$0?0$00$0A@$0?0$00@Eigen@@$0?0@1@@Z
	??$maxCoeff@_J@?$DenseBase@V?$Block@V?$Matrix@N$00$0?0$00$00$0?0@Eigen@@$00$0?0$0A@@Eigen@@@Eigen@@QEBANPEA_J@Z
	??$maxCoeff@_J@?$DenseBase@V?$Block@V?$Matrix@N$0?0$00$0A@$0?0$00@Eigen@@$0?0$00$0A@@Eigen@@@Eigen@@QEBANPEA_J@Z
	??$maxCoeff@_J@?$DenseBase@V?$CwiseUnaryOp@U?$scalar_score_coeff_op@N@internal@Eigen@@$$CBV?$Block@V?$Block@V?$Ref@V?$Matrix@N$0?0$0?0$0A@$0?0$0?0@Eigen@@$0A@V?$OuterStride@$0?0@2@@Eigen@@$0?0$00$00@Eigen@@$0?0$00$0A@@3@@Eigen@@@Eigen@@QEBANPEA_J@Z
	??$outer_product_selector_run@V?$Block@V?$Block@V?$Matrix@N$0?0$0?0$0A@$0?0$0?0@Eigen@@$0?0$0?0$0A@@Eigen@@$0?0$0?0$0A@@Eigen@@V?$CwiseBinaryOp@U?$scalar_product_op@NN@internal@Eigen@@$$CBV?$CwiseNullaryOp@U?$scalar_constant_op@N@internal@Eigen@@$$CBV?$Matrix@N$0?0$00$0A@$0?0$00@3@@3@$$CBV?$Block@$$CBV?$Matrix@N$0?0$0?0$0A@$0?0$0?0@Eigen@@$0?0$00$0A@@3@@2@V?$Map@V?$Matrix@N$00$0?0$00$00$0?0@Eigen@@$0A@V?$Stride@$0A@$0A@@2@@2@Usub@?$generic_product_impl@V?$CwiseBinaryOp@U?$scalar_product_op@NN@internal@Eigen@@$$CBV?$CwiseNullaryOp@U?$scalar_constant_op@N@internal@Eigen@@$$CBV?$Matrix@N$0?0$00$0A@$0?0$00@3@@3@$$CBV?$Block@$$CBV?$Matrix@N$0?0$0?0$0A@$0?0$0?0@Eigen@@$0?0$00$0A@@3@@Eigen@@V?$Map@V?$Matrix@N$00$0?0$00$00$0?0@Eigen@@$0A@V?$Stride@$0A@$0A@@2@@2@UDenseShape@2@U42@$04@internal@2@@internal@Eigen@@YAXAEAV?$Block@V?$Block@V?$Matrix@N$0?0$0?0$0A@$0?0$0?0@Eigen@@$0?0$0?0$0A@@Eigen@@$0?0$0?0$0A@@1@AEBV?$CwiseBinaryOp@U?$scalar_product_op@NN@internal@Eigen@@$$CBV?$CwiseNullaryOp@U?$scalar_constant_op@N@internal@Eigen@@$$CBV?$Matrix@N$0?0$00$0A@$0?0$00@3@@3@$$CBV?$Block@$$CBV?$Matrix@N$0?0$0?0$0A@$0?0$0?0@Eigen@@$0?0$00$0A@@3@@1@AEBV?$Map@V?$Matrix@N$00$0?0$00$00$0?0@Eigen@@$0A@V?$Stride@$0A@$0A@@2@@1@AEBUsub@?$generic_product_impl@V?$CwiseBinaryOp@U?$scalar_product_op@NN@internal@Eigen@@$$CBV?$CwiseNullaryOp@U?$scalar_constant_op@N@internal@Eigen@@$$CBV?$Matrix@N$0?0$00$0A@$0?0$00@3@@3@$$CBV?$Block@$$CBV?$Matrix@N$0?0$0?0$0A@$0?0$0?0@Eigen@@$0?0$00$0A@@3@@Eigen@@V?$Map@V?$Matrix@N$00$0?0$00$00$0?0@Eigen@@$0A@V?$Stride@$0A@$0A@@2@@2@UDenseShape@2@U42@$04@01@AEBUfalse_type@01@@Z
	??$outer_product_selector_run@V?$Block@V?$Block@V?$Matrix@N$0?0$0?0$0A@$0?0$0?0@Eigen@@$0?0$0?0$0A@@Eigen@@$0?0$0?0$0A@@Eigen@@V?$CwiseBinaryOp@U?$scalar_product_op@NN@internal@Eigen@@$$CBV?$CwiseNullaryOp@U?$scalar_constant_op@N@internal@Eigen@@$$CBV?$Matrix@N$0?0$00$0A@$0?0$00@3@@3@$$CBV?$Block@V?$Block@V?$Matrix@N$0?0$0?0$0A@$0?0$0?0@Eigen@@$0?0$00$00@Eigen@@$0?0$00$0A@@3@@2@V?$Map@V?$Matrix@N$00$0?0$00$00$0?0@Eigen@@$0A@V?$Stride@$0A@$0A@@2@@2@Usub@?$generic_product_impl@V?$CwiseBinaryOp@U?$scalar_product_op@NN@internal@Eigen@@$$CBV?$CwiseNullaryOp@U?$scalar_constant_op@N@internal@Eigen@@$$CBV?$Matrix@N$0?0$00$0A@$0?0$00@3@@3@$$CBV?$Block@V?$Block@V?$Matrix@N$0?0$0?0$0A@$0?0$0?0@Eigen@@$0?0$00$00@Eigen@@$0?0$00$0A@@3@@Eigen@@V?$Map@V?$Matrix@N$00$0?0$00$00$0?0@Eigen@@$0A@V?$Stride@$0A@$0A@@2@@2@UDenseShape@2@U42@$04@internal@2@@internal@Eigen@@YAXAEAV?$Block@V?$Block@V?$Matrix@N$0?0$0?0$0A@$0?0$0?0@Eigen@@$0?0$0?0$0A@@Eigen@@$0?0$0?0$0A@@1@AEBV?$CwiseBinaryOp@U?$scalar_product_op@NN@internal@Eigen@@$$CBV?$CwiseNullaryOp@U?$scalar_constant_op@N@internal@Eigen@@$$CBV?$Matrix@N$0?0$00$0A@$0?0$00@3@@3@$$CBV?$Block@V?$Block@V?$Matrix@N$0?0$0?0$0A@$0?0$0?0@Eigen@@$0?0$00$00@Eigen@@$0?0$00$0A@@3@@1@AEBV?$Map@V?$Matrix@N$00$0?0$00$00$0?0@Eigen@@$0A@V?$Stride@$0A@$0A@@2@@1@AEBUsub@?$generic_product_impl@V?$CwiseBinaryOp@U?$scalar_product_op@NN@internal@Eigen@@$$CBV?$CwiseNullaryOp@U?$scalar_constant_op@N@internal@Eigen@@$$CBV?$Matrix@N$0?0$00$0A@$0?0$00@3@@3@$$CBV?$Block@V?$Block@V?$Matrix@N$0?0$0?0$0A@$0?0$0?0@Eigen@@$0?0$00$00@Eigen@@$0?0$00$0A@@3@@Eigen@@V?$Map@V?$Matrix@N$00$0?0$00$00$0?0@Eigen@@$0A@V?$Stride@$0A@$0A@@2@@2@UDenseShape@2@U42@$04@01@AEBUfalse_type@01@@Z
	??$outer_product_selector_run@V?$Block@V?$Block@V?$Matrix@N$0?0$0?0$0A@$0?0$0?0@Eigen@@$0?0$0?0$0A@@Eigen@@$0?0$0?0$0A@@Eigen@@V?$CwiseBinaryOp@U?$scalar_product_op@NN@internal@Eigen@@$$CBV?$CwiseNullaryOp@U?$scalar_constant_op@N@internal@Eigen@@$$CBV?$Matrix@N$0?0$00$0A@$0?0$00@3@@3@$$CBV?$Map@V?$Matrix@N$0?0$00$0A@$0?0$00@Eigen@@$0A@V?$Stride@$0A@$0A@@2@@3@@2@V?$Transpose@$$CBV?$Block@$$CBV?$Matrix@N$0?0$0?0$0A@$0?0$0?0@Eigen@@$0?0$00$0A@@Eigen@@@2@Usub@?$generic_product_impl@V?$CwiseBinaryOp@U?$scalar_product_op@NN@internal@Eigen@@$$CBV?$CwiseNullaryOp@U?$scalar_constant_op@N@internal@Eigen@@$$CBV?$Matrix@N$0?0$00$0A@$0?0$00@3@@3@$$CBV?$Map@V?$Matrix@N$0?0$00$0A@$0?0$00@Eigen@@$0A@V?$Stride@$0A@$0A@@2@@3@@Eigen@@V?$Transpose@$$CBV?$Block@$$CBV?$Matrix@N$0?0$0?0$0A@$0?0$0?0@Eigen@@$0?0$00$0A@@Eigen@@@2@UDenseShape@2@U42@$04@internal@2@@internal@Eigen@@YAXAEAV?$Block@V?$Block@V?$Matrix@N$0?0$0?0$0A@$0?0$0?0@Eigen@@$0?0$0?0$0A@@Eigen@@$0?0$0?0$0A@@1@AEBV?$CwiseBinaryOp@U?$scalar_product_op@NN@internal@Eigen@@$$CBV?$CwiseNullaryOp@U?$scalar_constant_op@N@internal@Eigen@@$$CBV?$Matrix@N$0?0$00$0A@$0?0$00@3@@3@$$CBV?$Map@V?$Matrix@N$0?0$00$0A@$0?0$00@Eigen@@$0A@V?$Stride@$0A@$0A@@2@@3@@1@AEBV?$Transpose@$$CBV?$Block@$$CBV?$Matrix@N$0?0$0?0$0A@$0?0$0?0@Eigen@@$0?0$00$0A@@Eigen@@@1@AEBUsub@?$generic_product_impl@V?$CwiseBinaryOp@U?$scalar_product_op@NN@internal@Eigen@@$$CBV?$CwiseNullaryOp@U?$scalar_constant_op@N@internal@Eigen@@$$CBV?$Matrix@N$0?0$00$0A@$0?0$00@3@@3@$$CBV?$Map@V?$Matrix@N$0?0$00$0A@$0?0$00@Eigen@@$0A@V?$Stride@$0A@$0A@@2@@3@@Eigen@@V?$Transpose@$$CBV?$Block@$$CBV?$Matrix@N$0?0$0?0$0A@$0?0$0?0@Eigen@@$0?0$00$0A@@Eigen@@@2@UDenseShape@2@U42@$04@01@AEBUfalse_type@01@@Z
	??$outer_product_selector_run@V?$Block@V?$Ref@V?$Matrix@N$0?0$0?0$0A@$0?0$0?0@Eigen@@$0A@V?$OuterStride@$0?0@2@@Eigen@@$0?0$0?0$0A@@Eigen@@V?$Block@V?$Block@V?$Ref@V?$Matrix@N$0?0$0?0$0A@$0?0$0?0@Eigen@@$0A@V?$OuterStride@$0?0@2@@Eigen@@$0?0$00$00@Eigen@@$0?0$00$0A@@2@V?$Block@V?$Block@V?$Ref@V?$Matrix@N$0?0$0?0$0A@$0?0$0?0@Eigen@@$0A@V?$OuterStride@$0?0@2@@Eigen@@$00$0?0$0A@@Eigen@@$00$0?0$0A@@2@Usub@?$generic_product_impl@V?$Block@V?$Block@V?$Ref@V?$Matrix@N$0?0$0?0$0A@$0?0$0?0@Eigen@@$0A@V?$OuterStride@$0?0@2@@Eigen@@$0?0$00$00@Eigen@@$0?0$00$0A@@Eigen@@V?$Block@V?$Block@V?$Ref@V?$Matrix@N$0?0$0?0$0A@$0?0$0?0@Eigen@@$0A@V?$OuterStride@$0?0@2@@Eigen@@$00$0?0$0A@@Eigen@@$00$0?0$0A@@2@UDenseShape@2@U42@$04@internal@2@@internal@Eigen@@YAXAEAV?$Block@V?$Ref@V?$Matrix@N$0?0$0?0$0A@$0?0$0?0@Eigen@@$0A@V?$OuterStride@$0?0@2@@Eigen@@$0?0$0?0$0A@@1@AEBV?$Block@V?$Block@V?$Ref@V?$Matrix@N$0?0$0?0$0A@$0?0$0?0@Eigen@@$0A@V?$OuterStride@$0?0@2@@Eigen@@$0?0$00$00@Eigen@@$0?0$00$0A@@1@AEBV?$Block@V?$Block@V?$Ref@V?$Matrix@N$0?0$0?0$0A@$0?0$0?0@Eigen@@$0A@V?$OuterStride@$0?0@2@@Eigen@@$00$0?0$0A@@Eigen@@$00$0?0$0A@@1@AEBUsub@?$generic_product_impl@V?$Block@V?$Block@V?$Ref@V?$Matrix@N$0?0$0?0$0A@$0?0$0?0@Eigen@@$0A@V?$OuterStride@$0?0@2@@Eigen@@$0?0$00$00@Eigen@@$0?0$00$0A@@Eigen@@V?$Block@V?$Block@V?$Ref@V?$Matrix@N$0?0$0?0$0A@$0?0$0?0@Eigen@@$0A@V?$OuterStride@$0?0@2@@Eigen@@$00$0?0$0A@@Eigen@@$00$0?0$0A@@2@UDenseShape@2@U42@$04@01@AEBUfalse_type@01@@Z
	??$packetwise_redux_empty_value@U__m128d@@U?$scalar_sum_op@NN@internal@Eigen@@@internal@Eigen@@YA?AU__m128d@@AEBU?$scalar_sum_op@NN@01@@Z
	??$parallelize_gemm@$00U?$gemm_functor@N_JU?$general_matrix_matrix_product@_JN$0A@$0A@N$0A@$0A@$0A@$00@internal@Eigen@@V?$Ref@V?$Matrix@N$0?0$0?0$0A@$0?0$0?0@Eigen@@$0A@V?$OuterStride@$0?0@2@@3@V43@V43@V?$gemm_blocking_space@$0A@NN$0?0$0?0$0?0$00$0A@@23@@internal@Eigen@@_J@internal@Eigen@@YAXAEBU?$gemm_functor@N_JU?$general_matrix_matrix_product@_JN$0A@$0A@N$0A@$0A@$0A@$00@internal@Eigen@@V?$Ref@V?$Matrix@N$0?0$0?0$0A@$0?0$0?0@Eigen@@$0A@V?$OuterStride@$0?0@2@@3@V43@V43@V?$gemm_blocking_space@$0A@NN$0?0$0?0$0?0$00$0A@@23@@01@_J11_N@Z
	??$partial_lu_inplace@V?$Matrix@N$0?0$0?0$0A@$0?0$0?0@Eigen@@V?$Transpositions@$0?0$0?0H@2@@internal@Eigen@@YAXAEAV?$Matrix@N$0?0$0?0$0A@$0?0$0?0@1@AEAV?$Transpositions@$0?0$0?0H@1@AEAH@Z
	??$read@UCell@PolyMesh@easy3d@@@internal@easy3d@@YAXAEAV?$basic_istream@DU?$char_traits@D@std@@@std@@AEAV?$set@UCell@PolyMesh@easy3d@@U?$less@UCell@PolyMesh@easy3d@@@std@@V?$allocator@UCell@PolyMesh@easy3d@@@5@@3@@Z
	??$read@UEdge@PolyMesh@easy3d@@@internal@easy3d@@YAXAEAV?$basic_istream@DU?$char_traits@D@std@@@std@@AEAV?$set@UEdge@PolyMesh@easy3d@@U?$less@UEdge@PolyMesh@easy3d@@@std@@V?$allocator@UEdge@PolyMesh@easy3d@@@5@@3@@Z
	??$read@UHalfFace@PolyMesh@easy3d@@@internal@easy3d@@YAXAEAV?$basic_istream@DU?$char_traits@D@std@@@std@@AEAV?$set@UHalfFace@PolyMesh@easy3d@@U?$less@UHalfFace@PolyMesh@easy3d@@@std@@V?$allocator@UHalfFace@PolyMesh@easy3d@@@5@@3@@Z
	??$read@UVertex@PolyMesh@easy3d@@@internal@easy3d@@YAXAEAV?$basic_istream@DU?$char_traits@D@std@@@std@@AEAV?$set@UVertex@PolyMesh@easy3d@@U?$less@UVertex@PolyMesh@easy3d@@@std@@V?$allocator@UVertex@PolyMesh@easy3d@@@5@@3@@Z
	??$read@UVertex@PolyMesh@easy3d@@@internal@easy3d@@YAXAEAV?$basic_istream@DU?$char_traits@D@std@@@std@@AEAV?$vector@UVertex@PolyMesh@easy3d@@V?$allocator@UVertex@PolyMesh@easy3d@@@std@@@3@@Z
	??$real_2x2_jacobi_svd@V?$Matrix@N$0?0$0?0$0A@$0?0$0?0@Eigen@@N_J@internal@Eigen@@YAXAEBV?$Matrix@N$0?0$0?0$0A@$0?0$0?0@1@_J1PEAV?$JacobiRotation@N@1@2@Z
	??$redux@U?$scalar_max_op@NN@internal@Eigen@@@?$DenseBase@V?$CwiseUnaryOp@U?$scalar_abs_op@N@internal@Eigen@@$$CBV?$Matrix@N$0?0$0?0$0A@$0?0$0?0@3@@Eigen@@@Eigen@@QEBANAEBU?$scalar_max_op@NN@internal@1@@Z
	??$redux@U?$scalar_max_op@NN@internal@Eigen@@@?$DenseBase@V?$Diagonal@$$CBV?$CwiseUnaryOp@U?$scalar_abs_op@N@internal@Eigen@@$$CBV?$Matrix@N$0?0$0?0$0A@$0?0$0?0@3@@Eigen@@$0A@@Eigen@@@Eigen@@QEBANAEBU?$scalar_max_op@NN@internal@1@@Z
	??$redux@U?$scalar_max_op@NN@internal@Eigen@@@?$DenseBase@V?$Matrix@N$00$0?0$00$00$0?0@Eigen@@@Eigen@@QEBANAEBU?$scalar_max_op@NN@internal@1@@Z
	??$redux@U?$scalar_max_op@NN@internal@Eigen@@@?$DenseBase@V?$PartialReduxExpr@$$CBV?$CwiseUnaryOp@U?$scalar_abs_op@N@internal@Eigen@@$$CBV?$Matrix@N$0?0$0?0$0A@$0?0$0?0@3@@Eigen@@U?$member_sum@NN@internal@2@$0A@@Eigen@@@Eigen@@QEBANAEBU?$scalar_max_op@NN@internal@1@@Z
	??$redux@U?$scalar_product_op@NN@internal@Eigen@@@?$DenseBase@V?$Diagonal@$$CBV?$Matrix@N$0?0$0?0$0A@$0?0$0?0@Eigen@@$0A@@Eigen@@@Eigen@@QEBANAEBU?$scalar_product_op@NN@internal@1@@Z
	??$redux@U?$scalar_sum_op@NN@internal@Eigen@@@?$DenseBase@V?$Block@$$CBV?$CwiseUnaryOp@U?$scalar_abs_op@N@internal@Eigen@@$$CBV?$Matrix@N$0?0$0?0$0A@$0?0$0?0@3@@Eigen@@$0?0$00$00@Eigen@@@Eigen@@QEBANAEBU?$scalar_sum_op@NN@internal@1@@Z
	??$redux@U?$scalar_sum_op@NN@internal@Eigen@@@?$DenseBase@V?$CwiseBinaryOp@U?$scalar_product_op@NN@internal@Eigen@@$$CBV?$Block@$$CBV?$Block@$$CBV?$Map@$$CBV?$Matrix@N$0?0$0?0$00$0?0$0?0@Eigen@@$0A@V?$OuterStride@$0?0@2@@Eigen@@$00$0?0$00@Eigen@@$00$0?0$0A@@3@$$CBV?$Transpose@$$CBV?$Block@$$CBV?$Map@$$CBV?$Matrix@N$0?0$00$0A@$0?0$00@Eigen@@$0A@V?$Stride@$0A@$0A@@2@@Eigen@@$0?0$00$0A@@Eigen@@@3@@Eigen@@@Eigen@@QEBANAEBU?$scalar_sum_op@NN@internal@1@@Z
	??$redux@U?$scalar_sum_op@NN@internal@Eigen@@@?$DenseBase@V?$CwiseBinaryOp@U?$scalar_product_op@NN@internal@Eigen@@$$CBV?$Transpose@$$CBV?$Block@$$CBV?$Matrix@N$0?0$00$0A@$0?0$00@Eigen@@$00$00$0A@@Eigen@@@3@$$CBV?$Block@$$CBV?$Map@V?$Matrix@N$00$0?0$00$00$00@Eigen@@$0A@V?$Stride@$0A@$0A@@2@@Eigen@@$00$00$0A@@3@@Eigen@@@Eigen@@QEBANAEBU?$scalar_sum_op@NN@internal@1@@Z
	??$redux@U?$scalar_sum_op@NN@internal@Eigen@@@?$DenseBase@V?$CwiseBinaryOp@U?$scalar_product_op@NN@internal@Eigen@@$$CBV?$Transpose@$$CBV?$Block@$$CBV?$Ref@V?$Matrix@N$0?0$0?0$0A@$0?0$0?0@Eigen@@$0A@V?$OuterStride@$0?0@2@@Eigen@@$00$0?0$0A@@Eigen@@@3@$$CBV?$Block@$$CBV?$Ref@V?$Matrix@N$0?0$0?0$0A@$0?0$0?0@Eigen@@$0A@V?$OuterStride@$0?0@2@@Eigen@@$0?0$00$00@3@@Eigen@@@Eigen@@QEBANAEBU?$scalar_sum_op@NN@internal@1@@Z
	??$redux@U?$scalar_sum_op@NN@internal@Eigen@@@?$DenseBase@V?$CwiseBinaryOp@U?$scalar_product_op@NN@internal@Eigen@@$$CBV?$Transpose@$$CBV?$Block@$$CBV?$Transpose@$$CBV?$Block@$$CBV?$Matrix@N$0?0$0?0$0A@$0?0$0?0@Eigen@@$0?0$00$0A@@Eigen@@@Eigen@@$00$0?0$00@Eigen@@@3@$$CBV?$Block@$$CBV?$Block@V?$Block@V?$Matrix@N$0?0$00$0A@$0?0$00@Eigen@@$0?0$0?0$0A@@Eigen@@$0?0$0?0$0A@@Eigen@@$0?0$00$00@3@@Eigen@@@Eigen@@QEBANAEBU?$scalar_sum_op@NN@internal@1@@Z
	??$redux@U?$scalar_sum_op@NN@internal@Eigen@@@?$DenseBase@V?$CwiseUnaryOp@U?$scalar_abs2_op@N@internal@Eigen@@$$CBV?$Block@$$CBV?$Block@V?$Block@V?$Matrix@N$0?0$0?0$0A@$0?0$0?0@Eigen@@$0?0$00$00@Eigen@@$0?0$00$0A@@Eigen@@$0?0$00$0A@@3@@Eigen@@@Eigen@@QEBANAEBU?$scalar_sum_op@NN@internal@1@@Z
	??$redux@U?$scalar_sum_op@NN@internal@Eigen@@@?$DenseBase@V?$CwiseUnaryOp@U?$scalar_abs2_op@N@internal@Eigen@@$$CBV?$Block@V?$Block@V?$Matrix@N$0?0$0?0$0A@$0?0$0?0@Eigen@@$0?0$00$00@Eigen@@$0?0$00$0A@@3@@Eigen@@@Eigen@@QEBANAEBU?$scalar_sum_op@NN@internal@1@@Z
	??$redux@U?$scalar_sum_op@NN@internal@Eigen@@@?$DenseBase@V?$CwiseUnaryOp@U?$scalar_abs2_op@N@internal@Eigen@@$$CBV?$Block@V?$Matrix@N$0?0$0?0$0A@$0?0$0?0@Eigen@@$0?0$00$00@3@@Eigen@@@Eigen@@QEBANAEBU?$scalar_sum_op@NN@internal@1@@Z
	??$remove_vertex_property@UVertex@SurfaceMesh@easy3d@@@SurfaceMesh@easy3d@@QEAA_NAEAV?$VertexProperty@UVertex@SurfaceMesh@easy3d@@@01@@Z
	??$run@V?$Block@$$CBV?$CwiseUnaryOp@U?$scalar_abs_op@N@internal@Eigen@@$$CBV?$Matrix@N$0?0$0?0$0A@$0?0$0?0@3@@Eigen@@$0?0$00$00@Eigen@@@?$redux_impl@U?$scalar_sum_op@NN@internal@Eigen@@V?$redux_evaluator@V?$Block@$$CBV?$CwiseUnaryOp@U?$scalar_abs_op@N@internal@Eigen@@$$CBV?$Matrix@N$0?0$0?0$0A@$0?0$0?0@3@@Eigen@@$0?0$00$00@Eigen@@@23@$02$0A@@internal@Eigen@@SANAEBV?$redux_evaluator@V?$Block@$$CBV?$CwiseUnaryOp@U?$scalar_abs_op@N@internal@Eigen@@$$CBV?$Matrix@N$0?0$0?0$0A@$0?0$0?0@3@@Eigen@@$0?0$00$00@Eigen@@@12@AEBU?$scalar_sum_op@NN@12@AEBV?$Block@$$CBV?$CwiseUnaryOp@U?$scalar_abs_op@N@internal@Eigen@@$$CBV?$Matrix@N$0?0$0?0$0A@$0?0$0?0@3@@Eigen@@$0?0$00$00@2@@Z
	??$run@V?$Block@V?$Matrix@N$0?0$00$0A@$0?0$00@Eigen@@$0?0$0?0$0A@@Eigen@@@?$triangular_product_impl@$04$00$$CBV?$Block@V?$Matrix@N$0?0$0?0$0A@$0?0$0?0@Eigen@@$0?0$0?0$0A@@Eigen@@$0A@V?$Matrix@N$0?0$0?0$0A@$0?0$00@2@$0A@@internal@Eigen@@SAXAEAV?$Block@V?$Matrix@N$0?0$00$0A@$0?0$00@Eigen@@$0?0$0?0$0A@@2@AEBV?$Block@V?$Matrix@N$0?0$0?0$0A@$0?0$0?0@Eigen@@$0?0$0?0$0A@@2@AEBV?$Matrix@N$0?0$0?0$0A@$0?0$00@2@AEBN@Z
	??$run@V?$Block@V?$Matrix@N$0?0$0?0$0A@$0?0$0?0@Eigen@@$0?0$0?0$0A@@Eigen@@@?$triangular_product_impl@$04$00$$CBV?$Block@V?$Matrix@N$0?0$0?0$0A@$0?0$0?0@Eigen@@$0?0$0?0$0A@@Eigen@@$0A@V?$Matrix@N$0?0$0?0$0A@$0?0$0?0@2@$0A@@internal@Eigen@@SAXAEAV?$Block@V?$Matrix@N$0?0$0?0$0A@$0?0$0?0@Eigen@@$0?0$0?0$0A@@2@AEBV32@AEBV?$Matrix@N$0?0$0?0$0A@$0?0$0?0@2@AEBN@Z
	??$run@V?$CwiseBinaryOp@U?$scalar_product_op@NN@internal@Eigen@@$$CBV?$Block@$$CBV?$Block@$$CBV?$Map@$$CBV?$Matrix@N$0?0$0?0$00$0?0$0?0@Eigen@@$0A@V?$OuterStride@$0?0@2@@Eigen@@$00$0?0$00@Eigen@@$00$0?0$0A@@3@$$CBV?$Transpose@$$CBV?$Block@$$CBV?$Map@$$CBV?$Matrix@N$0?0$00$0A@$0?0$00@Eigen@@$0A@V?$Stride@$0A@$0A@@2@@Eigen@@$0?0$00$0A@@Eigen@@@3@@Eigen@@@?$redux_impl@U?$scalar_sum_op@NN@internal@Eigen@@V?$redux_evaluator@V?$CwiseBinaryOp@U?$scalar_product_op@NN@internal@Eigen@@$$CBV?$Block@$$CBV?$Block@$$CBV?$Map@$$CBV?$Matrix@N$0?0$0?0$00$0?0$0?0@Eigen@@$0A@V?$OuterStride@$0?0@2@@Eigen@@$00$0?0$00@Eigen@@$00$0?0$0A@@3@$$CBV?$Transpose@$$CBV?$Block@$$CBV?$Map@$$CBV?$Matrix@N$0?0$00$0A@$0?0$00@Eigen@@$0A@V?$Stride@$0A@$0A@@2@@Eigen@@$0?0$00$0A@@Eigen@@@3@@Eigen@@@23@$02$0A@@internal@Eigen@@SANAEBV?$redux_evaluator@V?$CwiseBinaryOp@U?$scalar_product_op@NN@internal@Eigen@@$$CBV?$Block@$$CBV?$Block@$$CBV?$Map@$$CBV?$Matrix@N$0?0$0?0$00$0?0$0?0@Eigen@@$0A@V?$OuterStride@$0?0@2@@Eigen@@$00$0?0$00@Eigen@@$00$0?0$0A@@3@$$CBV?$Transpose@$$CBV?$Block@$$CBV?$Map@$$CBV?$Matrix@N$0?0$00$0A@$0?0$00@Eigen@@$0A@V?$Stride@$0A@$0A@@2@@Eigen@@$0?0$00$0A@@Eigen@@@3@@Eigen@@@12@AEBU?$scalar_sum_op@NN@12@AEBV?$CwiseBinaryOp@U?$scalar_product_op@NN@internal@Eigen@@$$CBV?$Block@$$CBV?$Block@$$CBV?$Map@$$CBV?$Matrix@N$0?0$0?0$00$0?0$0?0@Eigen@@$0A@V?$OuterStride@$0?0@2@@Eigen@@$00$0?0$00@Eigen@@$00$0?0$0A@@3@$$CBV?$Transpose@$$CBV?$Block@$$CBV?$Map@$$CBV?$Matrix@N$0?0$00$0A@$0?0$00@Eigen@@$0A@V?$Stride@$0A@$0A@@2@@Eigen@@$0?0$00$0A@@Eigen@@@3@@2@@Z
	??$run@V?$CwiseBinaryOp@U?$scalar_product_op@NN@internal@Eigen@@$$CBV?$Transpose@$$CBV?$Block@$$CBV?$Transpose@$$CBV?$Block@$$CBV?$Matrix@N$0?0$0?0$0A@$0?0$0?0@Eigen@@$0?0$00$0A@@Eigen@@@Eigen@@$00$0?0$00@Eigen@@@3@$$CBV?$Block@$$CBV?$Block@V?$Block@V?$Matrix@N$0?0$00$0A@$0?0$00@Eigen@@$0?0$0?0$0A@@Eigen@@$0?0$0?0$0A@@Eigen@@$0?0$00$00@3@@Eigen@@@?$redux_impl@U?$scalar_sum_op@NN@internal@Eigen@@V?$redux_evaluator@V?$CwiseBinaryOp@U?$scalar_product_op@NN@internal@Eigen@@$$CBV?$Transpose@$$CBV?$Block@$$CBV?$Transpose@$$CBV?$Block@$$CBV?$Matrix@N$0?0$0?0$0A@$0?0$0?0@Eigen@@$0?0$00$0A@@Eigen@@@Eigen@@$00$0?0$00@Eigen@@@3@$$CBV?$Block@$$CBV?$Block@V?$Block@V?$Matrix@N$0?0$00$0A@$0?0$00@Eigen@@$0?0$0?0$0A@@Eigen@@$0?0$0?0$0A@@Eigen@@$0?0$00$00@3@@Eigen@@@23@$02$0A@@internal@Eigen@@SANAEBV?$redux_evaluator@V?$CwiseBinaryOp@U?$scalar_product_op@NN@internal@Eigen@@$$CBV?$Transpose@$$CBV?$Block@$$CBV?$Transpose@$$CBV?$Block@$$CBV?$Matrix@N$0?0$0?0$0A@$0?0$0?0@Eigen@@$0?0$00$0A@@Eigen@@@Eigen@@$00$0?0$00@Eigen@@@3@$$CBV?$Block@$$CBV?$Block@V?$Block@V?$Matrix@N$0?0$00$0A@$0?0$00@Eigen@@$0?0$0?0$0A@@Eigen@@$0?0$0?0$0A@@Eigen@@$0?0$00$00@3@@Eigen@@@12@AEBU?$scalar_sum_op@NN@12@AEBV?$CwiseBinaryOp@U?$scalar_product_op@NN@internal@Eigen@@$$CBV?$Transpose@$$CBV?$Block@$$CBV?$Transpose@$$CBV?$Block@$$CBV?$Matrix@N$0?0$0?0$0A@$0?0$0?0@Eigen@@$0?0$00$0A@@Eigen@@@Eigen@@$00$0?0$00@Eigen@@@3@$$CBV?$Block@$$CBV?$Block@V?$Block@V?$Matrix@N$0?0$00$0A@$0?0$00@Eigen@@$0?0$0?0$0A@@Eigen@@$0?0$0?0$0A@@Eigen@@$0?0$00$00@3@@2@@Z
	??$run@V?$CwiseUnaryOp@U?$scalar_abs2_op@N@internal@Eigen@@$$CBV?$Block@$$CBV?$Block@V?$Block@V?$Matrix@N$0?0$0?0$0A@$0?0$0?0@Eigen@@$0?0$00$00@Eigen@@$0?0$00$0A@@Eigen@@$0?0$00$0A@@3@@Eigen@@@?$redux_impl@U?$scalar_sum_op@NN@internal@Eigen@@V?$redux_evaluator@V?$CwiseUnaryOp@U?$scalar_abs2_op@N@internal@Eigen@@$$CBV?$Block@$$CBV?$Block@V?$Block@V?$Matrix@N$0?0$0?0$0A@$0?0$0?0@Eigen@@$0?0$00$00@Eigen@@$0?0$00$0A@@Eigen@@$0?0$00$0A@@3@@Eigen@@@23@$02$0A@@internal@Eigen@@SANAEBV?$redux_evaluator@V?$CwiseUnaryOp@U?$scalar_abs2_op@N@internal@Eigen@@$$CBV?$Block@$$CBV?$Block@V?$Block@V?$Matrix@N$0?0$0?0$0A@$0?0$0?0@Eigen@@$0?0$00$00@Eigen@@$0?0$00$0A@@Eigen@@$0?0$00$0A@@3@@Eigen@@@12@AEBU?$scalar_sum_op@NN@12@AEBV?$CwiseUnaryOp@U?$scalar_abs2_op@N@internal@Eigen@@$$CBV?$Block@$$CBV?$Block@V?$Block@V?$Matrix@N$0?0$0?0$0A@$0?0$0?0@Eigen@@$0?0$00$00@Eigen@@$0?0$00$0A@@Eigen@@$0?0$00$0A@@3@@2@@Z
	??$run@V?$CwiseUnaryOp@U?$scalar_abs2_op@N@internal@Eigen@@$$CBV?$Block@V?$Block@V?$Matrix@N$0?0$0?0$0A@$0?0$0?0@Eigen@@$0?0$00$00@Eigen@@$0?0$00$0A@@3@@Eigen@@@?$redux_impl@U?$scalar_sum_op@NN@internal@Eigen@@V?$redux_evaluator@V?$CwiseUnaryOp@U?$scalar_abs2_op@N@internal@Eigen@@$$CBV?$Block@V?$Block@V?$Matrix@N$0?0$0?0$0A@$0?0$0?0@Eigen@@$0?0$00$00@Eigen@@$0?0$00$0A@@3@@Eigen@@@23@$02$0A@@internal@Eigen@@SANAEBV?$redux_evaluator@V?$CwiseUnaryOp@U?$scalar_abs2_op@N@internal@Eigen@@$$CBV?$Block@V?$Block@V?$Matrix@N$0?0$0?0$0A@$0?0$0?0@Eigen@@$0?0$00$00@Eigen@@$0?0$00$0A@@3@@Eigen@@@12@AEBU?$scalar_sum_op@NN@12@AEBV?$CwiseUnaryOp@U?$scalar_abs2_op@N@internal@Eigen@@$$CBV?$Block@V?$Block@V?$Matrix@N$0?0$0?0$0A@$0?0$0?0@Eigen@@$0?0$00$00@Eigen@@$0?0$00$0A@@3@@2@@Z
	??$run@V?$CwiseUnaryOp@U?$scalar_abs2_op@N@internal@Eigen@@$$CBV?$Block@V?$Matrix@N$0?0$0?0$0A@$0?0$0?0@Eigen@@$0?0$00$00@3@@Eigen@@@?$redux_impl@U?$scalar_sum_op@NN@internal@Eigen@@V?$redux_evaluator@V?$CwiseUnaryOp@U?$scalar_abs2_op@N@internal@Eigen@@$$CBV?$Block@V?$Matrix@N$0?0$0?0$0A@$0?0$0?0@Eigen@@$0?0$00$00@3@@Eigen@@@23@$02$0A@@internal@Eigen@@SANAEBV?$redux_evaluator@V?$CwiseUnaryOp@U?$scalar_abs2_op@N@internal@Eigen@@$$CBV?$Block@V?$Matrix@N$0?0$0?0$0A@$0?0$0?0@Eigen@@$0?0$00$00@3@@Eigen@@@12@AEBU?$scalar_sum_op@NN@12@AEBV?$CwiseUnaryOp@U?$scalar_abs2_op@N@internal@Eigen@@$$CBV?$Block@V?$Matrix@N$0?0$0?0$0A@$0?0$0?0@Eigen@@$0?0$00$00@3@@2@@Z
	??$run@V?$CwiseUnaryOp@U?$scalar_abs_op@N@internal@Eigen@@$$CBV?$Matrix@N$0?0$0?0$0A@$0?0$0?0@3@@Eigen@@@?$redux_impl@U?$scalar_max_op@NN@internal@Eigen@@V?$redux_evaluator@V?$CwiseUnaryOp@U?$scalar_abs_op@N@internal@Eigen@@$$CBV?$Matrix@N$0?0$0?0$0A@$0?0$0?0@3@@Eigen@@@23@$02$0A@@internal@Eigen@@SANAEBV?$redux_evaluator@V?$CwiseUnaryOp@U?$scalar_abs_op@N@internal@Eigen@@$$CBV?$Matrix@N$0?0$0?0$0A@$0?0$0?0@3@@Eigen@@@12@AEBU?$scalar_max_op@NN@12@AEBV?$CwiseUnaryOp@U?$scalar_abs_op@N@internal@Eigen@@$$CBV?$Matrix@N$0?0$0?0$0A@$0?0$0?0@3@@2@@Z
	??$run@V?$Matrix@N$00$0?0$00$00$0?0@Eigen@@@?$redux_impl@U?$scalar_max_op@NN@internal@Eigen@@V?$redux_evaluator@V?$Matrix@N$00$0?0$00$00$0?0@Eigen@@@23@$02$0A@@internal@Eigen@@SANAEBV?$redux_evaluator@V?$Matrix@N$00$0?0$00$00$0?0@Eigen@@@12@AEBU?$scalar_max_op@NN@12@AEBV?$Matrix@N$00$0?0$00$00$0?0@2@@Z
	??$run@V?$Matrix@N$0?0$0?0$0A@$0?0$00@Eigen@@@?$triangular_product_impl@$00$00$$CBV?$Transpose@$$CBV?$Matrix@N$0?0$0?0$00$0?0$0?0@Eigen@@@Eigen@@$0A@V?$Matrix@N$0?0$0?0$0A@$0?0$00@2@$0A@@internal@Eigen@@SAXAEAV?$Matrix@N$0?0$0?0$0A@$0?0$00@2@AEBV?$Transpose@$$CBV?$Matrix@N$0?0$0?0$00$0?0$0?0@Eigen@@@2@AEBV32@AEBN@Z
	??$run@V?$Matrix@N$0?0$0?0$0A@$0?0$00@Eigen@@@?$triangular_product_impl@$01$00V?$Matrix@N$0?0$0?0$00$0?0$0?0@Eigen@@$0A@V?$Matrix@N$0?0$0?0$0A@$0?0$00@2@$0A@@internal@Eigen@@SAXAEAV?$Matrix@N$0?0$0?0$0A@$0?0$00@2@AEBV?$Matrix@N$0?0$0?0$00$0?0$0?0@2@AEBV32@AEBN@Z
	??$run@V?$Matrix@N$0?0$0?0$0A@$0?0$00@Eigen@@@?$triangular_product_impl@$05$00$$CBV?$Transpose@$$CBV?$Block@V?$Matrix@N$0?0$0?0$0A@$0?0$0?0@Eigen@@$0?0$0?0$0A@@Eigen@@@Eigen@@$0A@V?$Block@V?$Matrix@N$0?0$00$0A@$0?0$00@Eigen@@$0?0$0?0$0A@@2@$0A@@internal@Eigen@@SAXAEAV?$Matrix@N$0?0$0?0$0A@$0?0$00@2@AEBV?$Transpose@$$CBV?$Block@V?$Matrix@N$0?0$0?0$0A@$0?0$0?0@Eigen@@$0?0$0?0$0A@@Eigen@@@2@AEBV?$Block@V?$Matrix@N$0?0$00$0A@$0?0$00@Eigen@@$0?0$0?0$0A@@2@AEBN@Z
	??$run@V?$Matrix@N$0?0$0?0$0A@$0?0$0?0@Eigen@@@?$triangular_product_impl@$00$00$$CBV?$Transpose@$$CBV?$Matrix@N$0?0$0?0$00$0?0$0?0@Eigen@@@Eigen@@$0A@V?$Matrix@N$0?0$0?0$0A@$0?0$0?0@2@$0A@@internal@Eigen@@SAXAEAV?$Matrix@N$0?0$0?0$0A@$0?0$0?0@2@AEBV?$Transpose@$$CBV?$Matrix@N$0?0$0?0$00$0?0$0?0@Eigen@@@2@AEBV32@AEBN@Z
	??$run@V?$Matrix@N$0?0$0?0$0A@$0?0$0?0@Eigen@@@?$triangular_product_impl@$01$00V?$Matrix@N$0?0$0?0$00$0?0$0?0@Eigen@@$0A@V?$Matrix@N$0?0$0?0$0A@$0?0$0?0@2@$0A@@internal@Eigen@@SAXAEAV?$Matrix@N$0?0$0?0$0A@$0?0$0?0@2@AEBV?$Matrix@N$0?0$0?0$00$0?0$0?0@2@AEBV32@AEBN@Z
	??$run@V?$Matrix@N$0?0$0?0$0A@$0?0$0?0@Eigen@@@?$triangular_product_impl@$05$00$$CBV?$Transpose@$$CBV?$Block@V?$Matrix@N$0?0$0?0$0A@$0?0$0?0@Eigen@@$0?0$0?0$0A@@Eigen@@@Eigen@@$0A@V?$Block@V?$Matrix@N$0?0$0?0$0A@$0?0$0?0@Eigen@@$0?0$0?0$0A@@2@$0A@@internal@Eigen@@SAXAEAV?$Matrix@N$0?0$0?0$0A@$0?0$0?0@2@AEBV?$Transpose@$$CBV?$Block@V?$Matrix@N$0?0$0?0$0A@$0?0$0?0@Eigen@@$0?0$0?0$0A@@Eigen@@@2@AEBV?$Block@V?$Matrix@N$0?0$0?0$0A@$0?0$0?0@Eigen@@$0?0$0?0$0A@@2@AEBN@Z
	??$run@V?$Matrix@N$0?0$0?0$0A@$0?0$0?0@Eigen@@V?$PermutationMatrix@$0?0$0?0H@2@@?$permutation_matrix_product@V?$CwiseNullaryOp@U?$scalar_identity_op@N@internal@Eigen@@V?$Matrix@N$0?0$0?0$0A@$0?0$0?0@3@@Eigen@@$00$0A@UDenseShape@2@@internal@Eigen@@SAXAEAV?$Matrix@N$0?0$0?0$0A@$0?0$0?0@2@AEBV?$PermutationMatrix@$0?0$0?0H@2@AEBV?$CwiseNullaryOp@U?$scalar_identity_op@N@internal@Eigen@@V?$Matrix@N$0?0$0?0$0A@$0?0$0?0@3@@2@@Z
	??$run@V?$Transpose@$$CBV?$Block@$$CBV?$Block@V?$Matrix@N$0?0$0?0$0A@$0?0$0?0@Eigen@@$0?0$0?0$0A@@Eigen@@$0?0$0?0$0A@@Eigen@@@Eigen@@V?$Transpose@$$CBV?$CwiseBinaryOp@U?$scalar_product_op@NN@internal@Eigen@@$$CBV?$CwiseNullaryOp@U?$scalar_constant_op@N@internal@Eigen@@$$CBV?$Matrix@N$00$0?0$00$00$0?0@3@@3@$$CBV?$Transpose@$$CBV?$Block@$$CBV?$Block@$$CBV?$Block@V?$Matrix@N$0?0$0?0$0A@$0?0$0?0@Eigen@@$0?0$0?0$0A@@Eigen@@$0?0$00$00@Eigen@@$0?0$00$0A@@Eigen@@@3@@Eigen@@@2@V?$Transpose@V?$Block@V?$Block@V?$Matrix@N$0?0$0?0$00$0?0$0?0@Eigen@@$00$0?0$00@Eigen@@$00$0?0$0A@@Eigen@@@2@@?$trmv_selector@$05$00@internal@Eigen@@SAXAEBV?$Transpose@$$CBV?$Block@$$CBV?$Block@V?$Matrix@N$0?0$0?0$0A@$0?0$0?0@Eigen@@$0?0$0?0$0A@@Eigen@@$0?0$0?0$0A@@Eigen@@@2@AEBV?$Transpose@$$CBV?$CwiseBinaryOp@U?$scalar_product_op@NN@internal@Eigen@@$$CBV?$CwiseNullaryOp@U?$scalar_constant_op@N@internal@Eigen@@$$CBV?$Matrix@N$00$0?0$00$00$0?0@3@@3@$$CBV?$Transpose@$$CBV?$Block@$$CBV?$Block@$$CBV?$Block@V?$Matrix@N$0?0$0?0$0A@$0?0$0?0@Eigen@@$0?0$0?0$0A@@Eigen@@$0?0$00$00@Eigen@@$0?0$00$0A@@Eigen@@@3@@Eigen@@@2@AEAV?$Transpose@V?$Block@V?$Block@V?$Matrix@N$0?0$0?0$00$0?0$0?0@Eigen@@$00$0?0$00@Eigen@@$00$0?0$0A@@Eigen@@@2@AEBN@Z
	??$run@V?$Transpose@$$CBV?$Block@V?$Block@V?$Matrix@N$0?0$0?0$0A@$0?0$0?0@Eigen@@$0?0$0?0$0A@@Eigen@@$0?0$0?0$0A@@Eigen@@@Eigen@@V?$Transpose@$$CBV?$Transpose@$$CBV?$Block@$$CBV?$Matrix@N$0?0$0?0$0A@$0?0$0?0@Eigen@@$0?0$00$0A@@Eigen@@@Eigen@@@2@V?$Transpose@V?$Map@V?$Matrix@N$00$0?0$00$00$0?0@Eigen@@$0A@V?$Stride@$0A@$0A@@2@@Eigen@@@2@@?$gemv_dense_selector@$01$00$00@internal@Eigen@@SAXAEBV?$Transpose@$$CBV?$Block@V?$Block@V?$Matrix@N$0?0$0?0$0A@$0?0$0?0@Eigen@@$0?0$0?0$0A@@Eigen@@$0?0$0?0$0A@@Eigen@@@2@AEBV?$Transpose@$$CBV?$Transpose@$$CBV?$Block@$$CBV?$Matrix@N$0?0$0?0$0A@$0?0$0?0@Eigen@@$0?0$00$0A@@Eigen@@@Eigen@@@2@AEAV?$Transpose@V?$Map@V?$Matrix@N$00$0?0$00$00$0?0@Eigen@@$0A@V?$Stride@$0A@$0A@@2@@Eigen@@@2@AEBN@Z
	??$run@V?$Transpose@$$CBV?$Block@V?$Block@V?$Matrix@N$0?0$0?0$0A@$0?0$0?0@Eigen@@$0?0$0?0$0A@@Eigen@@$0?0$0?0$0A@@Eigen@@@Eigen@@V?$Transpose@$$CBV?$Transpose@$$CBV?$Block@V?$Block@V?$Matrix@N$0?0$0?0$0A@$0?0$0?0@Eigen@@$0?0$00$00@Eigen@@$0?0$00$0A@@Eigen@@@Eigen@@@2@V?$Transpose@V?$Map@V?$Matrix@N$00$0?0$00$00$0?0@Eigen@@$0A@V?$Stride@$0A@$0A@@2@@Eigen@@@2@@?$gemv_dense_selector@$01$00$00@internal@Eigen@@SAXAEBV?$Transpose@$$CBV?$Block@V?$Block@V?$Matrix@N$0?0$0?0$0A@$0?0$0?0@Eigen@@$0?0$0?0$0A@@Eigen@@$0?0$0?0$0A@@Eigen@@@2@AEBV?$Transpose@$$CBV?$Transpose@$$CBV?$Block@V?$Block@V?$Matrix@N$0?0$0?0$0A@$0?0$0?0@Eigen@@$0?0$00$00@Eigen@@$0?0$00$0A@@Eigen@@@Eigen@@@2@AEAV?$Transpose@V?$Map@V?$Matrix@N$00$0?0$00$00$0?0@Eigen@@$0A@V?$Stride@$0A@$0A@@2@@Eigen@@@2@AEBN@Z
	??$run@V?$Transpose@$$CBV?$Ref@V?$Matrix@N$0?0$0?0$0A@$0?0$0?0@Eigen@@$0A@V?$OuterStride@$0?0@2@@Eigen@@@Eigen@@V?$Transpose@$$CBV?$Block@$$CBV?$Ref@V?$Matrix@N$0?0$0?0$0A@$0?0$0?0@Eigen@@$0A@V?$OuterStride@$0?0@2@@Eigen@@$00$0?0$0A@@Eigen@@@2@V?$Transpose@V?$Block@V?$Ref@V?$Matrix@N$0?0$0?0$0A@$0?0$0?0@Eigen@@$0A@V?$OuterStride@$0?0@2@@Eigen@@$00$0?0$0A@@Eigen@@@2@@?$gemv_dense_selector@$01$00$00@internal@Eigen@@SAXAEBV?$Transpose@$$CBV?$Ref@V?$Matrix@N$0?0$0?0$0A@$0?0$0?0@Eigen@@$0A@V?$OuterStride@$0?0@2@@Eigen@@@2@AEBV?$Transpose@$$CBV?$Block@$$CBV?$Ref@V?$Matrix@N$0?0$0?0$0A@$0?0$0?0@Eigen@@$0A@V?$OuterStride@$0?0@2@@Eigen@@$00$0?0$0A@@Eigen@@@2@AEAV?$Transpose@V?$Block@V?$Ref@V?$Matrix@N$0?0$0?0$0A@$0?0$0?0@Eigen@@$0A@V?$OuterStride@$0?0@2@@Eigen@@$00$0?0$0A@@Eigen@@@2@AEBN@Z
	??$run@V?$generic_dense_assignment_kernel@U?$evaluator@V?$Block@V?$Block@V?$Block@V?$Matrix@N$0?0$0?0$0A@$0?0$0?0@Eigen@@$0?0$00$00@Eigen@@$0?0$00$0A@@Eigen@@$0?0$00$0A@@Eigen@@@internal@Eigen@@U?$evaluator@V?$CwiseBinaryOp@U?$scalar_quotient_op@NN@internal@Eigen@@$$CBV?$Block@$$CBV?$Block@V?$Block@V?$Matrix@N$0?0$0?0$0A@$0?0$0?0@Eigen@@$0?0$00$00@Eigen@@$0?0$00$0A@@Eigen@@$0?0$00$0A@@3@$$CBV?$CwiseNullaryOp@U?$scalar_constant_op@N@internal@Eigen@@$$CBV?$Matrix@N$0?0$00$0A@$0?0$00@3@@3@@Eigen@@@23@U?$assign_op@NN@23@$0A@@internal@Eigen@@@?$unaligned_dense_assignment_loop@$0A@@internal@Eigen@@SAXAEAV?$generic_dense_assignment_kernel@U?$evaluator@V?$Block@V?$Block@V?$Block@V?$Matrix@N$0?0$0?0$0A@$0?0$0?0@Eigen@@$0?0$00$00@Eigen@@$0?0$00$0A@@Eigen@@$0?0$00$0A@@Eigen@@@internal@Eigen@@U?$evaluator@V?$CwiseBinaryOp@U?$scalar_quotient_op@NN@internal@Eigen@@$$CBV?$Block@$$CBV?$Block@V?$Block@V?$Matrix@N$0?0$0?0$0A@$0?0$0?0@Eigen@@$0?0$00$00@Eigen@@$0?0$00$0A@@Eigen@@$0?0$00$0A@@3@$$CBV?$CwiseNullaryOp@U?$scalar_constant_op@N@internal@Eigen@@$$CBV?$Matrix@N$0?0$00$0A@$0?0$00@3@@3@@Eigen@@@23@U?$assign_op@NN@23@$0A@@12@_J1@Z
	??$run@V?$generic_dense_assignment_kernel@U?$evaluator@V?$Block@V?$Block@V?$Block@V?$Matrix@N$0?0$0?0$0A@$0?0$0?0@Eigen@@$0?0$00$00@Eigen@@$0?0$00$0A@@Eigen@@$0?0$00$0A@@Eigen@@@internal@Eigen@@U?$evaluator@V?$CwiseNullaryOp@U?$scalar_constant_op@N@internal@Eigen@@V?$Matrix@N$0?0$00$0A@$0?0$00@3@@Eigen@@@23@U?$assign_op@NN@23@$0A@@internal@Eigen@@@?$unaligned_dense_assignment_loop@$0A@@internal@Eigen@@SAXAEAV?$generic_dense_assignment_kernel@U?$evaluator@V?$Block@V?$Block@V?$Block@V?$Matrix@N$0?0$0?0$0A@$0?0$0?0@Eigen@@$0?0$00$00@Eigen@@$0?0$00$0A@@Eigen@@$0?0$00$0A@@Eigen@@@internal@Eigen@@U?$evaluator@V?$CwiseNullaryOp@U?$scalar_constant_op@N@internal@Eigen@@V?$Matrix@N$0?0$00$0A@$0?0$00@3@@Eigen@@@23@U?$assign_op@NN@23@$0A@@12@_J1@Z
	??$run@V?$generic_dense_assignment_kernel@U?$evaluator@V?$Block@V?$Block@V?$Block@V?$Matrix@N$0?0$0?0$0A@$0?0$0?0@Eigen@@$0?0$0?0$0A@@Eigen@@$0?0$0?0$0A@@Eigen@@$0?0$00$00@Eigen@@@internal@Eigen@@U?$evaluator@V?$CwiseBinaryOp@U?$scalar_product_op@NN@internal@Eigen@@$$CBV?$CwiseNullaryOp@U?$scalar_constant_op@N@internal@Eigen@@$$CBV?$Matrix@N$0?0$00$0A@$0?0$00@3@@3@$$CBV?$Map@V?$Matrix@N$0?0$00$0A@$0?0$00@Eigen@@$0BA@V?$Stride@$0A@$0A@@2@@3@@Eigen@@@23@U?$sub_assign_op@NN@23@$0A@@internal@Eigen@@@?$unaligned_dense_assignment_loop@$0A@@internal@Eigen@@SAXAEAV?$generic_dense_assignment_kernel@U?$evaluator@V?$Block@V?$Block@V?$Block@V?$Matrix@N$0?0$0?0$0A@$0?0$0?0@Eigen@@$0?0$0?0$0A@@Eigen@@$0?0$0?0$0A@@Eigen@@$0?0$00$00@Eigen@@@internal@Eigen@@U?$evaluator@V?$CwiseBinaryOp@U?$scalar_product_op@NN@internal@Eigen@@$$CBV?$CwiseNullaryOp@U?$scalar_constant_op@N@internal@Eigen@@$$CBV?$Matrix@N$0?0$00$0A@$0?0$00@3@@3@$$CBV?$Map@V?$Matrix@N$0?0$00$0A@$0?0$00@Eigen@@$0BA@V?$Stride@$0A@$0A@@2@@3@@Eigen@@@23@U?$sub_assign_op@NN@23@$0A@@12@_J1@Z
	??$run@V?$generic_dense_assignment_kernel@U?$evaluator@V?$Block@V?$Block@V?$Matrix@N$0?0$0?0$00$0?0$0?0@Eigen@@$00$0?0$00@Eigen@@$00$0?0$0A@@Eigen@@@internal@Eigen@@U?$evaluator@V?$CwiseBinaryOp@U?$scalar_product_op@NN@internal@Eigen@@$$CBV?$CwiseNullaryOp@U?$scalar_constant_op@N@internal@Eigen@@$$CBV?$Matrix@N$00$0?0$00$00$0?0@3@@3@$$CBV?$Block@V?$Block@V?$Matrix@N$0?0$0?0$00$0?0$0?0@Eigen@@$00$0?0$00@Eigen@@$00$0?0$0A@@3@@Eigen@@@23@U?$add_assign_op@NN@23@$0A@@internal@Eigen@@@?$unaligned_dense_assignment_loop@$0A@@internal@Eigen@@SAXAEAV?$generic_dense_assignment_kernel@U?$evaluator@V?$Block@V?$Block@V?$Matrix@N$0?0$0?0$00$0?0$0?0@Eigen@@$00$0?0$00@Eigen@@$00$0?0$0A@@Eigen@@@internal@Eigen@@U?$evaluator@V?$CwiseBinaryOp@U?$scalar_product_op@NN@internal@Eigen@@$$CBV?$CwiseNullaryOp@U?$scalar_constant_op@N@internal@Eigen@@$$CBV?$Matrix@N$00$0?0$00$00$0?0@3@@3@$$CBV?$Block@V?$Block@V?$Matrix@N$0?0$0?0$00$0?0$0?0@Eigen@@$00$0?0$00@Eigen@@$00$0?0$0A@@3@@Eigen@@@23@U?$add_assign_op@NN@23@$0A@@12@_J1@Z
	??$run@V?$generic_dense_assignment_kernel@U?$evaluator@V?$Block@V?$Block@V?$Matrix@N$0?0$0?0$00$0?0$0?0@Eigen@@$00$0?0$00@Eigen@@$00$0?0$0A@@Eigen@@@internal@Eigen@@U?$evaluator@V?$CwiseNullaryOp@U?$scalar_constant_op@N@internal@Eigen@@V?$Matrix@N$00$0?0$00$00$0?0@3@@Eigen@@@23@U?$assign_op@NN@23@$0A@@internal@Eigen@@@?$unaligned_dense_assignment_loop@$0A@@internal@Eigen@@SAXAEAV?$generic_dense_assignment_kernel@U?$evaluator@V?$Block@V?$Block@V?$Matrix@N$0?0$0?0$00$0?0$0?0@Eigen@@$00$0?0$00@Eigen@@$00$0?0$0A@@Eigen@@@internal@Eigen@@U?$evaluator@V?$CwiseNullaryOp@U?$scalar_constant_op@N@internal@Eigen@@V?$Matrix@N$00$0?0$00$00$0?0@3@@Eigen@@@23@U?$assign_op@NN@23@$0A@@12@_J1@Z
	??$run@V?$generic_dense_assignment_kernel@U?$evaluator@V?$Block@V?$Block@V?$Matrix@N$0?0$0?0$0A@$0?0$0?0@Eigen@@$0?0$00$00@Eigen@@$0?0$00$0A@@Eigen@@@internal@Eigen@@U?$evaluator@V?$CwiseNullaryOp@U?$scalar_constant_op@N@internal@Eigen@@V?$Matrix@N$0?0$00$0A@$0?0$00@3@@Eigen@@@23@U?$assign_op@NN@23@$0A@@internal@Eigen@@@?$unaligned_dense_assignment_loop@$0A@@internal@Eigen@@SAXAEAV?$generic_dense_assignment_kernel@U?$evaluator@V?$Block@V?$Block@V?$Matrix@N$0?0$0?0$0A@$0?0$0?0@Eigen@@$0?0$00$00@Eigen@@$0?0$00$0A@@Eigen@@@internal@Eigen@@U?$evaluator@V?$CwiseNullaryOp@U?$scalar_constant_op@N@internal@Eigen@@V?$Matrix@N$0?0$00$0A@$0?0$00@3@@Eigen@@@23@U?$assign_op@NN@23@$0A@@12@_J1@Z
	??$run@V?$generic_dense_assignment_kernel@U?$evaluator@V?$Block@V?$Block@V?$Matrix@N$0?0$0?0$0A@$0?0$0?0@Eigen@@$0?0$0?0$0A@@Eigen@@$0?0$00$00@Eigen@@@internal@Eigen@@U?$evaluator@V?$CwiseBinaryOp@U?$scalar_product_op@NN@internal@Eigen@@$$CBV?$CwiseNullaryOp@U?$scalar_constant_op@N@internal@Eigen@@$$CBV?$Matrix@N$0?0$00$0A@$0?0$00@3@@3@$$CBV?$Map@V?$Matrix@N$0?0$00$0A@$0?0$00@Eigen@@$0A@V?$Stride@$0A@$0A@@2@@3@@Eigen@@@23@U?$sub_assign_op@NN@23@$0A@@internal@Eigen@@@?$unaligned_dense_assignment_loop@$0A@@internal@Eigen@@SAXAEAV?$generic_dense_assignment_kernel@U?$evaluator@V?$Block@V?$Block@V?$Matrix@N$0?0$0?0$0A@$0?0$0?0@Eigen@@$0?0$0?0$0A@@Eigen@@$0?0$00$00@Eigen@@@internal@Eigen@@U?$evaluator@V?$CwiseBinaryOp@U?$scalar_product_op@NN@internal@Eigen@@$$CBV?$CwiseNullaryOp@U?$scalar_constant_op@N@internal@Eigen@@$$CBV?$Matrix@N$0?0$00$0A@$0?0$00@3@@3@$$CBV?$Map@V?$Matrix@N$0?0$00$0A@$0?0$00@Eigen@@$0A@V?$Stride@$0A@$0A@@2@@3@@Eigen@@@23@U?$sub_assign_op@NN@23@$0A@@12@_J1@Z
	??$run@V?$generic_dense_assignment_kernel@U?$evaluator@V?$Block@V?$Block@V?$Ref@V?$Matrix@N$0?0$0?0$0A@$0?0$0?0@Eigen@@$0A@V?$OuterStride@$0?0@2@@Eigen@@$0?0$00$00@Eigen@@$0?0$00$0A@@Eigen@@@internal@Eigen@@U?$evaluator@V?$CwiseNullaryOp@U?$scalar_constant_op@N@internal@Eigen@@V?$Matrix@N$0?0$00$0A@$0?0$00@3@@Eigen@@@23@U?$div_assign_op@NN@23@$0A@@internal@Eigen@@@?$unaligned_dense_assignment_loop@$0A@@internal@Eigen@@SAXAEAV?$generic_dense_assignment_kernel@U?$evaluator@V?$Block@V?$Block@V?$Ref@V?$Matrix@N$0?0$0?0$0A@$0?0$0?0@Eigen@@$0A@V?$OuterStride@$0?0@2@@Eigen@@$0?0$00$00@Eigen@@$0?0$00$0A@@Eigen@@@internal@Eigen@@U?$evaluator@V?$CwiseNullaryOp@U?$scalar_constant_op@N@internal@Eigen@@V?$Matrix@N$0?0$00$0A@$0?0$00@3@@Eigen@@@23@U?$div_assign_op@NN@23@$0A@@12@_J1@Z
	??$run@V?$generic_dense_assignment_kernel@U?$evaluator@V?$Block@V?$Block@V?$Ref@V?$Matrix@N$0?0$0?0$0A@$0?0$0?0@Eigen@@$0A@V?$OuterStride@$0?0@2@@Eigen@@$0?0$0?0$0A@@Eigen@@$0?0$00$00@Eigen@@@internal@Eigen@@U?$evaluator@V?$CwiseBinaryOp@U?$scalar_product_op@NN@internal@Eigen@@$$CBV?$CwiseNullaryOp@U?$scalar_constant_op@N@internal@Eigen@@$$CBV?$Matrix@N$0?0$00$0A@$0?0$00@3@@3@$$CBV?$Block@V?$Block@V?$Ref@V?$Matrix@N$0?0$0?0$0A@$0?0$0?0@Eigen@@$0A@V?$OuterStride@$0?0@2@@Eigen@@$0?0$00$00@Eigen@@$0?0$00$0A@@3@@Eigen@@@23@U?$sub_assign_op@NN@23@$0A@@internal@Eigen@@@?$unaligned_dense_assignment_loop@$0A@@internal@Eigen@@SAXAEAV?$generic_dense_assignment_kernel@U?$evaluator@V?$Block@V?$Block@V?$Ref@V?$Matrix@N$0?0$0?0$0A@$0?0$0?0@Eigen@@$0A@V?$OuterStride@$0?0@2@@Eigen@@$0?0$0?0$0A@@Eigen@@$0?0$00$00@Eigen@@@internal@Eigen@@U?$evaluator@V?$CwiseBinaryOp@U?$scalar_product_op@NN@internal@Eigen@@$$CBV?$CwiseNullaryOp@U?$scalar_constant_op@N@internal@Eigen@@$$CBV?$Matrix@N$0?0$00$0A@$0?0$00@3@@3@$$CBV?$Block@V?$Block@V?$Ref@V?$Matrix@N$0?0$0?0$0A@$0?0$0?0@Eigen@@$0A@V?$OuterStride@$0?0@2@@Eigen@@$0?0$00$00@Eigen@@$0?0$00$0A@@3@@Eigen@@@23@U?$sub_assign_op@NN@23@$0A@@12@_J1@Z
	??$run@V?$generic_dense_assignment_kernel@U?$evaluator@V?$Block@V?$Matrix@N$0?0$0?0$0A@$0?0$0?0@Eigen@@$0?0$00$00@Eigen@@@internal@Eigen@@U123@U?$swap_assign_op@N@23@$0A@@internal@Eigen@@@?$unaligned_dense_assignment_loop@$0A@@internal@Eigen@@SAXAEAV?$generic_dense_assignment_kernel@U?$evaluator@V?$Block@V?$Matrix@N$0?0$0?0$0A@$0?0$0?0@Eigen@@$0?0$00$00@Eigen@@@internal@Eigen@@U123@U?$swap_assign_op@N@23@$0A@@12@_J1@Z
	??$run@V?$generic_dense_assignment_kernel@U?$evaluator@V?$Block@V?$Matrix@N$0?0$0?0$0A@$0?0$0?0@Eigen@@$0?0$00$00@Eigen@@@internal@Eigen@@U?$evaluator@V?$CwiseUnaryOp@U?$scalar_opposite_op@N@internal@Eigen@@$$CBV?$Block@V?$Matrix@N$0?0$0?0$0A@$0?0$0?0@Eigen@@$0?0$00$00@3@@Eigen@@@23@U?$assign_op@NN@23@$0A@@internal@Eigen@@@?$unaligned_dense_assignment_loop@$0A@@internal@Eigen@@SAXAEAV?$generic_dense_assignment_kernel@U?$evaluator@V?$Block@V?$Matrix@N$0?0$0?0$0A@$0?0$0?0@Eigen@@$0?0$00$00@Eigen@@@internal@Eigen@@U?$evaluator@V?$CwiseUnaryOp@U?$scalar_opposite_op@N@internal@Eigen@@$$CBV?$Block@V?$Matrix@N$0?0$0?0$0A@$0?0$0?0@Eigen@@$0?0$00$00@3@@Eigen@@@23@U?$assign_op@NN@23@$0A@@12@_J1@Z
	??$run@V?$generic_dense_assignment_kernel@U?$evaluator@V?$Map@V?$Matrix@N$00$0?0$00$00$0?0@Eigen@@$0A@V?$Stride@$0A@$0A@@2@@Eigen@@@internal@Eigen@@U?$evaluator@V?$CwiseNullaryOp@U?$scalar_constant_op@N@internal@Eigen@@V?$Matrix@N$00$0?0$00$00$0?0@3@@Eigen@@@23@U?$assign_op@NN@23@$0A@@internal@Eigen@@@?$unaligned_dense_assignment_loop@$0A@@internal@Eigen@@SAXAEAV?$generic_dense_assignment_kernel@U?$evaluator@V?$Map@V?$Matrix@N$00$0?0$00$00$0?0@Eigen@@$0A@V?$Stride@$0A@$0A@@2@@Eigen@@@internal@Eigen@@U?$evaluator@V?$CwiseNullaryOp@U?$scalar_constant_op@N@internal@Eigen@@V?$Matrix@N$00$0?0$00$00$0?0@3@@Eigen@@@23@U?$assign_op@NN@23@$0A@@12@_J1@Z
	??$run@V?$generic_dense_assignment_kernel@U?$evaluator@V?$Map@V?$Matrix@N$0?0$00$0A@$0?0$00@Eigen@@$0A@V?$Stride@$0A@$0A@@2@@Eigen@@@internal@Eigen@@U?$evaluator@V?$Block@V?$Block@V?$Matrix@N$0?0$0?0$0A@$0?0$0?0@Eigen@@$0?0$0?0$0A@@Eigen@@$0?0$00$00@Eigen@@@23@U?$add_assign_op@NN@23@$0A@@internal@Eigen@@@?$unaligned_dense_assignment_loop@$0A@@internal@Eigen@@SAXAEAV?$generic_dense_assignment_kernel@U?$evaluator@V?$Map@V?$Matrix@N$0?0$00$0A@$0?0$00@Eigen@@$0A@V?$Stride@$0A@$0A@@2@@Eigen@@@internal@Eigen@@U?$evaluator@V?$Block@V?$Block@V?$Matrix@N$0?0$0?0$0A@$0?0$0?0@Eigen@@$0?0$0?0$0A@@Eigen@@$0?0$00$00@Eigen@@@23@U?$add_assign_op@NN@23@$0A@@12@_J1@Z
	??$run@V?$generic_dense_assignment_kernel@U?$evaluator@V?$Map@V?$Matrix@N$0?0$00$0A@$0?0$00@Eigen@@$0A@V?$Stride@$0A@$0A@@2@@Eigen@@@internal@Eigen@@U?$evaluator@V?$CwiseBinaryOp@U?$scalar_product_op@NN@internal@Eigen@@$$CBV?$CwiseNullaryOp@U?$scalar_constant_op@N@internal@Eigen@@$$CBV?$Matrix@N$0?0$00$0A@$0?0$00@3@@3@$$CBV?$Block@$$CBV?$Block@$$CBV?$Map@$$CBV?$Matrix@N$0?0$0?0$0A@$0?0$0?0@Eigen@@$0A@V?$OuterStride@$0?0@2@@Eigen@@$0?0$00$00@Eigen@@$0?0$00$0A@@3@@Eigen@@@23@U?$sub_assign_op@NN@23@$0A@@internal@Eigen@@@?$unaligned_dense_assignment_loop@$0A@@internal@Eigen@@SAXAEAV?$generic_dense_assignment_kernel@U?$evaluator@V?$Map@V?$Matrix@N$0?0$00$0A@$0?0$00@Eigen@@$0A@V?$Stride@$0A@$0A@@2@@Eigen@@@internal@Eigen@@U?$evaluator@V?$CwiseBinaryOp@U?$scalar_product_op@NN@internal@Eigen@@$$CBV?$CwiseNullaryOp@U?$scalar_constant_op@N@internal@Eigen@@$$CBV?$Matrix@N$0?0$00$0A@$0?0$00@3@@3@$$CBV?$Block@$$CBV?$Block@$$CBV?$Map@$$CBV?$Matrix@N$0?0$0?0$0A@$0?0$0?0@Eigen@@$0A@V?$OuterStride@$0?0@2@@Eigen@@$0?0$00$00@Eigen@@$0?0$00$0A@@3@@Eigen@@@23@U?$sub_assign_op@NN@23@$0A@@12@_J1@Z
	??$run@V?$generic_dense_assignment_kernel@U?$evaluator@V?$Map@V?$Matrix@N$0?0$00$0A@$0?0$00@Eigen@@$0A@V?$Stride@$0A@$0A@@2@@Eigen@@@internal@Eigen@@U?$evaluator@V?$CwiseNullaryOp@U?$scalar_constant_op@N@internal@Eigen@@V?$Matrix@N$0?0$00$0A@$0?0$00@3@@Eigen@@@23@U?$assign_op@NN@23@$0A@@internal@Eigen@@@?$unaligned_dense_assignment_loop@$0A@@internal@Eigen@@SAXAEAV?$generic_dense_assignment_kernel@U?$evaluator@V?$Map@V?$Matrix@N$0?0$00$0A@$0?0$00@Eigen@@$0A@V?$Stride@$0A@$0A@@2@@Eigen@@@internal@Eigen@@U?$evaluator@V?$CwiseNullaryOp@U?$scalar_constant_op@N@internal@Eigen@@V?$Matrix@N$0?0$00$0A@$0?0$00@3@@Eigen@@@23@U?$assign_op@NN@23@$0A@@12@_J1@Z
	??$run@V?$generic_dense_assignment_kernel@U?$evaluator@V?$Map@V?$Matrix@N$0?0$00$0A@$0?0$00@Eigen@@$0BA@V?$Stride@$0A@$0A@@2@@Eigen@@@internal@Eigen@@U?$evaluator@V?$CwiseBinaryOp@U?$scalar_product_op@NN@internal@Eigen@@$$CBV?$CwiseNullaryOp@U?$scalar_constant_op@N@internal@Eigen@@$$CBV?$Matrix@N$0?0$00$0A@$0?0$00@3@@3@$$CBV?$Block@$$CBV?$Matrix@N$0?0$0?0$0A@$0?0$0?0@Eigen@@$0?0$00$0A@@3@@Eigen@@@23@U?$assign_op@NN@23@$0A@@internal@Eigen@@@?$unaligned_dense_assignment_loop@$0A@@internal@Eigen@@SAXAEAV?$generic_dense_assignment_kernel@U?$evaluator@V?$Map@V?$Matrix@N$0?0$00$0A@$0?0$00@Eigen@@$0BA@V?$Stride@$0A@$0A@@2@@Eigen@@@internal@Eigen@@U?$evaluator@V?$CwiseBinaryOp@U?$scalar_product_op@NN@internal@Eigen@@$$CBV?$CwiseNullaryOp@U?$scalar_constant_op@N@internal@Eigen@@$$CBV?$Matrix@N$0?0$00$0A@$0?0$00@3@@3@$$CBV?$Block@$$CBV?$Matrix@N$0?0$0?0$0A@$0?0$0?0@Eigen@@$0?0$00$0A@@3@@Eigen@@@23@U?$assign_op@NN@23@$0A@@12@_J1@Z
	??$run@V?$generic_dense_assignment_kernel@U?$evaluator@V?$Map@V?$Matrix@N$0?0$00$0A@$0?0$00@Eigen@@$0BA@V?$Stride@$0A@$0A@@2@@Eigen@@@internal@Eigen@@U?$evaluator@V?$CwiseBinaryOp@U?$scalar_product_op@NN@internal@Eigen@@$$CBV?$CwiseNullaryOp@U?$scalar_constant_op@N@internal@Eigen@@$$CBV?$Matrix@N$0?0$00$0A@$0?0$00@3@@3@$$CBV?$Block@V?$Block@V?$Matrix@N$0?0$0?0$0A@$0?0$0?0@Eigen@@$0?0$00$00@Eigen@@$0?0$00$0A@@3@@Eigen@@@23@U?$assign_op@NN@23@$0A@@internal@Eigen@@@?$unaligned_dense_assignment_loop@$0A@@internal@Eigen@@SAXAEAV?$generic_dense_assignment_kernel@U?$evaluator@V?$Map@V?$Matrix@N$0?0$00$0A@$0?0$00@Eigen@@$0BA@V?$Stride@$0A@$0A@@2@@Eigen@@@internal@Eigen@@U?$evaluator@V?$CwiseBinaryOp@U?$scalar_product_op@NN@internal@Eigen@@$$CBV?$CwiseNullaryOp@U?$scalar_constant_op@N@internal@Eigen@@$$CBV?$Matrix@N$0?0$00$0A@$0?0$00@3@@3@$$CBV?$Block@V?$Block@V?$Matrix@N$0?0$0?0$0A@$0?0$0?0@Eigen@@$0?0$00$00@Eigen@@$0?0$00$0A@@3@@Eigen@@@23@U?$assign_op@NN@23@$0A@@12@_J1@Z
	??$run@V?$generic_dense_assignment_kernel@U?$evaluator@V?$Map@V?$Matrix@N$0?0$00$0A@$0?0$00@Eigen@@$0BA@V?$Stride@$0A@$0A@@2@@Eigen@@@internal@Eigen@@U?$evaluator@V?$CwiseBinaryOp@U?$scalar_product_op@NN@internal@Eigen@@$$CBV?$CwiseNullaryOp@U?$scalar_constant_op@N@internal@Eigen@@$$CBV?$Matrix@N$0?0$00$0A@$0?0$00@3@@3@$$CBV?$Map@V?$Matrix@N$0?0$00$0A@$0?0$00@Eigen@@$0A@V?$Stride@$0A@$0A@@2@@3@@Eigen@@@23@U?$assign_op@NN@23@$0A@@internal@Eigen@@@?$unaligned_dense_assignment_loop@$0A@@internal@Eigen@@SAXAEAV?$generic_dense_assignment_kernel@U?$evaluator@V?$Map@V?$Matrix@N$0?0$00$0A@$0?0$00@Eigen@@$0BA@V?$Stride@$0A@$0A@@2@@Eigen@@@internal@Eigen@@U?$evaluator@V?$CwiseBinaryOp@U?$scalar_product_op@NN@internal@Eigen@@$$CBV?$CwiseNullaryOp@U?$scalar_constant_op@N@internal@Eigen@@$$CBV?$Matrix@N$0?0$00$0A@$0?0$00@3@@3@$$CBV?$Map@V?$Matrix@N$0?0$00$0A@$0?0$00@Eigen@@$0A@V?$Stride@$0A@$0A@@2@@3@@Eigen@@@23@U?$assign_op@NN@23@$0A@@12@_J1@Z
	??$run@V?$generic_dense_assignment_kernel@U?$evaluator@V?$Matrix@N$0?0$00$0A@$0?0$00@Eigen@@@internal@Eigen@@U?$evaluator@V?$CwiseBinaryOp@U?$scalar_product_op@NN@internal@Eigen@@$$CBV?$CwiseNullaryOp@U?$scalar_constant_op@N@internal@Eigen@@$$CBV?$Matrix@N$0?0$00$0A@$0?0$00@3@@3@$$CBV?$Block@$$CBV?$Matrix@N$0?0$0?0$0A@$0?0$0?0@Eigen@@$0?0$00$0A@@3@@Eigen@@@23@U?$assign_op@NN@23@$0A@@internal@Eigen@@@?$unaligned_dense_assignment_loop@$0A@@internal@Eigen@@SAXAEAV?$generic_dense_assignment_kernel@U?$evaluator@V?$Matrix@N$0?0$00$0A@$0?0$00@Eigen@@@internal@Eigen@@U?$evaluator@V?$CwiseBinaryOp@U?$scalar_product_op@NN@internal@Eigen@@$$CBV?$CwiseNullaryOp@U?$scalar_constant_op@N@internal@Eigen@@$$CBV?$Matrix@N$0?0$00$0A@$0?0$00@3@@3@$$CBV?$Block@$$CBV?$Matrix@N$0?0$0?0$0A@$0?0$0?0@Eigen@@$0?0$00$0A@@3@@Eigen@@@23@U?$assign_op@NN@23@$0A@@12@_J1@Z
	??$run@V?$generic_dense_assignment_kernel@U?$evaluator@V?$Matrix@N$0?0$00$0A@$0?0$00@Eigen@@@internal@Eigen@@U?$evaluator@V?$CwiseNullaryOp@U?$scalar_constant_op@N@internal@Eigen@@V?$Matrix@N$0?0$00$0A@$0?0$00@3@@Eigen@@@23@U?$assign_op@NN@23@$0A@@internal@Eigen@@@?$unaligned_dense_assignment_loop@$0A@@internal@Eigen@@SAXAEAV?$generic_dense_assignment_kernel@U?$evaluator@V?$Matrix@N$0?0$00$0A@$0?0$00@Eigen@@@internal@Eigen@@U?$evaluator@V?$CwiseNullaryOp@U?$scalar_constant_op@N@internal@Eigen@@V?$Matrix@N$0?0$00$0A@$0?0$00@3@@Eigen@@@23@U?$assign_op@NN@23@$0A@@12@_J1@Z
	??$run@V?$generic_dense_assignment_kernel@U?$evaluator@V?$Matrix@N$0?0$00$0A@$0?0$00@Eigen@@@internal@Eigen@@U?$evaluator@V?$CwiseNullaryOp@U?$scalar_constant_op@N@internal@Eigen@@V?$Matrix@N$0?0$00$0A@$0?0$00@3@@Eigen@@@23@U?$mul_assign_op@NN@23@$0A@@internal@Eigen@@@?$unaligned_dense_assignment_loop@$0A@@internal@Eigen@@SAXAEAV?$generic_dense_assignment_kernel@U?$evaluator@V?$Matrix@N$0?0$00$0A@$0?0$00@Eigen@@@internal@Eigen@@U?$evaluator@V?$CwiseNullaryOp@U?$scalar_constant_op@N@internal@Eigen@@V?$Matrix@N$0?0$00$0A@$0?0$00@3@@Eigen@@@23@U?$mul_assign_op@NN@23@$0A@@12@_J1@Z
	??$run@V?$generic_dense_assignment_kernel@U?$evaluator@V?$Matrix@N$0?0$0?0$0A@$0?0$00@Eigen@@@internal@Eigen@@U123@U?$assign_op@NN@23@$0A@@internal@Eigen@@@?$unaligned_dense_assignment_loop@$0A@@internal@Eigen@@SAXAEAV?$generic_dense_assignment_kernel@U?$evaluator@V?$Matrix@N$0?0$0?0$0A@$0?0$00@Eigen@@@internal@Eigen@@U123@U?$assign_op@NN@23@$0A@@12@_J1@Z
	??$run@V?$generic_dense_assignment_kernel@U?$evaluator@V?$Matrix@N$0?0$0?0$0A@$0?0$00@Eigen@@@internal@Eigen@@U?$evaluator@V?$CwiseNullaryOp@U?$scalar_constant_op@N@internal@Eigen@@V?$Matrix@N$0?0$0?0$0A@$0?0$00@3@@Eigen@@@23@U?$assign_op@NN@23@$0A@@internal@Eigen@@@?$unaligned_dense_assignment_loop@$0A@@internal@Eigen@@SAXAEAV?$generic_dense_assignment_kernel@U?$evaluator@V?$Matrix@N$0?0$0?0$0A@$0?0$00@Eigen@@@internal@Eigen@@U?$evaluator@V?$CwiseNullaryOp@U?$scalar_constant_op@N@internal@Eigen@@V?$Matrix@N$0?0$0?0$0A@$0?0$00@3@@Eigen@@@23@U?$assign_op@NN@23@$0A@@12@_J1@Z
	??$run@V?$generic_dense_assignment_kernel@U?$evaluator@V?$Matrix@N$0?0$0?0$0A@$0?0$0?0@Eigen@@@internal@Eigen@@U123@U?$assign_op@NN@23@$0A@@internal@Eigen@@@?$unaligned_dense_assignment_loop@$0A@@internal@Eigen@@SAXAEAV?$generic_dense_assignment_kernel@U?$evaluator@V?$Matrix@N$0?0$0?0$0A@$0?0$0?0@Eigen@@@internal@Eigen@@U123@U?$assign_op@NN@23@$0A@@12@_J1@Z
	??$run@V?$generic_dense_assignment_kernel@U?$evaluator@V?$Matrix@N$0?0$0?0$0A@$0?0$0?0@Eigen@@@internal@Eigen@@U?$evaluator@V?$CwiseBinaryOp@U?$scalar_quotient_op@NN@internal@Eigen@@$$CBV?$Matrix@N$0?0$0?0$0A@$0?0$0?0@3@$$CBV?$CwiseNullaryOp@U?$scalar_constant_op@N@internal@Eigen@@$$CBV?$Matrix@N$0?0$0?0$0A@$0?0$0?0@3@@3@@Eigen@@@23@U?$assign_op@NN@23@$0A@@internal@Eigen@@@?$unaligned_dense_assignment_loop@$0A@@internal@Eigen@@SAXAEAV?$generic_dense_assignment_kernel@U?$evaluator@V?$Matrix@N$0?0$0?0$0A@$0?0$0?0@Eigen@@@internal@Eigen@@U?$evaluator@V?$CwiseBinaryOp@U?$scalar_quotient_op@NN@internal@Eigen@@$$CBV?$Matrix@N$0?0$0?0$0A@$0?0$0?0@3@$$CBV?$CwiseNullaryOp@U?$scalar_constant_op@N@internal@Eigen@@$$CBV?$Matrix@N$0?0$0?0$0A@$0?0$0?0@3@@3@@Eigen@@@23@U?$assign_op@NN@23@$0A@@12@_J1@Z
	??$run@V?$generic_dense_assignment_kernel@U?$evaluator@V?$Matrix@N$0?0$0?0$0A@$0?0$0?0@Eigen@@@internal@Eigen@@U?$evaluator@V?$CwiseNullaryOp@U?$scalar_constant_op@N@internal@Eigen@@V?$Matrix@N$0?0$0?0$0A@$0?0$0?0@3@@Eigen@@@23@U?$assign_op@NN@23@$0A@@internal@Eigen@@@?$unaligned_dense_assignment_loop@$0A@@internal@Eigen@@SAXAEAV?$generic_dense_assignment_kernel@U?$evaluator@V?$Matrix@N$0?0$0?0$0A@$0?0$0?0@Eigen@@@internal@Eigen@@U?$evaluator@V?$CwiseNullaryOp@U?$scalar_constant_op@N@internal@Eigen@@V?$Matrix@N$0?0$0?0$0A@$0?0$0?0@3@@Eigen@@@23@U?$assign_op@NN@23@$0A@@12@_J1@Z
	??$scaleAndAddTo@V?$Block@V?$Block@V?$Matrix@N$0?0$0?0$00$0?0$0?0@Eigen@@$00$0?0$00@Eigen@@$00$0?0$0A@@Eigen@@@?$generic_product_impl@V?$CwiseBinaryOp@U?$scalar_product_op@NN@internal@Eigen@@$$CBV?$CwiseNullaryOp@U?$scalar_constant_op@N@internal@Eigen@@$$CBV?$Matrix@N$00$0?0$00$00$0?0@3@@3@$$CBV?$Transpose@$$CBV?$Block@$$CBV?$Block@$$CBV?$Block@V?$Matrix@N$0?0$0?0$0A@$0?0$0?0@Eigen@@$0?0$0?0$0A@@Eigen@@$0?0$00$00@Eigen@@$0?0$00$0A@@Eigen@@@3@@Eigen@@V?$TriangularView@$$CBV?$Block@$$CBV?$Block@V?$Matrix@N$0?0$0?0$0A@$0?0$0?0@Eigen@@$0?0$0?0$0A@@Eigen@@$0?0$0?0$0A@@Eigen@@$04@2@UDenseShape@2@UTriangularShape@2@$06@internal@Eigen@@SAXAEAV?$Block@V?$Block@V?$Matrix@N$0?0$0?0$00$0?0$0?0@Eigen@@$00$0?0$00@Eigen@@$00$0?0$0A@@2@AEBV?$CwiseBinaryOp@U?$scalar_product_op@NN@internal@Eigen@@$$CBV?$CwiseNullaryOp@U?$scalar_constant_op@N@internal@Eigen@@$$CBV?$Matrix@N$00$0?0$00$00$0?0@3@@3@$$CBV?$Transpose@$$CBV?$Block@$$CBV?$Block@$$CBV?$Block@V?$Matrix@N$0?0$0?0$0A@$0?0$0?0@Eigen@@$0?0$0?0$0A@@Eigen@@$0?0$00$00@Eigen@@$0?0$00$0A@@Eigen@@@3@@2@AEBV?$TriangularView@$$CBV?$Block@$$CBV?$Block@V?$Matrix@N$0?0$0?0$0A@$0?0$0?0@Eigen@@$0?0$0?0$0A@@Eigen@@$0?0$0?0$0A@@Eigen@@$04@2@AEBN@Z
	??$scaleAndAddTo@V?$Ref@V?$Matrix@N$0?0$0?0$0A@$0?0$0?0@Eigen@@$0A@V?$OuterStride@$0?0@2@@Eigen@@@?$generic_product_impl@V?$Ref@V?$Matrix@N$0?0$0?0$0A@$0?0$0?0@Eigen@@$0A@V?$OuterStride@$0?0@2@@Eigen@@V12@UDenseShape@2@U32@$07@internal@Eigen@@SAXAEAV?$Ref@V?$Matrix@N$0?0$0?0$0A@$0?0$0?0@Eigen@@$0A@V?$OuterStride@$0?0@2@@2@AEBV32@1AEBN@Z
	??$smart_copy@H@internal@Eigen@@YAXPEBH0PEAH@Z
	??$smart_copy@N@internal@Eigen@@YAXPEBN0PEAN@Z
	??$solveInPlace@$00V?$Block@V?$Matrix@N$0?0$00$0A@$0?0$00@Eigen@@$0?0$00$0A@@Eigen@@@?$TriangularViewImpl@$$CBV?$Block@$$CBV?$Matrix@N$0?0$0?0$0A@$0?0$0?0@Eigen@@$0?0$0?0$0A@@Eigen@@$01UDense@2@@Eigen@@QEBAXAEBV?$MatrixBase@V?$Block@V?$Matrix@N$0?0$00$0A@$0?0$00@Eigen@@$0?0$00$0A@@Eigen@@@1@@Z
	??$solveInPlace@$00V?$Matrix@N$0?0$0?0$0A@$0?0$0?0@Eigen@@@?$TriangularViewImpl@$$CBV?$Matrix@N$0?0$0?0$0A@$0?0$0?0@Eigen@@$01UDense@2@@Eigen@@QEBAXAEBV?$MatrixBase@V?$Matrix@N$0?0$0?0$0A@$0?0$0?0@Eigen@@@1@@Z
	??$solveInPlace@$00V?$Matrix@N$0?0$0?0$0A@$0?0$0?0@Eigen@@@?$TriangularViewImpl@$$CBV?$Matrix@N$0?0$0?0$0A@$0?0$0?0@Eigen@@$04UDense@2@@Eigen@@QEBAXAEBV?$MatrixBase@V?$Matrix@N$0?0$0?0$0A@$0?0$0?0@Eigen@@@1@@Z
	??$solveInPlace@$00V?$Ref@V?$Matrix@N$0?0$0?0$0A@$0?0$0?0@Eigen@@$0A@V?$OuterStride@$0?0@2@@Eigen@@@?$TriangularViewImpl@V?$Ref@V?$Matrix@N$0?0$0?0$0A@$0?0$0?0@Eigen@@$0A@V?$OuterStride@$0?0@2@@Eigen@@$04UDense@2@@Eigen@@QEBAXAEBV?$MatrixBase@V?$Ref@V?$Matrix@N$0?0$0?0$0A@$0?0$0?0@Eigen@@$0A@V?$OuterStride@$0?0@2@@Eigen@@@1@@Z
	??$subTo@V?$Ref@V?$Matrix@N$0?0$0?0$0A@$0?0$0?0@Eigen@@$0A@V?$OuterStride@$0?0@2@@Eigen@@@?$generic_product_impl@V?$Ref@V?$Matrix@N$0?0$0?0$0A@$0?0$0?0@Eigen@@$0A@V?$OuterStride@$0?0@2@@Eigen@@V12@UDenseShape@2@U32@$07@internal@Eigen@@SAXAEAV?$Ref@V?$Matrix@N$0?0$0?0$0A@$0?0$0?0@Eigen@@$0A@V?$OuterStride@$0?0@2@@2@AEBV32@1@Z
	??$triangularView@$01@?$MatrixBase@V?$Block@$$CBV?$Matrix@N$0?0$0?0$0A@$0?0$0?0@Eigen@@$0?0$0?0$0A@@Eigen@@@Eigen@@QEBA?BV?$TriangularView@$$CBV?$Block@$$CBV?$Matrix@N$0?0$0?0$0A@$0?0$0?0@Eigen@@$0?0$0?0$0A@@Eigen@@$01@1@XZ
	??$triangularView@$01@?$MatrixBase@V?$Matrix@N$0?0$0?0$00$0?0$0?0@Eigen@@@Eigen@@QEAA?AV?$TriangularView@V?$Matrix@N$0?0$0?0$00$0?0$0?0@Eigen@@$01@1@XZ
	??$triangularView@$01@?$MatrixBase@V?$Matrix@N$0?0$0?0$0A@$0?0$0?0@Eigen@@@Eigen@@QEBA?BV?$TriangularView@$$CBV?$Matrix@N$0?0$0?0$0A@$0?0$0?0@Eigen@@$01@1@XZ
	??$triangularView@$04@?$MatrixBase@V?$Block@$$CBV?$Block@V?$Matrix@N$0?0$0?0$0A@$0?0$0?0@Eigen@@$0?0$0?0$0A@@Eigen@@$0?0$0?0$0A@@Eigen@@@Eigen@@QEBA?BV?$TriangularView@$$CBV?$Block@$$CBV?$Block@V?$Matrix@N$0?0$0?0$0A@$0?0$0?0@Eigen@@$0?0$0?0$0A@@Eigen@@$0?0$0?0$0A@@Eigen@@$04@1@XZ
	??$triangularView@$04@?$MatrixBase@V?$Matrix@N$0?0$0?0$0A@$0?0$0?0@Eigen@@@Eigen@@QEBA?BV?$TriangularView@$$CBV?$Matrix@N$0?0$0?0$0A@$0?0$0?0@Eigen@@$04@1@XZ
	??$triangularView@$04@?$MatrixBase@V?$Ref@V?$Matrix@N$0?0$0?0$0A@$0?0$0?0@Eigen@@$0A@V?$OuterStride@$0?0@2@@Eigen@@@Eigen@@QEAA?AV?$TriangularView@V?$Ref@V?$Matrix@N$0?0$0?0$0A@$0?0$0?0@Eigen@@$0A@V?$OuterStride@$0?0@2@@Eigen@@$04@1@XZ
	??$triangularView@$09@?$MatrixBase@V?$Matrix@N$0?0$0?0$0A@$0?0$0?0@Eigen@@@Eigen@@QEAA?AV?$TriangularView@V?$Matrix@N$0?0$0?0$0A@$0?0$0?0@Eigen@@$09@1@XZ
	??$uninitialized_fill@PEAV?$_List_unchecked_iterator@V?$_List_val@U?$_List_simple_types@U?$pair@$$CBHV?$vector@HV?$allocator@H@std@@@std@@@std@@@std@@@std@@@std@@V12@@std@@YAXQEAV?$_List_unchecked_iterator@V?$_List_val@U?$_List_simple_types@U?$pair@$$CBHV?$vector@HV?$allocator@H@std@@@std@@@std@@@std@@@std@@@0@0AEBV10@@Z
	??$uninitialized_fill@PEAV?$_List_unchecked_iterator@V?$_List_val@U?$_List_simple_types@U?$pair@$$CBUVertex@SurfaceMesh@easy3d@@V?$vector@UVertex@SurfaceMesh@easy3d@@V?$allocator@UVertex@SurfaceMesh@easy3d@@@std@@@std@@@std@@@std@@@std@@@std@@V12@@std@@YAXQEAV?$_List_unchecked_iterator@V?$_List_val@U?$_List_simple_types@U?$pair@$$CBUVertex@SurfaceMesh@easy3d@@V?$vector@UVertex@SurfaceMesh@easy3d@@V?$allocator@UVertex@SurfaceMesh@easy3d@@@std@@@std@@@std@@@std@@@std@@@0@0AEBV10@@Z
	??$use_facet@V?$codecvt@DDU_Mbstatet@@@std@@@std@@YAAEBV?$codecvt@DDU_Mbstatet@@@0@AEBVlocale@0@@Z
	??$vertex_property@UVertexConnectivity@Graph@easy3d@@@Graph@easy3d@@QEAA?AV?$VertexProperty@UVertexConnectivity@Graph@easy3d@@@01@AEBV?$basic_string@DU?$char_traits@D@std@@V?$allocator@D@2@@std@@UVertexConnectivity@01@@Z
	??$vertex_property@UVertexConnectivity@PolyMesh@easy3d@@@PolyMesh@easy3d@@QEAA?AV?$VertexProperty@UVertexConnectivity@PolyMesh@easy3d@@@01@AEBV?$basic_string@DU?$char_traits@D@std@@V?$allocator@D@2@@std@@UVertexConnectivity@01@@Z
	??$vertex_property@_N@SurfaceMesh@easy3d@@QEAA?AV?$VertexProperty@_N@01@AEBV?$basic_string@DU?$char_traits@D@std@@V?$allocator@D@2@@std@@_N@Z
	??$visit@U?$max_coeff_visitor@V?$Block@V?$Matrix@N$00$0?0$00$00$0?0@Eigen@@$00$0?0$0A@@Eigen@@@internal@Eigen@@@?$DenseBase@V?$Block@V?$Matrix@N$00$0?0$00$00$0?0@Eigen@@$00$0?0$0A@@Eigen@@@Eigen@@QEBAXAEAU?$max_coeff_visitor@V?$Block@V?$Matrix@N$00$0?0$00$00$0?0@Eigen@@$00$0?0$0A@@Eigen@@@internal@1@@Z
	??$visit@U?$max_coeff_visitor@V?$Block@V?$Matrix@N$0?0$00$0A@$0?0$00@Eigen@@$0?0$00$0A@@Eigen@@@internal@Eigen@@@?$DenseBase@V?$Block@V?$Matrix@N$0?0$00$0A@$0?0$00@Eigen@@$0?0$00$0A@@Eigen@@@Eigen@@QEBAXAEAU?$max_coeff_visitor@V?$Block@V?$Matrix@N$0?0$00$0A@$0?0$00@Eigen@@$0?0$00$0A@@Eigen@@@internal@1@@Z
	??$visit@U?$max_coeff_visitor@V?$CwiseUnaryOp@U?$scalar_score_coeff_op@N@internal@Eigen@@$$CBV?$Block@V?$Block@V?$Ref@V?$Matrix@N$0?0$0?0$0A@$0?0$0?0@Eigen@@$0A@V?$OuterStride@$0?0@2@@Eigen@@$0?0$00$00@Eigen@@$0?0$00$0A@@3@@Eigen@@@internal@Eigen@@@?$DenseBase@V?$CwiseUnaryOp@U?$scalar_score_coeff_op@N@internal@Eigen@@$$CBV?$Block@V?$Block@V?$Ref@V?$Matrix@N$0?0$0?0$0A@$0?0$0?0@Eigen@@$0A@V?$OuterStride@$0?0@2@@Eigen@@$0?0$00$00@Eigen@@$0?0$00$0A@@3@@Eigen@@@Eigen@@QEBAXAEAU?$max_coeff_visitor@V?$CwiseUnaryOp@U?$scalar_score_coeff_op@N@internal@Eigen@@$$CBV?$Block@V?$Block@V?$Ref@V?$Matrix@N$0?0$0?0$0A@$0?0$0?0@Eigen@@$0A@V?$OuterStride@$0?0@2@@Eigen@@$0?0$00$00@Eigen@@$0?0$00$0A@@3@@Eigen@@@internal@1@@Z
	??$write@UCell@PolyMesh@easy3d@@@internal@easy3d@@YAXAEAV?$basic_ostream@DU?$char_traits@D@std@@@std@@AEBV?$set@UCell@PolyMesh@easy3d@@U?$less@UCell@PolyMesh@easy3d@@@std@@V?$allocator@UCell@PolyMesh@easy3d@@@5@@3@@Z
	??$write@UEdge@PolyMesh@easy3d@@@internal@easy3d@@YAXAEAV?$basic_ostream@DU?$char_traits@D@std@@@std@@AEBV?$set@UEdge@PolyMesh@easy3d@@U?$less@UEdge@PolyMesh@easy3d@@@std@@V?$allocator@UEdge@PolyMesh@easy3d@@@5@@3@@Z
	??$write@UHalfFace@PolyMesh@easy3d@@@internal@easy3d@@YAXAEAV?$basic_ostream@DU?$char_traits@D@std@@@std@@AEBV?$set@UHalfFace@PolyMesh@easy3d@@U?$less@UHalfFace@PolyMesh@easy3d@@@std@@V?$allocator@UHalfFace@PolyMesh@easy3d@@@5@@3@@Z
	??$write@UVertex@PolyMesh@easy3d@@@internal@easy3d@@YAXAEAV?$basic_ostream@DU?$char_traits@D@std@@@std@@AEBV?$set@UVertex@PolyMesh@easy3d@@U?$less@UVertex@PolyMesh@easy3d@@@std@@V?$allocator@UVertex@PolyMesh@easy3d@@@5@@3@@Z
	??0?$ColPivHouseholderQR@V?$Matrix@N$0?0$0?0$0A@$0?0$0?0@Eigen@@@Eigen@@QEAA@_J0@Z
	??0?$JacobiSVD@V?$Matrix@N$0?0$0?0$0A@$0?0$0?0@Eigen@@$01@Eigen@@QEAA@AEBV?$Matrix@N$0?0$0?0$0A@$0?0$0?0@1@I@Z
	??0?$Matrix@N@easy3d@@QEAA@AEBV01@@Z
	??0?$Matrix@N@easy3d@@QEAA@HHAEBN@Z
	??0?$PropertyArray@UCellConnectivity@PolyMesh@easy3d@@@easy3d@@QEAA@AEBV?$basic_string@DU?$char_traits@D@std@@V?$allocator@D@2@@std@@UCellConnectivity@PolyMesh@1@@Z
	??0?$PropertyArray@UEdgeConnectivity@PolyMesh@easy3d@@@easy3d@@QEAA@AEBV?$basic_string@DU?$char_traits@D@std@@V?$allocator@D@2@@std@@UEdgeConnectivity@PolyMesh@1@@Z
	??0?$PropertyArray@UHalfFaceConnectivity@PolyMesh@easy3d@@@easy3d@@QEAA@AEBV?$basic_string@DU?$char_traits@D@std@@V?$allocator@D@2@@std@@UHalfFaceConnectivity@PolyMesh@1@@Z
	??0?$PropertyArray@UVertexConnectivity@Graph@easy3d@@@easy3d@@QEAA@AEBV?$basic_string@DU?$char_traits@D@std@@V?$allocator@D@2@@std@@UVertexConnectivity@Graph@1@@Z
	??0?$PropertyArray@UVertexConnectivity@PolyMesh@easy3d@@@easy3d@@QEAA@AEBV?$basic_string@DU?$char_traits@D@std@@V?$allocator@D@2@@std@@UVertexConnectivity@PolyMesh@1@@Z
	??0?$basic_string@DU?$char_traits@D@std@@V?$allocator@D@2@@std@@QEAA@AEBV01@@Z
	??0?$basic_string@DU?$char_traits@D@std@@V?$allocator@D@2@@std@@QEAA@QEBD@Z
	??0?$basic_string@DU?$char_traits@D@std@@V?$allocator@D@2@@std@@QEAA@U_String_constructor_concat_tag@1@AEAV01@1@Z
	??0?$unordered_map@UVertex@SurfaceMesh@easy3d@@V?$vector@UVertex@SurfaceMesh@easy3d@@V?$allocator@UVertex@SurfaceMesh@easy3d@@@std@@@std@@UHash@BaseHandle@23@U?$equal_to@UVertex@SurfaceMesh@easy3d@@@5@V?$allocator@U?$pair@$$CBUVertex@SurfaceMesh@easy3d@@V?$vector@UVertex@SurfaceMesh@easy3d@@V?$allocator@UVertex@SurfaceMesh@easy3d@@@std@@@std@@@std@@@5@@std@@QEAA@XZ
	??0?$vector@UVertex@PolyMesh@easy3d@@V?$allocator@UVertex@PolyMesh@easy3d@@@std@@@std@@QEAA@AEBV01@@Z
	??0CacheSizes@internal@Eigen@@QEAA@XZ
	??0CellConnectivity@PolyMesh@easy3d@@QEAA@AEBU012@@Z
	??0CellConnectivity@PolyMesh@easy3d@@QEAA@XZ
	??0EdgeConnectivity@PolyMesh@easy3d@@QEAA@AEBU012@@Z
	??0EdgeConnectivity@PolyMesh@easy3d@@QEAA@XZ
	??0Graph@easy3d@@QEAA@XZ
	??0HalfFaceConnectivity@PolyMesh@easy3d@@QEAA@AEBU012@@Z
	??0HalfFaceConnectivity@PolyMesh@easy3d@@QEAA@XZ
	??0Model@easy3d@@QEAA@AEBV?$basic_string@DU?$char_traits@D@std@@V?$allocator@D@2@@std@@@Z
	??0PointCloud@easy3d@@QEAA@XZ
	??0PolyMesh@easy3d@@QEAA@XZ
	??0SurfaceMesh@easy3d@@QEAA@XZ
	??0SurfaceMeshBuilder@easy3d@@QEAA@PEAVSurfaceMesh@1@@Z
	??0VertexConnectivity@Graph@easy3d@@QEAA@AEBU012@@Z
	??0VertexConnectivity@PolyMesh@easy3d@@QEAA@$$QEAU012@@Z
	??0VertexConnectivity@PolyMesh@easy3d@@QEAA@AEBU012@@Z
	??0VertexConnectivity@PolyMesh@easy3d@@QEAA@XZ
	??0Writer@base@el@@QEAA@W4Level@2@PEBDK1W4DispatchAction@12@G@Z
	??0bad_alloc@std@@QEAA@AEBV01@@Z
	??0bad_alloc@std@@QEAA@XZ
	??0bad_array_new_length@std@@QEAA@AEBV01@@Z
	??0bad_array_new_length@std@@QEAA@XZ
	??0bad_cast@std@@QEAA@AEBV01@@Z
	??0bad_cast@std@@QEAA@XZ
	??0exception@std@@QEAA@AEBV01@@Z
	??1?$ColPivHouseholderQR@V?$Matrix@N$0?0$0?0$0A@$0?0$0?0@Eigen@@@Eigen@@QEAA@XZ
	??1?$DenseStorage@N$0?0$0?0$00$0A@@Eigen@@QEAA@XZ
	??1?$DenseStorage@N$0?0$0?0$0?0$0A@@Eigen@@QEAA@XZ
	??1?$Inverse@V?$PartialPivLU@V?$Matrix@N$0?0$0?0$0A@$0?0$0?0@Eigen@@@Eigen@@@Eigen@@QEAA@XZ
	??1?$Matrix@N$00$0?0$00$00$0?0@Eigen@@QEAA@XZ
	??1?$Matrix@N$0?0$00$0A@$0?0$00@Eigen@@QEAA@XZ
	??1?$Matrix@N$0?0$0?0$00$0?0$0?0@Eigen@@QEAA@XZ
	??1?$Matrix@N$0?0$0?0$0A@$0?0$00@Eigen@@QEAA@XZ
	??1?$Matrix@N$0?0$0?0$0A@$0?0$0?0@Eigen@@QEAA@XZ
	??1?$Matrix@N@easy3d@@QEAA@XZ
	??1?$Matrix@_J$00$0?0$00$00$0?0@Eigen@@QEAA@XZ
	??1?$PartialPivLU@V?$Matrix@N$0?0$0?0$0A@$0?0$0?0@Eigen@@@Eigen@@QEAA@XZ
	??1?$PermutationMatrix@$0?0$0?0H@Eigen@@QEAA@XZ
	??1?$PlainObjectBase@V?$Matrix@H$0?0$00$0A@$0?0$00@Eigen@@@Eigen@@QEAA@XZ
	??1?$PlainObjectBase@V?$Matrix@N$00$0?0$00$00$0?0@Eigen@@@Eigen@@QEAA@XZ
	??1?$PlainObjectBase@V?$Matrix@N$0?0$00$0A@$0?0$00@Eigen@@@Eigen@@QEAA@XZ
	??1?$PlainObjectBase@V?$Matrix@N$0?0$0?0$00$0?0$0?0@Eigen@@@Eigen@@QEAA@XZ
	??1?$PlainObjectBase@V?$Matrix@N$0?0$0?0$0A@$0?0$00@Eigen@@@Eigen@@QEAA@XZ
	??1?$PlainObjectBase@V?$Matrix@N$0?0$0?0$0A@$0?0$0?0@Eigen@@@Eigen@@QEAA@XZ
	??1?$PlainObjectBase@V?$Matrix@_J$00$0?0$00$00$0?0@Eigen@@@Eigen@@QEAA@XZ
	??1?$SVDBase@V?$JacobiSVD@V?$Matrix@N$0?0$0?0$0A@$0?0$0?0@Eigen@@$01@Eigen@@@Eigen@@QEAA@XZ
	??1?$Transpositions@$0?0$0?0H@Eigen@@QEAA@XZ
	??1?$_Alloc_construct_ptr@V?$allocator@U?$_List_node@U?$pair@$$CBHV?$vector@HV?$allocator@H@std@@@std@@@std@@PEAX@std@@@std@@@std@@QEAA@XZ
	??1?$_Alloc_construct_ptr@V?$allocator@U?$_List_node@U?$pair@$$CBUVertex@SurfaceMesh@easy3d@@V?$vector@UVertex@SurfaceMesh@easy3d@@V?$allocator@UVertex@SurfaceMesh@easy3d@@@std@@@std@@@std@@PEAX@std@@@std@@@std@@QEAA@XZ
	??1?$_Alloc_construct_ptr@V?$allocator@U?$_Tree_node@HPEAX@std@@@std@@@std@@QEAA@XZ
	??1?$_Alloc_construct_ptr@V?$allocator@U?$_Tree_node@UCell@PolyMesh@easy3d@@PEAX@std@@@std@@@std@@QEAA@XZ
	??1?$_Alloc_construct_ptr@V?$allocator@U?$_Tree_node@UEdge@PolyMesh@easy3d@@PEAX@std@@@std@@@std@@QEAA@XZ
	??1?$_Alloc_construct_ptr@V?$allocator@U?$_Tree_node@UHalfFace@PolyMesh@easy3d@@PEAX@std@@@std@@@std@@QEAA@XZ
	??1?$_Alloc_construct_ptr@V?$allocator@U?$_Tree_node@UVertex@PolyMesh@easy3d@@PEAX@std@@@std@@@std@@QEAA@XZ
	??1?$_Hash@V?$_Umap_traits@HV?$vector@HV?$allocator@H@std@@@std@@V?$_Uhash_compare@HU?$hash@H@std@@U?$equal_to@H@2@@2@V?$allocator@U?$pair@$$CBHV?$vector@HV?$allocator@H@std@@@std@@@std@@@2@$0A@@std@@@std@@QEAA@XZ
	??1?$_Hash@V?$_Umap_traits@UVertex@SurfaceMesh@easy3d@@V?$vector@UVertex@SurfaceMesh@easy3d@@V?$allocator@UVertex@SurfaceMesh@easy3d@@@std@@@std@@V?$_Uhash_compare@UVertex@SurfaceMesh@easy3d@@UHash@BaseHandle@23@U?$equal_to@UVertex@SurfaceMesh@easy3d@@@std@@@5@V?$allocator@U?$pair@$$CBUVertex@SurfaceMesh@easy3d@@V?$vector@UVertex@SurfaceMesh@easy3d@@V?$allocator@UVertex@SurfaceMesh@easy3d@@@std@@@std@@@std@@@5@$0A@@std@@@std@@QEAA@XZ
	??1?$_Hash_vec@V?$allocator@V?$_List_unchecked_iterator@V?$_List_val@U?$_List_simple_types@U?$pair@$$CBHV?$vector@HV?$allocator@H@std@@@std@@@std@@@std@@@std@@@std@@@std@@@std@@QEAA@XZ
	??1?$_Hash_vec@V?$allocator@V?$_List_unchecked_iterator@V?$_List_val@U?$_List_simple_types@U?$pair@$$CBUVertex@SurfaceMesh@easy3d@@V?$vector@UVertex@SurfaceMesh@easy3d@@V?$allocator@UVertex@SurfaceMesh@easy3d@@@std@@@std@@@std@@@std@@@std@@@std@@@std@@@std@@QEAA@XZ
	??1?$_List_node_emplace_op2@V?$allocator@U?$_List_node@U?$pair@$$CBHV?$vector@HV?$allocator@H@std@@@std@@@std@@PEAX@std@@@std@@@std@@QEAA@XZ
	??1?$_List_node_emplace_op2@V?$allocator@U?$_List_node@U?$pair@$$CBUVertex@SurfaceMesh@easy3d@@V?$vector@UVertex@SurfaceMesh@easy3d@@V?$allocator@UVertex@SurfaceMesh@easy3d@@@std@@@std@@@std@@PEAX@std@@@std@@@std@@QEAA@XZ
	??1?$_Tidy_guard@V?$vector@UCellConnectivity@PolyMesh@easy3d@@V?$allocator@UCellConnectivity@PolyMesh@easy3d@@@std@@@std@@@std@@QEAA@XZ
	??1?$_Tidy_guard@V?$vector@UEdgeConnectivity@PolyMesh@easy3d@@V?$allocator@UEdgeConnectivity@PolyMesh@easy3d@@@std@@@std@@@std@@QEAA@XZ
	??1?$_Tidy_guard@V?$vector@UHalfFaceConnectivity@PolyMesh@easy3d@@V?$allocator@UHalfFaceConnectivity@PolyMesh@easy3d@@@std@@@std@@@std@@QEAA@XZ
	??1?$_Tidy_guard@V?$vector@UVertexConnectivity@Graph@easy3d@@V?$allocator@UVertexConnectivity@Graph@easy3d@@@std@@@std@@@std@@QEAA@XZ
	??1?$_Tidy_guard@V?$vector@UVertexConnectivity@PolyMesh@easy3d@@V?$allocator@UVertexConnectivity@PolyMesh@easy3d@@@std@@@std@@@std@@QEAA@XZ
	??1?$_Tree@V?$_Tset_traits@HU?$less@H@std@@V?$allocator@H@2@$0A@@std@@@std@@QEAA@XZ
	??1?$_Tree@V?$_Tset_traits@UCell@PolyMesh@easy3d@@U?$less@UCell@PolyMesh@easy3d@@@std@@V?$allocator@UCell@PolyMesh@easy3d@@@5@$0A@@std@@@std@@QEAA@XZ
	??1?$_Tree@V?$_Tset_traits@UEdge@PolyMesh@easy3d@@U?$less@UEdge@PolyMesh@easy3d@@@std@@V?$allocator@UEdge@PolyMesh@easy3d@@@5@$0A@@std@@@std@@QEAA@XZ
	??1?$_Tree@V?$_Tset_traits@UHalfFace@PolyMesh@easy3d@@U?$less@UHalfFace@PolyMesh@easy3d@@@std@@V?$allocator@UHalfFace@PolyMesh@easy3d@@@5@$0A@@std@@@std@@QEAA@XZ
	??1?$_Tree@V?$_Tset_traits@UVertex@PolyMesh@easy3d@@U?$less@UVertex@PolyMesh@easy3d@@@std@@V?$allocator@UVertex@PolyMesh@easy3d@@@5@$0A@@std@@@std@@QEAA@XZ
	??1?$_Tree_head_scoped_ptr@V?$allocator@U?$_Tree_node@UCell@PolyMesh@easy3d@@PEAX@std@@@std@@V?$_Tree_val@U?$_Tree_simple_types@UCell@PolyMesh@easy3d@@@std@@@2@@std@@QEAA@XZ
	??1?$_Tree_head_scoped_ptr@V?$allocator@U?$_Tree_node@UEdge@PolyMesh@easy3d@@PEAX@std@@@std@@V?$_Tree_val@U?$_Tree_simple_types@UEdge@PolyMesh@easy3d@@@std@@@2@@std@@QEAA@XZ
	??1?$_Tree_head_scoped_ptr@V?$allocator@U?$_Tree_node@UHalfFace@PolyMesh@easy3d@@PEAX@std@@@std@@V?$_Tree_val@U?$_Tree_simple_types@UHalfFace@PolyMesh@easy3d@@@std@@@2@@std@@QEAA@XZ
	??1?$_Tree_head_scoped_ptr@V?$allocator@U?$_Tree_node@UVertex@PolyMesh@easy3d@@PEAX@std@@@std@@V?$_Tree_val@U?$_Tree_simple_types@UVertex@PolyMesh@easy3d@@@std@@@2@@std@@QEAA@XZ
	??1?$_Uninitialized_backout_al@V?$allocator@UCellConnectivity@PolyMesh@easy3d@@@std@@@std@@QEAA@XZ
	??1?$_Uninitialized_backout_al@V?$allocator@UEdgeConnectivity@PolyMesh@easy3d@@@std@@@std@@QEAA@XZ
	??1?$_Uninitialized_backout_al@V?$allocator@UHalfFaceConnectivity@PolyMesh@easy3d@@@std@@@std@@QEAA@XZ
	??1?$_Uninitialized_backout_al@V?$allocator@UVertexConnectivity@Graph@easy3d@@@std@@@std@@QEAA@XZ
	??1?$_Uninitialized_backout_al@V?$allocator@UVertexConnectivity@PolyMesh@easy3d@@@std@@@std@@QEAA@XZ
	??1?$aligned_stack_memory_handler@N@internal@Eigen@@QEAA@XZ
	??1?$basic_filebuf@DU?$char_traits@D@std@@@std@@UEAA@XZ
	??1?$basic_ifstream@DU?$char_traits@D@std@@@std@@UEAA@XZ
	??1?$basic_ofstream@DU?$char_traits@D@std@@@std@@UEAA@XZ
	??1?$basic_string@DU?$char_traits@D@std@@V?$allocator@D@2@@std@@QEAA@XZ
	??1?$gemm_blocking_space@$0A@NN$0?0$00$0?0$03$0A@@internal@Eigen@@QEAA@XZ
	??1?$gemm_blocking_space@$0A@NN$0?0$0?0$0?0$00$0A@@internal@Eigen@@QEAA@XZ
	??1?$gemm_blocking_space@$0A@NN$0?0$0?0$0?0$03$0A@@internal@Eigen@@QEAA@XZ
	??1?$list@U?$pair@$$CBHV?$vector@HV?$allocator@H@std@@@std@@@std@@V?$allocator@U?$pair@$$CBHV?$vector@HV?$allocator@H@std@@@std@@@std@@@2@@std@@QEAA@XZ
	??1?$list@U?$pair@$$CBUVertex@SurfaceMesh@easy3d@@V?$vector@UVertex@SurfaceMesh@easy3d@@V?$allocator@UVertex@SurfaceMesh@easy3d@@@std@@@std@@@std@@V?$allocator@U?$pair@$$CBUVertex@SurfaceMesh@easy3d@@V?$vector@UVertex@SurfaceMesh@easy3d@@V?$allocator@UVertex@SurfaceMesh@easy3d@@@std@@@std@@@std@@@2@@std@@QEAA@XZ
	??1?$lock_guard@Vrecursive_mutex@std@@@std@@QEAA@XZ
	??1?$qr_preconditioner_impl@V?$Matrix@N$0?0$0?0$0A@$0?0$0?0@Eigen@@$01$00$00@internal@Eigen@@QEAA@XZ
	??1?$qr_preconditioner_impl@V?$Matrix@N$0?0$0?0$0A@$0?0$0?0@Eigen@@$01$0A@$00@internal@Eigen@@QEAA@XZ
	??1?$set@HU?$less@H@std@@V?$allocator@H@2@@std@@QEAA@XZ
	??1?$set@UEdge@PolyMesh@easy3d@@U?$less@UEdge@PolyMesh@easy3d@@@std@@V?$allocator@UEdge@PolyMesh@easy3d@@@5@@std@@QEAA@XZ
	??1?$set@UHalfFace@PolyMesh@easy3d@@U?$less@UHalfFace@PolyMesh@easy3d@@@std@@V?$allocator@UHalfFace@PolyMesh@easy3d@@@5@@std@@QEAA@XZ
	??1?$set@UVertex@PolyMesh@easy3d@@U?$less@UVertex@PolyMesh@easy3d@@@std@@V?$allocator@UVertex@PolyMesh@easy3d@@@5@@std@@QEAA@XZ
	??1?$unique_ptr@V_Facet_base@std@@U?$default_delete@V_Facet_base@std@@@2@@std@@QEAA@XZ
	??1?$unordered_map@UVertex@SurfaceMesh@easy3d@@V?$vector@UVertex@SurfaceMesh@easy3d@@V?$allocator@UVertex@SurfaceMesh@easy3d@@@std@@@std@@UHash@BaseHandle@23@U?$equal_to@UVertex@SurfaceMesh@easy3d@@@5@V?$allocator@U?$pair@$$CBUVertex@SurfaceMesh@easy3d@@V?$vector@UVertex@SurfaceMesh@easy3d@@V?$allocator@UVertex@SurfaceMesh@easy3d@@@std@@@std@@@std@@@5@@std@@QEAA@XZ
	??1?$vector@DV?$allocator@D@std@@@std@@QEAA@XZ
	??1?$vector@U?$pair@UHalfedge@SurfaceMesh@easy3d@@U123@@std@@V?$allocator@U?$pair@UHalfedge@SurfaceMesh@easy3d@@U123@@std@@@2@@std@@QEAA@XZ
	??1?$vector@UCell@PolyMesh@easy3d@@V?$allocator@UCell@PolyMesh@easy3d@@@std@@@std@@QEAA@XZ
	??1?$vector@UCellConnectivity@PolyMesh@easy3d@@V?$allocator@UCellConnectivity@PolyMesh@easy3d@@@std@@@std@@QEAA@XZ
	??1?$vector@UEdge@PolyMesh@easy3d@@V?$allocator@UEdge@PolyMesh@easy3d@@@std@@@std@@QEAA@XZ
	??1?$vector@UEdge@SurfaceMesh@easy3d@@V?$allocator@UEdge@SurfaceMesh@easy3d@@@std@@@std@@QEAA@XZ
	??1?$vector@UEdgeConnectivity@PolyMesh@easy3d@@V?$allocator@UEdgeConnectivity@PolyMesh@easy3d@@@std@@@std@@QEAA@XZ
	??1?$vector@UFace@SurfaceMesh@easy3d@@V?$allocator@UFace@SurfaceMesh@easy3d@@@std@@@std@@QEAA@XZ
	??1?$vector@UHalfFace@PolyMesh@easy3d@@V?$allocator@UHalfFace@PolyMesh@easy3d@@@std@@@std@@QEAA@XZ
	??1?$vector@UHalfFaceConnectivity@PolyMesh@easy3d@@V?$allocator@UHalfFaceConnectivity@PolyMesh@easy3d@@@std@@@std@@QEAA@XZ
	??1?$vector@UHalfedge@SurfaceMesh@easy3d@@V?$allocator@UHalfedge@SurfaceMesh@easy3d@@@std@@@std@@QEAA@XZ
	??1?$vector@UVertex@PolyMesh@easy3d@@V?$allocator@UVertex@PolyMesh@easy3d@@@std@@@std@@QEAA@XZ
	??1?$vector@UVertex@SurfaceMesh@easy3d@@V?$allocator@UVertex@SurfaceMesh@easy3d@@@std@@@std@@QEAA@XZ
	??1?$vector@UVertexConnectivity@Graph@easy3d@@V?$allocator@UVertexConnectivity@Graph@easy3d@@@std@@@std@@QEAA@XZ
	??1?$vector@UVertexConnectivity@PolyMesh@easy3d@@V?$allocator@UVertexConnectivity@PolyMesh@easy3d@@@std@@@std@@QEAA@XZ
	??1?$vector@V?$basic_string@DU?$char_traits@D@std@@V?$allocator@D@2@@std@@V?$allocator@V?$basic_string@DU?$char_traits@D@std@@V?$allocator@D@2@@std@@@2@@std@@QEAA@XZ
	??1?$vector@_NV?$allocator@_N@std@@@std@@QEAA@XZ
	??1BasePropertyArray@easy3d@@UEAA@XZ
	??1CellConnectivity@PolyMesh@easy3d@@QEAA@XZ
	??1EdgeConnectivity@PolyMesh@easy3d@@QEAA@XZ
	??1Graph@easy3d@@UEAA@XZ
	??1HalfFaceConnectivity@PolyMesh@easy3d@@QEAA@XZ
	??1Model@easy3d@@UEAA@XZ
	??1PointCloud@easy3d@@UEAA@XZ
	??1PolyMesh@easy3d@@UEAA@XZ
	??1PropertyContainer@easy3d@@UEAA@XZ
	??1SurfaceMesh@easy3d@@UEAA@XZ
	??1SurfaceMeshBuilder@easy3d@@QEAA@XZ
	??1VertexConnectivity@Graph@easy3d@@QEAA@XZ
	??1VertexConnectivity@PolyMesh@easy3d@@QEAA@XZ
	??1Writer@base@el@@UEAA@XZ
	??1_Sentry_base@?$basic_ostream@DU?$char_traits@D@std@@@std@@QEAA@XZ
	??1bad_alloc@std@@UEAA@XZ
	??1bad_array_new_length@std@@UEAA@XZ
	??1bad_cast@std@@UEAA@XZ
	??1exception@std@@UEAA@XZ
	??1locale@std@@QEAA@XZ
	??1sentry@?$basic_ostream@DU?$char_traits@D@std@@@std@@QEAA@XZ
	??4?$PropertyArray@_N@easy3d@@QEAAAEAV01@AEBV01@@Z
	??4?$_Vb_reference@U?$_Wrap_alloc@V?$allocator@I@std@@@std@@@std@@QEAAAEAV01@_N@Z
	??4?$set@UCell@PolyMesh@easy3d@@U?$less@UCell@PolyMesh@easy3d@@@std@@V?$allocator@UCell@PolyMesh@easy3d@@@5@@std@@QEAAAEAV01@AEBV01@@Z
	??4?$set@UEdge@PolyMesh@easy3d@@U?$less@UEdge@PolyMesh@easy3d@@@std@@V?$allocator@UEdge@PolyMesh@easy3d@@@5@@std@@QEAAAEAV01@AEBV01@@Z
	??4?$set@UHalfFace@PolyMesh@easy3d@@U?$less@UHalfFace@PolyMesh@easy3d@@@std@@V?$allocator@UHalfFace@PolyMesh@easy3d@@@5@@std@@QEAAAEAV01@AEBV01@@Z
	??4?$set@UVertex@PolyMesh@easy3d@@U?$less@UVertex@PolyMesh@easy3d@@@std@@V?$allocator@UVertex@PolyMesh@easy3d@@@5@@std@@QEAAAEAV01@AEBV01@@Z
	??4?$vector@UVertex@PolyMesh@easy3d@@V?$allocator@UVertex@PolyMesh@easy3d@@@std@@@std@@QEAAAEAV01@AEBV01@@Z
	??4Graph@easy3d@@QEAAAEAV01@AEBV01@@Z
	??4PointCloud@easy3d@@QEAAAEAV01@AEBV01@@Z
	??4PolyMesh@easy3d@@QEAAAEAV01@AEBV01@@Z
	??4PropertyContainer@easy3d@@QEAAAEAV01@AEBV01@@Z
	??4SurfaceMesh@easy3d@@QEAAAEAV01@AEBV01@@Z
	??6MessageBuilder@base@el@@QEAAAEAV012@PEBD@Z
	??A?$Property@UCellConnectivity@PolyMesh@easy3d@@@easy3d@@UEAAAEAUCellConnectivity@PolyMesh@1@_K@Z
	??A?$Property@UCellConnectivity@PolyMesh@easy3d@@@easy3d@@UEBAAEBUCellConnectivity@PolyMesh@1@_K@Z
	??A?$Property@UEdgeConnectivity@Graph@easy3d@@@easy3d@@UEAAAEAUEdgeConnectivity@Graph@1@_K@Z
	??A?$Property@UEdgeConnectivity@Graph@easy3d@@@easy3d@@UEBAAEBUEdgeConnectivity@Graph@1@_K@Z
	??A?$Property@UEdgeConnectivity@PolyMesh@easy3d@@@easy3d@@UEAAAEAUEdgeConnectivity@PolyMesh@1@_K@Z
	??A?$Property@UEdgeConnectivity@PolyMesh@easy3d@@@easy3d@@UEBAAEBUEdgeConnectivity@PolyMesh@1@_K@Z
	??A?$Property@UFace@SurfaceMesh@easy3d@@@easy3d@@UEAAAEAUFace@SurfaceMesh@1@_K@Z
	??A?$Property@UFace@SurfaceMesh@easy3d@@@easy3d@@UEBAAEBUFace@SurfaceMesh@1@_K@Z
	??A?$Property@UFaceConnectivity@SurfaceMesh@easy3d@@@easy3d@@UEAAAEAUFaceConnectivity@SurfaceMesh@1@_K@Z
	??A?$Property@UFaceConnectivity@SurfaceMesh@easy3d@@@easy3d@@UEBAAEBUFaceConnectivity@SurfaceMesh@1@_K@Z
	??A?$Property@UHalfFaceConnectivity@PolyMesh@easy3d@@@easy3d@@UEAAAEAUHalfFaceConnectivity@PolyMesh@1@_K@Z
	??A?$Property@UHalfFaceConnectivity@PolyMesh@easy3d@@@easy3d@@UEBAAEBUHalfFaceConnectivity@PolyMesh@1@_K@Z
	??A?$Property@UHalfedge@SurfaceMesh@easy3d@@@easy3d@@UEAAAEAUHalfedge@SurfaceMesh@1@_K@Z
	??A?$Property@UHalfedge@SurfaceMesh@easy3d@@@easy3d@@UEBAAEBUHalfedge@SurfaceMesh@1@_K@Z
	??A?$Property@UHalfedgeConnectivity@SurfaceMesh@easy3d@@@easy3d@@UEAAAEAUHalfedgeConnectivity@SurfaceMesh@1@_K@Z
	??A?$Property@UHalfedgeConnectivity@SurfaceMesh@easy3d@@@easy3d@@UEBAAEBUHalfedgeConnectivity@SurfaceMesh@1@_K@Z
	??A?$Property@UVertex@PointCloud@easy3d@@@easy3d@@UEAAAEAUVertex@PointCloud@1@_K@Z
	??A?$Property@UVertex@PointCloud@easy3d@@@easy3d@@UEBAAEBUVertex@PointCloud@1@_K@Z
	??A?$Property@UVertex@SurfaceMesh@easy3d@@@easy3d@@UEAAAEAUVertex@SurfaceMesh@1@_K@Z
	??A?$Property@UVertex@SurfaceMesh@easy3d@@@easy3d@@UEBAAEBUVertex@SurfaceMesh@1@_K@Z
	??A?$Property@UVertexConnectivity@Graph@easy3d@@@easy3d@@UEAAAEAUVertexConnectivity@Graph@1@_K@Z
	??A?$Property@UVertexConnectivity@Graph@easy3d@@@easy3d@@UEBAAEBUVertexConnectivity@Graph@1@_K@Z
	??A?$Property@UVertexConnectivity@PolyMesh@easy3d@@@easy3d@@UEAAAEAUVertexConnectivity@PolyMesh@1@_K@Z
	??A?$Property@UVertexConnectivity@PolyMesh@easy3d@@@easy3d@@UEBAAEBUVertexConnectivity@PolyMesh@1@_K@Z
	??A?$Property@UVertexConnectivity@SurfaceMesh@easy3d@@@easy3d@@UEAAAEAUVertexConnectivity@SurfaceMesh@1@_K@Z
	??A?$Property@UVertexConnectivity@SurfaceMesh@easy3d@@@easy3d@@UEBAAEBUVertexConnectivity@SurfaceMesh@1@_K@Z
	??A?$Property@V?$Vec@$02M@easy3d@@@easy3d@@UEAAAEAV?$Vec@$02M@1@_K@Z
	??A?$Property@V?$Vec@$02M@easy3d@@@easy3d@@UEBAAEBV?$Vec@$02M@1@_K@Z
	??A?$Property@_N@easy3d@@UEAA?AV?$_Vb_reference@U?$_Wrap_alloc@V?$allocator@I@std@@@std@@@std@@_K@Z
	??A?$Property@_N@easy3d@@UEBA_N_K@Z
	??A?$VertexProperty@_N@SurfaceMesh@easy3d@@QEAA?AV?$_Vb_reference@U?$_Wrap_alloc@V?$allocator@I@std@@@std@@@std@@UVertex@12@@Z
	??E?$_Tree_unchecked_const_iterator@V?$_Tree_val@U?$_Tree_simple_types@UCell@PolyMesh@easy3d@@@std@@@std@@U_Iterator_base0@2@@std@@QEAAAEAV01@XZ
	??E?$_Tree_unchecked_const_iterator@V?$_Tree_val@U?$_Tree_simple_types@UEdge@PolyMesh@easy3d@@@std@@@std@@U_Iterator_base0@2@@std@@QEAAAEAV01@XZ
	??E?$_Tree_unchecked_const_iterator@V?$_Tree_val@U?$_Tree_simple_types@UHalfFace@PolyMesh@easy3d@@@std@@@std@@U_Iterator_base0@2@@std@@QEAAAEAV01@XZ
	??E?$_Tree_unchecked_const_iterator@V?$_Tree_val@U?$_Tree_simple_types@UVertex@PolyMesh@easy3d@@@std@@@std@@U_Iterator_base0@2@@std@@QEAAAEAV01@XZ
	??EEdgeIterator@SurfaceMesh@easy3d@@QEAAAEAV012@XZ
	??EFaceIterator@SurfaceMesh@easy3d@@QEAAAEAV012@XZ
	??EVertexIterator@SurfaceMesh@easy3d@@QEAAAEAV012@XZ
	??H?$_Vb_iterator@U?$_Wrap_alloc@V?$allocator@I@std@@@std@@@std@@QEBA?AV01@_J@Z
	??R?$gebp_kernel@NN_JV?$blas_data_mapper@N_J$0A@$0A@$00@internal@Eigen@@$03$03$0A@$0A@@internal@Eigen@@QEAAXAEBV?$blas_data_mapper@N_J$0A@$0A@$00@12@PEBN1_J22N2222@Z
	??R?$gemm_pack_lhs@N_JV?$const_blas_data_mapper@N_J$00@internal@Eigen@@$03$01U__m128d@@$00$0A@$0A@@internal@Eigen@@QEAAXPEANAEBV?$const_blas_data_mapper@N_J$00@12@_J222@Z
	??R?$gemm_pack_lhs@N_JV?$const_blas_data_mapper@N_J$0A@@internal@Eigen@@$03$01U__m128d@@$0A@$0A@$0A@@internal@Eigen@@QEAAXPEANAEBV?$const_blas_data_mapper@N_J$0A@@12@_J222@Z
	??R?$gemm_pack_rhs@N_JV?$blas_data_mapper@N_J$0A@$0A@$00@internal@Eigen@@$03$0A@$0A@$00@internal@Eigen@@QEAAXPEANAEBV?$blas_data_mapper@N_J$0A@$0A@$00@12@_J222@Z
	??R?$gemm_pack_rhs@N_JV?$const_blas_data_mapper@N_J$0A@@internal@Eigen@@$03$0A@$0A@$0A@@internal@Eigen@@QEAAXPEANAEBV?$const_blas_data_mapper@N_J$0A@@12@_J222@Z
	??_7?$CellProperty@UCellConnectivity@PolyMesh@easy3d@@@PolyMesh@easy3d@@6B@
	??_7?$EdgeProperty@UEdgeConnectivity@Graph@easy3d@@@Graph@easy3d@@6B@
	??_7?$EdgeProperty@UEdgeConnectivity@PolyMesh@easy3d@@@PolyMesh@easy3d@@6B@
	??_7?$EdgeProperty@_N@Graph@easy3d@@6B@
	??_7?$EdgeProperty@_N@SurfaceMesh@easy3d@@6B@
	??_7?$FaceProperty@UFace@SurfaceMesh@easy3d@@@SurfaceMesh@easy3d@@6B@
	??_7?$FaceProperty@UFaceConnectivity@SurfaceMesh@easy3d@@@SurfaceMesh@easy3d@@6B@
	??_7?$FaceProperty@V?$Vec@$02M@easy3d@@@PolyMesh@easy3d@@6B@
	??_7?$FaceProperty@V?$Vec@$02M@easy3d@@@SurfaceMesh@easy3d@@6B@
	??_7?$FaceProperty@_N@SurfaceMesh@easy3d@@6B@
	??_7?$HalfFaceProperty@UHalfFaceConnectivity@PolyMesh@easy3d@@@PolyMesh@easy3d@@6B@
	??_7?$HalfedgeProperty@UHalfedge@SurfaceMesh@easy3d@@@SurfaceMesh@easy3d@@6B@
	??_7?$HalfedgeProperty@UHalfedgeConnectivity@SurfaceMesh@easy3d@@@SurfaceMesh@easy3d@@6B@
	??_7?$HalfedgeProperty@_N@SurfaceMesh@easy3d@@6B@
	??_7?$Property@UCellConnectivity@PolyMesh@easy3d@@@easy3d@@6B@
	??_7?$Property@UEdgeConnectivity@Graph@easy3d@@@easy3d@@6B@
	??_7?$Property@UEdgeConnectivity@PolyMesh@easy3d@@@easy3d@@6B@
	??_7?$Property@UFace@SurfaceMesh@easy3d@@@easy3d@@6B@
	??_7?$Property@UFaceConnectivity@SurfaceMesh@easy3d@@@easy3d@@6B@
	??_7?$Property@UHalfFaceConnectivity@PolyMesh@easy3d@@@easy3d@@6B@
	??_7?$Property@UHalfedge@SurfaceMesh@easy3d@@@easy3d@@6B@
	??_7?$Property@UHalfedgeConnectivity@SurfaceMesh@easy3d@@@easy3d@@6B@
	??_7?$Property@UVertex@PointCloud@easy3d@@@easy3d@@6B@
	??_7?$Property@UVertex@SurfaceMesh@easy3d@@@easy3d@@6B@
	??_7?$Property@UVertexConnectivity@Graph@easy3d@@@easy3d@@6B@
	??_7?$Property@UVertexConnectivity@PolyMesh@easy3d@@@easy3d@@6B@
	??_7?$Property@UVertexConnectivity@SurfaceMesh@easy3d@@@easy3d@@6B@
	??_7?$Property@V?$Vec@$02M@easy3d@@@easy3d@@6B@
	??_7?$Property@_N@easy3d@@6B@
	??_7?$PropertyArray@UCellConnectivity@PolyMesh@easy3d@@@easy3d@@6B@
	??_7?$PropertyArray@UEdgeConnectivity@Graph@easy3d@@@easy3d@@6B@
	??_7?$PropertyArray@UEdgeConnectivity@PolyMesh@easy3d@@@easy3d@@6B@
	??_7?$PropertyArray@UFace@SurfaceMesh@easy3d@@@easy3d@@6B@
	??_7?$PropertyArray@UFaceConnectivity@SurfaceMesh@easy3d@@@easy3d@@6B@
	??_7?$PropertyArray@UHalfFaceConnectivity@PolyMesh@easy3d@@@easy3d@@6B@
	??_7?$PropertyArray@UHalfedge@SurfaceMesh@easy3d@@@easy3d@@6B@
	??_7?$PropertyArray@UHalfedgeConnectivity@SurfaceMesh@easy3d@@@easy3d@@6B@
	??_7?$PropertyArray@UVertex@PointCloud@easy3d@@@easy3d@@6B@
	??_7?$PropertyArray@UVertex@SurfaceMesh@easy3d@@@easy3d@@6B@
	??_7?$PropertyArray@UVertexConnectivity@Graph@easy3d@@@easy3d@@6B@
	??_7?$PropertyArray@UVertexConnectivity@PolyMesh@easy3d@@@easy3d@@6B@
	??_7?$PropertyArray@UVertexConnectivity@SurfaceMesh@easy3d@@@easy3d@@6B@
	??_7?$PropertyArray@V?$Vec@$02M@easy3d@@@easy3d@@6B@
	??_7?$PropertyArray@_N@easy3d@@6B@
	??_7?$VertexProperty@UHalfedge@SurfaceMesh@easy3d@@@SurfaceMesh@easy3d@@6B@
	??_7?$VertexProperty@UVertex@PointCloud@easy3d@@@PointCloud@easy3d@@6B@
	??_7?$VertexProperty@UVertex@SurfaceMesh@easy3d@@@SurfaceMesh@easy3d@@6B@
	??_7?$VertexProperty@UVertexConnectivity@Graph@easy3d@@@Graph@easy3d@@6B@
	??_7?$VertexProperty@UVertexConnectivity@PolyMesh@easy3d@@@PolyMesh@easy3d@@6B@
	??_7?$VertexProperty@UVertexConnectivity@SurfaceMesh@easy3d@@@SurfaceMesh@easy3d@@6B@
	??_7?$VertexProperty@V?$Vec@$02M@easy3d@@@Graph@easy3d@@6B@
	??_7?$VertexProperty@V?$Vec@$02M@easy3d@@@PointCloud@easy3d@@6B@
	??_7?$VertexProperty@V?$Vec@$02M@easy3d@@@PolyMesh@easy3d@@6B@
	??_7?$VertexProperty@V?$Vec@$02M@easy3d@@@SurfaceMesh@easy3d@@6B@
	??_7?$VertexProperty@_N@Graph@easy3d@@6B@
	??_7?$VertexProperty@_N@PointCloud@easy3d@@6B@
	??_7?$VertexProperty@_N@SurfaceMesh@easy3d@@6B@
	??_7?$basic_filebuf@DU?$char_traits@D@std@@@std@@6B@
	??_7?$basic_ifstream@DU?$char_traits@D@std@@@std@@6B@
	??_7?$basic_ofstream@DU?$char_traits@D@std@@@std@@6B@
	??_7BasePropertyArray@easy3d@@6B@
	??_7Graph@easy3d@@6B@
	??_7Model@easy3d@@6B@
	??_7PointCloud@easy3d@@6B@
	??_7PolyMesh@easy3d@@6B@
	??_7PropertyContainer@easy3d@@6B@
	??_7SurfaceMesh@easy3d@@6B@
	??_7Writer@base@el@@6B@
	??_7bad_alloc@std@@6B@
	??_7bad_array_new_length@std@@6B@
	??_7bad_cast@std@@6B@
	??_7exception@std@@6B@
	??_D?$basic_ifstream@DU?$char_traits@D@std@@@std@@QEAAXXZ
	??_D?$basic_ofstream@DU?$char_traits@D@std@@@std@@QEAAXXZ
	?_Assign_grow@?$_Hash_vec@V?$allocator@V?$_List_unchecked_iterator@V?$_List_val@U?$_List_simple_types@U?$pair@$$CBHV?$vector@HV?$allocator@H@std@@@std@@@std@@@std@@@std@@@std@@@std@@@std@@QEAAX_KV?$_List_unchecked_iterator@V?$_List_val@U?$_List_simple_types@U?$pair@$$CBHV?$vector@HV?$allocator@H@std@@@std@@@std@@@std@@@std@@@2@@Z
	?_Assign_grow@?$_Hash_vec@V?$allocator@V?$_List_unchecked_iterator@V?$_List_val@U?$_List_simple_types@U?$pair@$$CBUVertex@SurfaceMesh@easy3d@@V?$vector@UVertex@SurfaceMesh@easy3d@@V?$allocator@UVertex@SurfaceMesh@easy3d@@@std@@@std@@@std@@@std@@@std@@@std@@@std@@@std@@QEAAX_KV?$_List_unchecked_iterator@V?$_List_val@U?$_List_simple_types@U?$pair@$$CBUVertex@SurfaceMesh@easy3d@@V?$vector@UVertex@SurfaceMesh@easy3d@@V?$allocator@UVertex@SurfaceMesh@easy3d@@@std@@@std@@@std@@@std@@@std@@@2@@Z
	?_Change_array@?$vector@IV?$allocator@I@std@@@std@@AEAAXQEAI_K1@Z
	?_Change_array@?$vector@PEAVBasePropertyArray@easy3d@@V?$allocator@PEAVBasePropertyArray@easy3d@@@std@@@std@@AEAAXQEAPEAVBasePropertyArray@easy3d@@_K1@Z
	?_Change_array@?$vector@U?$pair@UHalfedge@SurfaceMesh@easy3d@@U123@@std@@V?$allocator@U?$pair@UHalfedge@SurfaceMesh@easy3d@@U123@@std@@@2@@std@@AEAAXQEAU?$pair@UHalfedge@SurfaceMesh@easy3d@@U123@@2@_K1@Z
	?_Change_array@?$vector@UCellConnectivity@PolyMesh@easy3d@@V?$allocator@UCellConnectivity@PolyMesh@easy3d@@@std@@@std@@AEAAXQEAUCellConnectivity@PolyMesh@easy3d@@_K1@Z
	?_Change_array@?$vector@UEdge@SurfaceMesh@easy3d@@V?$allocator@UEdge@SurfaceMesh@easy3d@@@std@@@std@@AEAAXQEAUEdge@SurfaceMesh@easy3d@@_K1@Z
	?_Change_array@?$vector@UEdgeConnectivity@Graph@easy3d@@V?$allocator@UEdgeConnectivity@Graph@easy3d@@@std@@@std@@AEAAXQEAUEdgeConnectivity@Graph@easy3d@@_K1@Z
	?_Change_array@?$vector@UEdgeConnectivity@PolyMesh@easy3d@@V?$allocator@UEdgeConnectivity@PolyMesh@easy3d@@@std@@@std@@AEAAXQEAUEdgeConnectivity@PolyMesh@easy3d@@_K1@Z
	?_Change_array@?$vector@UFace@SurfaceMesh@easy3d@@V?$allocator@UFace@SurfaceMesh@easy3d@@@std@@@std@@AEAAXQEAUFace@SurfaceMesh@easy3d@@_K1@Z
	?_Change_array@?$vector@UFaceConnectivity@SurfaceMesh@easy3d@@V?$allocator@UFaceConnectivity@SurfaceMesh@easy3d@@@std@@@std@@AEAAXQEAUFaceConnectivity@SurfaceMesh@easy3d@@_K1@Z
	?_Change_array@?$vector@UHalfFaceConnectivity@PolyMesh@easy3d@@V?$allocator@UHalfFaceConnectivity@PolyMesh@easy3d@@@std@@@std@@AEAAXQEAUHalfFaceConnectivity@PolyMesh@easy3d@@_K1@Z
	?_Change_array@?$vector@UHalfedge@SurfaceMesh@easy3d@@V?$allocator@UHalfedge@SurfaceMesh@easy3d@@@std@@@std@@AEAAXQEAUHalfedge@SurfaceMesh@easy3d@@_K1@Z
	?_Change_array@?$vector@UHalfedgeConnectivity@SurfaceMesh@easy3d@@V?$allocator@UHalfedgeConnectivity@SurfaceMesh@easy3d@@@std@@@std@@AEAAXQEAUHalfedgeConnectivity@SurfaceMesh@easy3d@@_K1@Z
	?_Change_array@?$vector@UVertex@PointCloud@easy3d@@V?$allocator@UVertex@PointCloud@easy3d@@@std@@@std@@AEAAXQEAUVertex@PointCloud@easy3d@@_K1@Z
	?_Change_array@?$vector@UVertex@SurfaceMesh@easy3d@@V?$allocator@UVertex@SurfaceMesh@easy3d@@@std@@@std@@AEAAXQEAUVertex@SurfaceMesh@easy3d@@_K1@Z
	?_Change_array@?$vector@UVertexConnectivity@Graph@easy3d@@V?$allocator@UVertexConnectivity@Graph@easy3d@@@std@@@std@@AEAAXQEAUVertexConnectivity@Graph@easy3d@@_K1@Z
	?_Change_array@?$vector@UVertexConnectivity@PolyMesh@easy3d@@V?$allocator@UVertexConnectivity@PolyMesh@easy3d@@@std@@@std@@AEAAXQEAUVertexConnectivity@PolyMesh@easy3d@@_K1@Z
	?_Change_array@?$vector@UVertexConnectivity@SurfaceMesh@easy3d@@V?$allocator@UVertexConnectivity@SurfaceMesh@easy3d@@@std@@@std@@AEAAXQEAUVertexConnectivity@SurfaceMesh@easy3d@@_K1@Z
	?_Change_array@?$vector@V?$Vec@$02M@easy3d@@V?$allocator@V?$Vec@$02M@easy3d@@@std@@@std@@AEAAXQEAV?$Vec@$02M@easy3d@@_K1@Z
	?_Clear_and_reserve_geometric@?$vector@UVertex@PolyMesh@easy3d@@V?$allocator@UVertex@PolyMesh@easy3d@@@std@@@std@@AEAAX_K@Z
	?_Endwrite@?$basic_filebuf@DU?$char_traits@D@std@@@std@@IEAA_NXZ
	?_Forced_rehash@?$_Hash@V?$_Umap_traits@HV?$vector@HV?$allocator@H@std@@@std@@V?$_Uhash_compare@HU?$hash@H@std@@U?$equal_to@H@2@@2@V?$allocator@U?$pair@$$CBHV?$vector@HV?$allocator@H@std@@@std@@@std@@@2@$0A@@std@@@std@@IEAAX_K@Z
	?_Forced_rehash@?$_Hash@V?$_Umap_traits@UVertex@SurfaceMesh@easy3d@@V?$vector@UVertex@SurfaceMesh@easy3d@@V?$allocator@UVertex@SurfaceMesh@easy3d@@@std@@@std@@V?$_Uhash_compare@UVertex@SurfaceMesh@easy3d@@UHash@BaseHandle@23@U?$equal_to@UVertex@SurfaceMesh@easy3d@@@std@@@5@V?$allocator@U?$pair@$$CBUVertex@SurfaceMesh@easy3d@@V?$vector@UVertex@SurfaceMesh@easy3d@@V?$allocator@UVertex@SurfaceMesh@easy3d@@@std@@@std@@@std@@@5@$0A@@std@@@std@@IEAAX_K@Z
	?_Getal@?$_Tree@V?$_Tset_traits@UCell@PolyMesh@easy3d@@U?$less@UCell@PolyMesh@easy3d@@@std@@V?$allocator@UCell@PolyMesh@easy3d@@@5@$0A@@std@@@std@@IEAAAEAV?$allocator@U?$_Tree_node@UCell@PolyMesh@easy3d@@PEAX@std@@@2@XZ
	?_Getal@?$_Tree@V?$_Tset_traits@UEdge@PolyMesh@easy3d@@U?$less@UEdge@PolyMesh@easy3d@@@std@@V?$allocator@UEdge@PolyMesh@easy3d@@@5@$0A@@std@@@std@@IEAAAEAV?$allocator@U?$_Tree_node@UEdge@PolyMesh@easy3d@@PEAX@std@@@2@XZ
	?_Getal@?$_Tree@V?$_Tset_traits@UHalfFace@PolyMesh@easy3d@@U?$less@UHalfFace@PolyMesh@easy3d@@@std@@V?$allocator@UHalfFace@PolyMesh@easy3d@@@5@$0A@@std@@@std@@IEAAAEAV?$allocator@U?$_Tree_node@UHalfFace@PolyMesh@easy3d@@PEAX@std@@@2@XZ
	?_Getal@?$_Tree@V?$_Tset_traits@UVertex@PolyMesh@easy3d@@U?$less@UVertex@PolyMesh@easy3d@@@std@@V?$allocator@UVertex@PolyMesh@easy3d@@@5@$0A@@std@@@std@@IEAAAEAV?$allocator@U?$_Tree_node@UVertex@PolyMesh@easy3d@@PEAX@std@@@2@XZ
	?_Insert_n@?$vector@_NV?$allocator@_N@std@@@std@@QEAA?AV?$_Vb_iterator@U?$_Wrap_alloc@V?$allocator@I@std@@@std@@@2@V?$_Vb_const_iterator@U?$_Wrap_alloc@V?$allocator@I@std@@@std@@@2@_KAEB_N@Z
	?_Insert_node@?$_Tree_val@U?$_Tree_simple_types@H@std@@@std@@QEAAPEAU?$_Tree_node@HPEAX@2@U?$_Tree_id@PEAU?$_Tree_node@HPEAX@std@@@2@QEAU32@@Z
	?_Insert_node@?$_Tree_val@U?$_Tree_simple_types@UCell@PolyMesh@easy3d@@@std@@@std@@QEAAPEAU?$_Tree_node@UCell@PolyMesh@easy3d@@PEAX@2@U?$_Tree_id@PEAU?$_Tree_node@UCell@PolyMesh@easy3d@@PEAX@std@@@2@QEAU32@@Z
	?_Insert_node@?$_Tree_val@U?$_Tree_simple_types@UEdge@PolyMesh@easy3d@@@std@@@std@@QEAAPEAU?$_Tree_node@UEdge@PolyMesh@easy3d@@PEAX@2@U?$_Tree_id@PEAU?$_Tree_node@UEdge@PolyMesh@easy3d@@PEAX@std@@@2@QEAU32@@Z
	?_Insert_node@?$_Tree_val@U?$_Tree_simple_types@UHalfFace@PolyMesh@easy3d@@@std@@@std@@QEAAPEAU?$_Tree_node@UHalfFace@PolyMesh@easy3d@@PEAX@2@U?$_Tree_id@PEAU?$_Tree_node@UHalfFace@PolyMesh@easy3d@@PEAX@std@@@2@QEAU32@@Z
	?_Insert_node@?$_Tree_val@U?$_Tree_simple_types@UVertex@PolyMesh@easy3d@@@std@@@std@@QEAAPEAU?$_Tree_node@UVertex@PolyMesh@easy3d@@PEAX@2@U?$_Tree_id@PEAU?$_Tree_node@UVertex@PolyMesh@easy3d@@PEAX@std@@@2@QEAU32@@Z
	?_Insert_x@?$vector@_NV?$allocator@_N@std@@@std@@QEAA_KV?$_Vb_const_iterator@U?$_Wrap_alloc@V?$allocator@I@std@@@std@@@2@_K@Z
	?_Lock@?$basic_filebuf@DU?$char_traits@D@std@@@std@@UEAAXXZ
	?_Maklocwcs@std@@YAPEA_WPEB_W@Z
	?_Reallocate_exactly@?$vector@IV?$allocator@I@std@@@std@@AEAAX_K@Z
	?_Reallocate_exactly@?$vector@U?$pair@UHalfedge@SurfaceMesh@easy3d@@U123@@std@@V?$allocator@U?$pair@UHalfedge@SurfaceMesh@easy3d@@U123@@std@@@2@@std@@AEAAX_K@Z
	?_Reallocate_exactly@?$vector@UCellConnectivity@PolyMesh@easy3d@@V?$allocator@UCellConnectivity@PolyMesh@easy3d@@@std@@@std@@AEAAX_K@Z
	?_Reallocate_exactly@?$vector@UEdge@SurfaceMesh@easy3d@@V?$allocator@UEdge@SurfaceMesh@easy3d@@@std@@@std@@AEAAX_K@Z
	?_Reallocate_exactly@?$vector@UEdgeConnectivity@Graph@easy3d@@V?$allocator@UEdgeConnectivity@Graph@easy3d@@@std@@@std@@AEAAX_K@Z
	?_Reallocate_exactly@?$vector@UEdgeConnectivity@PolyMesh@easy3d@@V?$allocator@UEdgeConnectivity@PolyMesh@easy3d@@@std@@@std@@AEAAX_K@Z
	?_Reallocate_exactly@?$vector@UFace@SurfaceMesh@easy3d@@V?$allocator@UFace@SurfaceMesh@easy3d@@@std@@@std@@AEAAX_K@Z
	?_Reallocate_exactly@?$vector@UFaceConnectivity@SurfaceMesh@easy3d@@V?$allocator@UFaceConnectivity@SurfaceMesh@easy3d@@@std@@@std@@AEAAX_K@Z
	?_Reallocate_exactly@?$vector@UHalfFaceConnectivity@PolyMesh@easy3d@@V?$allocator@UHalfFaceConnectivity@PolyMesh@easy3d@@@std@@@std@@AEAAX_K@Z
	?_Reallocate_exactly@?$vector@UHalfedge@SurfaceMesh@easy3d@@V?$allocator@UHalfedge@SurfaceMesh@easy3d@@@std@@@std@@AEAAX_K@Z
	?_Reallocate_exactly@?$vector@UHalfedgeConnectivity@SurfaceMesh@easy3d@@V?$allocator@UHalfedgeConnectivity@SurfaceMesh@easy3d@@@std@@@std@@AEAAX_K@Z
	?_Reallocate_exactly@?$vector@UVertex@PointCloud@easy3d@@V?$allocator@UVertex@PointCloud@easy3d@@@std@@@std@@AEAAX_K@Z
	?_Reallocate_exactly@?$vector@UVertex@SurfaceMesh@easy3d@@V?$allocator@UVertex@SurfaceMesh@easy3d@@@std@@@std@@AEAAX_K@Z
	?_Reallocate_exactly@?$vector@UVertexConnectivity@Graph@easy3d@@V?$allocator@UVertexConnectivity@Graph@easy3d@@@std@@@std@@AEAAX_K@Z
	?_Reallocate_exactly@?$vector@UVertexConnectivity@PolyMesh@easy3d@@V?$allocator@UVertexConnectivity@PolyMesh@easy3d@@@std@@@std@@AEAAX_K@Z
	?_Reallocate_exactly@?$vector@UVertexConnectivity@SurfaceMesh@easy3d@@V?$allocator@UVertexConnectivity@SurfaceMesh@easy3d@@@std@@@std@@AEAAX_K@Z
	?_Reallocate_exactly@?$vector@V?$Vec@$02M@easy3d@@V?$allocator@V?$Vec@$02M@easy3d@@@std@@@std@@AEAAX_K@Z
	?_Reset_back@?$basic_filebuf@DU?$char_traits@D@std@@@std@@AEAAXXZ
	?_Throw_bad_array_new_length@std@@YAXXZ
	?_Throw_bad_cast@std@@YAXXZ
	?_Throw_tree_length_error@std@@YAXXZ
	?_Tidy@?$vector@UCellConnectivity@PolyMesh@easy3d@@V?$allocator@UCellConnectivity@PolyMesh@easy3d@@@std@@@std@@AEAAXXZ
	?_Tidy@?$vector@UEdgeConnectivity@PolyMesh@easy3d@@V?$allocator@UEdgeConnectivity@PolyMesh@easy3d@@@std@@@std@@AEAAXXZ
	?_Tidy@?$vector@UHalfFaceConnectivity@PolyMesh@easy3d@@V?$allocator@UHalfFaceConnectivity@PolyMesh@easy3d@@@std@@@std@@AEAAXXZ
	?_Tidy@?$vector@UVertexConnectivity@Graph@easy3d@@V?$allocator@UVertexConnectivity@Graph@easy3d@@@std@@@std@@AEAAXXZ
	?_Tidy@?$vector@UVertexConnectivity@PolyMesh@easy3d@@V?$allocator@UVertexConnectivity@PolyMesh@easy3d@@@std@@@std@@AEAAXXZ
	?_Tidy@?$vector@V?$Vec@$02M@easy3d@@V?$allocator@V?$Vec@$02M@easy3d@@@std@@@std@@AEAAXXZ
	?_Tidy@?$vector@V?$basic_string@DU?$char_traits@D@std@@V?$allocator@D@2@@std@@V?$allocator@V?$basic_string@DU?$char_traits@D@std@@V?$allocator@D@2@@std@@@2@@std@@AEAAXXZ
	?_Tidy_deallocate@?$basic_string@DU?$char_traits@D@std@@V?$allocator@D@2@@std@@AEAAXXZ
	?_Unchecked_erase@?$_Hash@V?$_Umap_traits@HV?$vector@HV?$allocator@H@std@@@std@@V?$_Uhash_compare@HU?$hash@H@std@@U?$equal_to@H@2@@2@V?$allocator@U?$pair@$$CBHV?$vector@HV?$allocator@H@std@@@std@@@std@@@2@$0A@@std@@@std@@AEAAPEAU?$_List_node@U?$pair@$$CBHV?$vector@HV?$allocator@H@std@@@std@@@std@@PEAX@2@PEAU32@QEAU32@@Z
	?_Unlock@?$basic_filebuf@DU?$char_traits@D@std@@@std@@UEAAXXZ
	?_Xlen@?$vector@_NV?$allocator@_N@std@@@std@@QEBAXXZ
	?_Xlen_string@std@@YAXXZ
	?_Xlength@?$vector@DV?$allocator@D@std@@@std@@CAXXZ
	?_Xlength@?$vector@HV?$allocator@H@std@@@std@@CAXXZ
	?_Xlength@?$vector@IV?$allocator@I@std@@@std@@CAXXZ
	?_Xlength@?$vector@NV?$allocator@N@std@@@std@@CAXXZ
	?_Xlength@?$vector@PEAVBasePropertyArray@easy3d@@V?$allocator@PEAVBasePropertyArray@easy3d@@@std@@@std@@CAXXZ
	?_Xlength@?$vector@U?$pair@UHalfedge@SurfaceMesh@easy3d@@U123@@std@@V?$allocator@U?$pair@UHalfedge@SurfaceMesh@easy3d@@U123@@std@@@2@@std@@CAXXZ
	?_Xlength@?$vector@UCell@PolyMesh@easy3d@@V?$allocator@UCell@PolyMesh@easy3d@@@std@@@std@@CAXXZ
	?_Xlength@?$vector@UCellConnectivity@PolyMesh@easy3d@@V?$allocator@UCellConnectivity@PolyMesh@easy3d@@@std@@@std@@CAXXZ
	?_Xlength@?$vector@UEdge@Graph@easy3d@@V?$allocator@UEdge@Graph@easy3d@@@std@@@std@@CAXXZ
	?_Xlength@?$vector@UEdge@PolyMesh@easy3d@@V?$allocator@UEdge@PolyMesh@easy3d@@@std@@@std@@CAXXZ
	?_Xlength@?$vector@UEdge@SurfaceMesh@easy3d@@V?$allocator@UEdge@SurfaceMesh@easy3d@@@std@@@std@@CAXXZ
	?_Xlength@?$vector@UEdgeConnectivity@Graph@easy3d@@V?$allocator@UEdgeConnectivity@Graph@easy3d@@@std@@@std@@CAXXZ
	?_Xlength@?$vector@UEdgeConnectivity@PolyMesh@easy3d@@V?$allocator@UEdgeConnectivity@PolyMesh@easy3d@@@std@@@std@@CAXXZ
	?_Xlength@?$vector@UFace@SurfaceMesh@easy3d@@V?$allocator@UFace@SurfaceMesh@easy3d@@@std@@@std@@CAXXZ
	?_Xlength@?$vector@UFaceConnectivity@SurfaceMesh@easy3d@@V?$allocator@UFaceConnectivity@SurfaceMesh@easy3d@@@std@@@std@@CAXXZ
	?_Xlength@?$vector@UHalfFace@PolyMesh@easy3d@@V?$allocator@UHalfFace@PolyMesh@easy3d@@@std@@@std@@CAXXZ
	?_Xlength@?$vector@UHalfFaceConnectivity@PolyMesh@easy3d@@V?$allocator@UHalfFaceConnectivity@PolyMesh@easy3d@@@std@@@std@@CAXXZ
	?_Xlength@?$vector@UHalfedge@SurfaceMesh@easy3d@@V?$allocator@UHalfedge@SurfaceMesh@easy3d@@@std@@@std@@CAXXZ
	?_Xlength@?$vector@UHalfedgeConnectivity@SurfaceMesh@easy3d@@V?$allocator@UHalfedgeConnectivity@SurfaceMesh@easy3d@@@std@@@std@@CAXXZ
	?_Xlength@?$vector@UVertex@PointCloud@easy3d@@V?$allocator@UVertex@PointCloud@easy3d@@@std@@@std@@CAXXZ
	?_Xlength@?$vector@UVertex@PolyMesh@easy3d@@V?$allocator@UVertex@PolyMesh@easy3d@@@std@@@std@@CAXXZ
	?_Xlength@?$vector@UVertex@SurfaceMesh@easy3d@@V?$allocator@UVertex@SurfaceMesh@easy3d@@@std@@@std@@CAXXZ
	?_Xlength@?$vector@UVertexConnectivity@Graph@easy3d@@V?$allocator@UVertexConnectivity@Graph@easy3d@@@std@@@std@@CAXXZ
	?_Xlength@?$vector@UVertexConnectivity@PolyMesh@easy3d@@V?$allocator@UVertexConnectivity@PolyMesh@easy3d@@@std@@@std@@CAXXZ
	?_Xlength@?$vector@UVertexConnectivity@SurfaceMesh@easy3d@@V?$allocator@UVertexConnectivity@SurfaceMesh@easy3d@@@std@@@std@@CAXXZ
	?_Xlength@?$vector@V?$Vec@$02M@easy3d@@V?$allocator@V?$Vec@$02M@easy3d@@@std@@@std@@CAXXZ
	?_Xlength@?$vector@V?$basic_string@DU?$char_traits@D@std@@V?$allocator@D@2@@std@@V?$allocator@V?$basic_string@DU?$char_traits@D@std@@V?$allocator@D@2@@std@@@2@@std@@CAXXZ
	?_Xlength@?$vector@V?$vector@UVertex@PolyMesh@easy3d@@V?$allocator@UVertex@PolyMesh@easy3d@@@std@@@std@@V?$allocator@V?$vector@UVertex@PolyMesh@easy3d@@V?$allocator@UVertex@PolyMesh@easy3d@@@std@@@std@@@2@@std@@CAXXZ
	?add_cell@PolyMesh@easy3d@@QEAA?AUCell@12@AEBV?$vector@UHalfFace@PolyMesh@easy3d@@V?$allocator@UHalfFace@PolyMesh@easy3d@@@std@@@std@@@Z
	?add_edge@Graph@easy3d@@QEAA?AUEdge@12@AEBUVertex@12@0@Z
	?add_face@PolyMesh@easy3d@@QEAA?AUHalfFace@12@AEBV?$vector@UVertex@PolyMesh@easy3d@@V?$allocator@UVertex@PolyMesh@easy3d@@@std@@@std@@@Z
	?add_face@SurfaceMesh@easy3d@@QEAA?AUFace@12@AEBV?$vector@UVertex@SurfaceMesh@easy3d@@V?$allocator@UVertex@SurfaceMesh@easy3d@@@std@@@std@@@Z
	?add_face@SurfaceMeshBuilder@easy3d@@QEAA?AUFace@SurfaceMesh@2@AEBV?$vector@UVertex@SurfaceMesh@easy3d@@V?$allocator@UVertex@SurfaceMesh@easy3d@@@std@@@std@@@Z
	?add_hexa@PolyMesh@easy3d@@QEAA?AUCell@12@UVertex@12@0000000@Z
	?add_quad@PolyMesh@easy3d@@QEAA?AUHalfFace@12@UVertex@12@000@Z
	?add_quad@SurfaceMesh@easy3d@@QEAA?AUFace@12@UVertex@12@000@Z
	?add_quad@SurfaceMeshBuilder@easy3d@@QEAA?AUFace@SurfaceMesh@2@UVertex@42@000@Z
	?add_tetra@PolyMesh@easy3d@@QEAA?AUCell@12@UVertex@12@000@Z
	?add_triangle@PolyMesh@easy3d@@QEAA?AUHalfFace@12@UVertex@12@00@Z
	?add_triangle@SurfaceMesh@easy3d@@QEAA?AUFace@12@UVertex@12@00@Z
	?add_triangle@SurfaceMeshBuilder@easy3d@@QEAA?AUFace@SurfaceMesh@2@UVertex@42@00@Z
	?add_vertex@Graph@easy3d@@QEAA?AUVertex@12@AEBV?$Vec@$02M@2@@Z
	?add_vertex@PointCloud@easy3d@@QEAA?AUVertex@12@AEBV?$Vec@$02M@2@@Z
	?add_vertex@SurfaceMesh@easy3d@@QEAA?AUVertex@12@AEBV?$Vec@$02M@2@@Z
	?add_vertex@SurfaceMeshBuilder@easy3d@@QEAA?AUVertex@SurfaceMesh@2@AEBV?$Vec@$02M@2@@Z
	?adjust_outgoing_halfedge@SurfaceMesh@easy3d@@AEAAXUVertex@12@@Z
	?adjust_outgoing_halfedges@SurfaceMesh@easy3d@@AEAAXXZ
	?aligned_malloc@internal@Eigen@@YAPEAX_K@Z
	?allocate@?$JacobiSVD@V?$Matrix@N$0?0$0?0$0A@$0?0$0?0@Eigen@@$01@Eigen@@AEAAX_J0I@Z
	?allocate@?$allocator@D@std@@QEAAPEAD_K@Z
	?allocate@?$allocator@I@std@@QEAAPEAI_K@Z
	?allocate@?$allocator@PEAVBasePropertyArray@easy3d@@@std@@QEAAPEAPEAVBasePropertyArray@easy3d@@_K@Z
	?allocate@?$allocator@U?$pair@UHalfedge@SurfaceMesh@easy3d@@U123@@std@@@std@@QEAAPEAU?$pair@UHalfedge@SurfaceMesh@easy3d@@U123@@2@_K@Z
	?allocate@?$allocator@UCellConnectivity@PolyMesh@easy3d@@@std@@QEAAPEAUCellConnectivity@PolyMesh@easy3d@@_K@Z
	?allocate@?$allocator@UEdge@Graph@easy3d@@@std@@QEAAPEAUEdge@Graph@easy3d@@_K@Z
	?allocate@?$allocator@UEdge@SurfaceMesh@easy3d@@@std@@QEAAPEAUEdge@SurfaceMesh@easy3d@@_K@Z
	?allocate@?$allocator@UEdgeConnectivity@Graph@easy3d@@@std@@QEAAPEAUEdgeConnectivity@Graph@easy3d@@_K@Z
	?allocate@?$allocator@UEdgeConnectivity@PolyMesh@easy3d@@@std@@QEAAPEAUEdgeConnectivity@PolyMesh@easy3d@@_K@Z
	?allocate@?$allocator@UFace@SurfaceMesh@easy3d@@@std@@QEAAPEAUFace@SurfaceMesh@easy3d@@_K@Z
	?allocate@?$allocator@UFaceConnectivity@SurfaceMesh@easy3d@@@std@@QEAAPEAUFaceConnectivity@SurfaceMesh@easy3d@@_K@Z
	?allocate@?$allocator@UHalfFace@PolyMesh@easy3d@@@std@@QEAAPEAUHalfFace@PolyMesh@easy3d@@_K@Z
	?allocate@?$allocator@UHalfFaceConnectivity@PolyMesh@easy3d@@@std@@QEAAPEAUHalfFaceConnectivity@PolyMesh@easy3d@@_K@Z
	?allocate@?$allocator@UHalfedge@SurfaceMesh@easy3d@@@std@@QEAAPEAUHalfedge@SurfaceMesh@easy3d@@_K@Z
	?allocate@?$allocator@UHalfedgeConnectivity@SurfaceMesh@easy3d@@@std@@QEAAPEAUHalfedgeConnectivity@SurfaceMesh@easy3d@@_K@Z
	?allocate@?$allocator@UVertex@PointCloud@easy3d@@@std@@QEAAPEAUVertex@PointCloud@easy3d@@_K@Z
	?allocate@?$allocator@UVertex@PolyMesh@easy3d@@@std@@QEAAPEAUVertex@PolyMesh@easy3d@@_K@Z
	?allocate@?$allocator@UVertex@SurfaceMesh@easy3d@@@std@@QEAAPEAUVertex@SurfaceMesh@easy3d@@_K@Z
	?allocate@?$allocator@UVertexConnectivity@Graph@easy3d@@@std@@QEAAPEAUVertexConnectivity@Graph@easy3d@@_K@Z
	?allocate@?$allocator@UVertexConnectivity@PolyMesh@easy3d@@@std@@QEAAPEAUVertexConnectivity@PolyMesh@easy3d@@_K@Z
	?allocate@?$allocator@UVertexConnectivity@SurfaceMesh@easy3d@@@std@@QEAAPEAUVertexConnectivity@SurfaceMesh@easy3d@@_K@Z
	?allocate@?$allocator@V?$Vec@$02M@easy3d@@@std@@QEAAPEAV?$Vec@$02M@easy3d@@_K@Z
	?append@?$basic_string@DU?$char_traits@D@std@@V?$allocator@D@2@@std@@QEAAAEAV12@QEBD_K@Z
	?assign@?$basic_string@DU?$char_traits@D@std@@V?$allocator@D@2@@std@@QEAAAEAV12@QEBD_K@Z
	?assign@Graph@easy3d@@QEAAAEAV12@AEBV12@@Z
	?assign@PointCloud@easy3d@@QEAAAEAV12@AEBV12@@Z
	?assign@PolyMesh@easy3d@@QEAAAEAV12@AEBV12@@Z
	?assign@SurfaceMesh@easy3d@@QEAAAEAV12@AEBV12@@Z
	?begin_surface@SurfaceMeshBuilder@easy3d@@QEAAXXZ
	?blocked_lu@?$partial_lu_impl@N$0A@H$0?0@internal@Eigen@@SA_J_J0PEAN0PEAHAEAH0@Z
	?bounding_box@Model@easy3d@@QEBAAEBV?$GenericBox@$02M@2@_N@Z
	?can_join_edges@SurfaceMesh@easy3d@@QEBA_NUVertex@12@@Z
	?can_merge_vertices@SurfaceMesh@easy3d@@AEBA_NUHalfedge@12@0@Z
	?clear@?$_Hash@V?$_Umap_traits@HV?$vector@HV?$allocator@H@std@@@std@@V?$_Uhash_compare@HU?$hash@H@std@@U?$equal_to@H@2@@2@V?$allocator@U?$pair@$$CBHV?$vector@HV?$allocator@H@std@@@std@@@std@@@2@$0A@@std@@@std@@QEAAXXZ
	?clear@?$_Hash@V?$_Umap_traits@UVertex@SurfaceMesh@easy3d@@V?$vector@UVertex@SurfaceMesh@easy3d@@V?$allocator@UVertex@SurfaceMesh@easy3d@@@std@@@std@@V?$_Uhash_compare@UVertex@SurfaceMesh@easy3d@@UHash@BaseHandle@23@U?$equal_to@UVertex@SurfaceMesh@easy3d@@@std@@@5@V?$allocator@U?$pair@$$CBUVertex@SurfaceMesh@easy3d@@V?$vector@UVertex@SurfaceMesh@easy3d@@V?$allocator@UVertex@SurfaceMesh@easy3d@@@std@@@std@@@std@@@5@$0A@@std@@@std@@QEAAXXZ
	?clear@Graph@easy3d@@QEAAXXZ
	?clear@PointCloud@easy3d@@QEAAXXZ
	?clear@PolyMesh@easy3d@@QEAAXXZ
	?clear@PropertyContainer@easy3d@@QEAAXXZ
	?clear@SurfaceMesh@easy3d@@QEAAXXZ
	?clone@?$PropertyArray@UCellConnectivity@PolyMesh@easy3d@@@easy3d@@UEBAPEAVBasePropertyArray@2@XZ
	?clone@?$PropertyArray@UEdgeConnectivity@Graph@easy3d@@@easy3d@@UEBAPEAVBasePropertyArray@2@XZ
	?clone@?$PropertyArray@UEdgeConnectivity@PolyMesh@easy3d@@@easy3d@@UEBAPEAVBasePropertyArray@2@XZ
	?clone@?$PropertyArray@UFace@SurfaceMesh@easy3d@@@easy3d@@UEBAPEAVBasePropertyArray@2@XZ
	?clone@?$PropertyArray@UFaceConnectivity@SurfaceMesh@easy3d@@@easy3d@@UEBAPEAVBasePropertyArray@2@XZ
	?clone@?$PropertyArray@UHalfFaceConnectivity@PolyMesh@easy3d@@@easy3d@@UEBAPEAVBasePropertyArray@2@XZ
	?clone@?$PropertyArray@UHalfedge@SurfaceMesh@easy3d@@@easy3d@@UEBAPEAVBasePropertyArray@2@XZ
	?clone@?$PropertyArray@UHalfedgeConnectivity@SurfaceMesh@easy3d@@@easy3d@@UEBAPEAVBasePropertyArray@2@XZ
	?clone@?$PropertyArray@UVertex@PointCloud@easy3d@@@easy3d@@UEBAPEAVBasePropertyArray@2@XZ
	?clone@?$PropertyArray@UVertex@SurfaceMesh@easy3d@@@easy3d@@UEBAPEAVBasePropertyArray@2@XZ
	?clone@?$PropertyArray@UVertexConnectivity@Graph@easy3d@@@easy3d@@UEBAPEAVBasePropertyArray@2@XZ
	?clone@?$PropertyArray@UVertexConnectivity@PolyMesh@easy3d@@@easy3d@@UEBAPEAVBasePropertyArray@2@XZ
	?clone@?$PropertyArray@UVertexConnectivity@SurfaceMesh@easy3d@@@easy3d@@UEBAPEAVBasePropertyArray@2@XZ
	?clone@?$PropertyArray@V?$Vec@$02M@easy3d@@@easy3d@@UEBAPEAVBasePropertyArray@2@XZ
	?clone@?$PropertyArray@_N@easy3d@@UEBAPEAVBasePropertyArray@2@XZ
	?collapse@SurfaceMesh@easy3d@@QEAAXUHalfedge@12@@Z
	?collect_garbage@Graph@easy3d@@QEAAXXZ
	?collect_garbage@PointCloud@easy3d@@QEAAXXZ
	?collect_garbage@SurfaceMesh@easy3d@@QEAAXXZ
	?compute@?$JacobiSVD@V?$Matrix@N$0?0$0?0$0A@$0?0$0?0@Eigen@@$01@Eigen@@QEAAAEAV12@AEBV?$Matrix@N$0?0$0?0$0A@$0?0$0?0@2@I@Z
	?compute@?$PartialPivLU@V?$Matrix@N$0?0$0?0$0A@$0?0$0?0@Eigen@@@Eigen@@IEAAXXZ
	?computeInPlace@?$ColPivHouseholderQR@V?$Matrix@N$0?0$0?0$0A@$0?0$0?0@Eigen@@@Eigen@@IEAAXXZ
	?computeU@?$SVDBase@V?$JacobiSVD@V?$Matrix@N$0?0$0?0$0A@$0?0$0?0@Eigen@@$01@Eigen@@@Eigen@@QEBA_NXZ
	?computeV@?$SVDBase@V?$JacobiSVD@V?$Matrix@N$0?0$0?0$0A@$0?0$0?0@Eigen@@$01@Eigen@@@Eigen@@QEBA_NXZ
	?compute_face_normal@PolyMesh@easy3d@@QEBA?AV?$Vec@$02M@2@UFace@12@@Z
	?compute_face_normal@SurfaceMesh@easy3d@@QEBA?AV?$Vec@$02M@2@UFace@12@@Z
	?compute_vertex_normal@SurfaceMesh@easy3d@@QEBA?AV?$Vec@$02M@2@UVertex@12@@Z
	?copy@?$PropertyArray@UCellConnectivity@PolyMesh@easy3d@@@easy3d@@UEAAX_K0@Z
	?copy@?$PropertyArray@UEdgeConnectivity@Graph@easy3d@@@easy3d@@UEAAX_K0@Z
	?copy@?$PropertyArray@UEdgeConnectivity@PolyMesh@easy3d@@@easy3d@@UEAAX_K0@Z
	?copy@?$PropertyArray@UFace@SurfaceMesh@easy3d@@@easy3d@@UEAAX_K0@Z
	?copy@?$PropertyArray@UFaceConnectivity@SurfaceMesh@easy3d@@@easy3d@@UEAAX_K0@Z
	?copy@?$PropertyArray@UHalfFaceConnectivity@PolyMesh@easy3d@@@easy3d@@UEAAX_K0@Z
	?copy@?$PropertyArray@UHalfedge@SurfaceMesh@easy3d@@@easy3d@@UEAAX_K0@Z
	?copy@?$PropertyArray@UHalfedgeConnectivity@SurfaceMesh@easy3d@@@easy3d@@UEAAX_K0@Z
	?copy@?$PropertyArray@UVertex@PointCloud@easy3d@@@easy3d@@UEAAX_K0@Z
	?copy@?$PropertyArray@UVertex@SurfaceMesh@easy3d@@@easy3d@@UEAAX_K0@Z
	?copy@?$PropertyArray@UVertexConnectivity@Graph@easy3d@@@easy3d@@UEAAX_K0@Z
	?copy@?$PropertyArray@UVertexConnectivity@PolyMesh@easy3d@@@easy3d@@UEAAX_K0@Z
	?copy@?$PropertyArray@UVertexConnectivity@SurfaceMesh@easy3d@@@easy3d@@UEAAX_K0@Z
	?copy@?$PropertyArray@V?$Vec@$02M@easy3d@@@easy3d@@UEAAX_K0@Z
	?copy@?$PropertyArray@_N@easy3d@@UEAAX_K0@Z
	?copy_vertex@SurfaceMeshBuilder@easy3d@@AEAA?AUVertex@SurfaceMesh@2@U342@@Z
	?deallocate@?$allocator@D@std@@QEAAXQEAD_K@Z
	?deallocate@?$allocator@H@std@@QEAAXQEAH_K@Z
	?deallocate@?$allocator@I@std@@QEAAXQEAI_K@Z
	?deallocate@?$allocator@N@std@@QEAAXQEAN_K@Z
	?deallocate@?$allocator@PEAVBasePropertyArray@easy3d@@@std@@QEAAXQEAPEAVBasePropertyArray@easy3d@@_K@Z
	?deallocate@?$allocator@U?$pair@UHalfedge@SurfaceMesh@easy3d@@U123@@std@@@std@@QEAAXQEAU?$pair@UHalfedge@SurfaceMesh@easy3d@@U123@@2@_K@Z
	?deallocate@?$allocator@UCellConnectivity@PolyMesh@easy3d@@@std@@QEAAXQEAUCellConnectivity@PolyMesh@easy3d@@_K@Z
	?deallocate@?$allocator@UEdge@Graph@easy3d@@@std@@QEAAXQEAUEdge@Graph@easy3d@@_K@Z
	?deallocate@?$allocator@UEdge@SurfaceMesh@easy3d@@@std@@QEAAXQEAUEdge@SurfaceMesh@easy3d@@_K@Z
	?deallocate@?$allocator@UEdgeConnectivity@Graph@easy3d@@@std@@QEAAXQEAUEdgeConnectivity@Graph@easy3d@@_K@Z
	?deallocate@?$allocator@UEdgeConnectivity@PolyMesh@easy3d@@@std@@QEAAXQEAUEdgeConnectivity@PolyMesh@easy3d@@_K@Z
	?deallocate@?$allocator@UFace@SurfaceMesh@easy3d@@@std@@QEAAXQEAUFace@SurfaceMesh@easy3d@@_K@Z
	?deallocate@?$allocator@UFaceConnectivity@SurfaceMesh@easy3d@@@std@@QEAAXQEAUFaceConnectivity@SurfaceMesh@easy3d@@_K@Z
	?deallocate@?$allocator@UHalfFace@PolyMesh@easy3d@@@std@@QEAAXQEAUHalfFace@PolyMesh@easy3d@@_K@Z
	?deallocate@?$allocator@UHalfFaceConnectivity@PolyMesh@easy3d@@@std@@QEAAXQEAUHalfFaceConnectivity@PolyMesh@easy3d@@_K@Z
	?deallocate@?$allocator@UHalfedge@SurfaceMesh@easy3d@@@std@@QEAAXQEAUHalfedge@SurfaceMesh@easy3d@@_K@Z
	?deallocate@?$allocator@UHalfedgeConnectivity@SurfaceMesh@easy3d@@@std@@QEAAXQEAUHalfedgeConnectivity@SurfaceMesh@easy3d@@_K@Z
	?deallocate@?$allocator@UVertex@PointCloud@easy3d@@@std@@QEAAXQEAUVertex@PointCloud@easy3d@@_K@Z
	?deallocate@?$allocator@UVertex@PolyMesh@easy3d@@@std@@QEAAXQEAUVertex@PolyMesh@easy3d@@_K@Z
	?deallocate@?$allocator@UVertex@SurfaceMesh@easy3d@@@std@@QEAAXQEAUVertex@SurfaceMesh@easy3d@@_K@Z
	?deallocate@?$allocator@UVertexConnectivity@Graph@easy3d@@@std@@QEAAXQEAUVertexConnectivity@Graph@easy3d@@_K@Z
	?deallocate@?$allocator@UVertexConnectivity@PolyMesh@easy3d@@@std@@QEAAXQEAUVertexConnectivity@PolyMesh@easy3d@@_K@Z
	?deallocate@?$allocator@UVertexConnectivity@SurfaceMesh@easy3d@@@std@@QEAAXQEAUVertexConnectivity@SurfaceMesh@easy3d@@_K@Z
	?deallocate@?$allocator@V?$Vec@$02M@easy3d@@@std@@QEAAXQEAV?$Vec@$02M@easy3d@@_K@Z
	?deallocate@?$allocator@V?$basic_string@DU?$char_traits@D@std@@V?$allocator@D@2@@std@@@std@@QEAAXQEAV?$basic_string@DU?$char_traits@D@std@@V?$allocator@D@2@@2@_K@Z
	?deallocate@?$allocator@V?$vector@UVertex@PolyMesh@easy3d@@V?$allocator@UVertex@PolyMesh@easy3d@@@std@@@std@@@std@@QEAAXQEAV?$vector@UVertex@PolyMesh@easy3d@@V?$allocator@UVertex@PolyMesh@easy3d@@@std@@@2@_K@Z
	?delete_edge@Graph@easy3d@@QEAAXUEdge@12@@Z
	?delete_edge@SurfaceMesh@easy3d@@QEAAXUEdge@12@@Z
	?delete_face@SurfaceMesh@easy3d@@QEAAXUFace@12@@Z
	?delete_vertex@Graph@easy3d@@QEAAXUVertex@12@@Z
	?delete_vertex@PointCloud@easy3d@@QEAAXUVertex@12@@Z
	?delete_vertex@SurfaceMesh@easy3d@@QEAAXUVertex@12@@Z
	?destroy@?$Matrix@N@easy3d@@AEAAXXZ
	?determinant@?$PartialPivLU@V?$Matrix@N$0?0$0?0$0A@$0?0$0?0@Eigen@@@Eigen@@QEBANXZ
	?determinant@easy3d@@YANAEBV?$Matrix@N@1@@Z
	?edge_length@Graph@easy3d@@QEBAMUEdge@12@@Z
	?edge_length@PolyMesh@easy3d@@QEBAMUEdge@12@@Z
	?edge_length@SurfaceMesh@easy3d@@QEBAMUEdge@12@@Z
	?edge_length@SurfaceMesh@easy3d@@QEBAMUHalfedge@12@@Z
	?edges@SurfaceMesh@easy3d@@QEBA?AVEdgeContainer@12@XZ
	?empty_clone@?$PropertyArray@UCellConnectivity@PolyMesh@easy3d@@@easy3d@@UEBAPEAVBasePropertyArray@2@XZ
	?empty_clone@?$PropertyArray@UEdgeConnectivity@Graph@easy3d@@@easy3d@@UEBAPEAVBasePropertyArray@2@XZ
	?empty_clone@?$PropertyArray@UEdgeConnectivity@PolyMesh@easy3d@@@easy3d@@UEBAPEAVBasePropertyArray@2@XZ
	?empty_clone@?$PropertyArray@UFace@SurfaceMesh@easy3d@@@easy3d@@UEBAPEAVBasePropertyArray@2@XZ
	?empty_clone@?$PropertyArray@UFaceConnectivity@SurfaceMesh@easy3d@@@easy3d@@UEBAPEAVBasePropertyArray@2@XZ
	?empty_clone@?$PropertyArray@UHalfFaceConnectivity@PolyMesh@easy3d@@@easy3d@@UEBAPEAVBasePropertyArray@2@XZ
	?empty_clone@?$PropertyArray@UHalfedge@SurfaceMesh@easy3d@@@easy3d@@UEBAPEAVBasePropertyArray@2@XZ
	?empty_clone@?$PropertyArray@UHalfedgeConnectivity@SurfaceMesh@easy3d@@@easy3d@@UEBAPEAVBasePropertyArray@2@XZ
	?empty_clone@?$PropertyArray@UVertex@PointCloud@easy3d@@@easy3d@@UEBAPEAVBasePropertyArray@2@XZ
	?empty_clone@?$PropertyArray@UVertex@SurfaceMesh@easy3d@@@easy3d@@UEBAPEAVBasePropertyArray@2@XZ
	?empty_clone@?$PropertyArray@UVertexConnectivity@Graph@easy3d@@@easy3d@@UEBAPEAVBasePropertyArray@2@XZ
	?empty_clone@?$PropertyArray@UVertexConnectivity@PolyMesh@easy3d@@@easy3d@@UEBAPEAVBasePropertyArray@2@XZ
	?empty_clone@?$PropertyArray@UVertexConnectivity@SurfaceMesh@easy3d@@@easy3d@@UEBAPEAVBasePropertyArray@2@XZ
	?empty_clone@?$PropertyArray@V?$Vec@$02M@easy3d@@@easy3d@@UEBAPEAVBasePropertyArray@2@XZ
	?empty_clone@?$PropertyArray@_N@easy3d@@UEBAPEAVBasePropertyArray@2@XZ
	?end_surface@SurfaceMeshBuilder@easy3d@@QEAAX_N@Z
	?erase@?$vector@_NV?$allocator@_N@std@@@std@@QEAA?AV?$_Vb_iterator@U?$_Wrap_alloc@V?$allocator@I@std@@@std@@@2@V?$_Vb_const_iterator@U?$_Wrap_alloc@V?$allocator@I@std@@@std@@@2@0@Z
	?extract_boundary@PolyMesh@easy3d@@QEBAXAEAV?$vector@V?$vector@UVertex@PolyMesh@easy3d@@V?$allocator@UVertex@PolyMesh@easy3d@@@std@@@std@@V?$allocator@V?$vector@UVertex@PolyMesh@easy3d@@V?$allocator@UVertex@PolyMesh@easy3d@@@std@@@std@@@2@@std@@@Z
	?faces@SurfaceMesh@easy3d@@QEBA?AVFaceContainer@12@XZ
	?find_edge@Graph@easy3d@@QEBA?AUEdge@12@UVertex@12@0@Z
	?find_edge@PolyMesh@easy3d@@QEBA?AUEdge@12@UVertex@12@0@Z
	?find_edge@SurfaceMesh@easy3d@@QEBA?AUEdge@12@UVertex@12@0@Z
	?find_half_face@PolyMesh@easy3d@@QEBA?AUHalfFace@12@AEBV?$vector@UVertex@PolyMesh@easy3d@@V?$allocator@UVertex@PolyMesh@easy3d@@@std@@@std@@@Z
	?find_halfedge@SurfaceMesh@easy3d@@QEBA?AUHalfedge@12@UVertex@12@0@Z
	?flip@SurfaceMesh@easy3d@@QEAAXUEdge@12@@Z
	?get@SurfaceMeshBuilder@easy3d@@AEAA?AUVertex@SurfaceMesh@2@U342@@Z
	?getCounter@RegisteredHitCounters@base@el@@QEAAPEBVHitCounter@23@PEBDK@Z
	?halfedges@SurfaceMesh@easy3d@@QEBA?AVHalfedgeContainer@12@XZ
	?householderQ@?$ColPivHouseholderQR@V?$Matrix@N$0?0$0?0$0A@$0?0$0?0@Eigen@@@Eigen@@QEBA?AV?$HouseholderSequence@V?$Matrix@N$0?0$0?0$0A@$0?0$0?0@Eigen@@V?$Matrix@N$0?0$00$0A@$0?0$00@2@$00@2@XZ
	?imbue@?$basic_filebuf@DU?$char_traits@D@std@@@std@@MEAAXAEBVlocale@2@@Z
	?init@?$Matrix@N@easy3d@@AEAAXHH@Z
	?insert_edge@SurfaceMesh@easy3d@@QEAA?AUHalfedge@12@U312@0@Z
	?insert_vertex@SurfaceMesh@easy3d@@QEAA?AUHalfedge@12@U312@UVertex@12@@Z
	?invalidate_bounding_box@Model@easy3d@@QEAAXXZ
	?inverse@easy3d@@YA?AV?$Matrix@N@1@AEBV21@@Z
	?inverse@easy3d@@YA_NAEBV?$Matrix@N@1@AEAV21@@Z
	?is_closed@SurfaceMesh@easy3d@@QEBA_NXZ
	?is_collapse_ok@SurfaceMesh@easy3d@@QEBA_NUHalfedge@12@@Z
	?is_degenerate@PolyMesh@easy3d@@QEBA_NUFace@12@@Z
	?is_degenerate@SurfaceMesh@easy3d@@QEBA_NUFace@12@@Z
	?is_flip_ok@SurfaceMesh@easy3d@@QEBA_NUEdge@12@@Z
	?is_isolated@SurfaceMesh@easy3d@@QEBA_NUVertex@12@@Z
	?is_quad_mesh@SurfaceMesh@easy3d@@QEBA_NXZ
	?is_stitch_ok@SurfaceMesh@easy3d@@QEAA_NUHalfedge@12@0@Z
	?is_tetraheral_mesh@PolyMesh@easy3d@@QEBA_NXZ
	?is_triangle_mesh@SurfaceMesh@easy3d@@QEBA_NXZ
	?is_valid@SurfaceMesh@easy3d@@QEBA_NUEdge@12@@Z
	?is_valid@SurfaceMesh@easy3d@@QEBA_NUFace@12@@Z
	?is_valid@SurfaceMesh@easy3d@@QEBA_NUVertex@12@@Z
	?join@PointCloud@easy3d@@QEAAAEAV12@AEBV12@@Z
	?join@SurfaceMesh@easy3d@@QEAAAEAV12@AEBV12@@Z
	?join_edges@SurfaceMesh@easy3d@@QEAA_NUVertex@12@@Z
	?lock@_Mutex_base@std@@QEAAXXZ
	?makeHouseholderInPlace@?$MatrixBase@V?$Block@V?$Block@V?$Matrix@N$0?0$0?0$0A@$0?0$0?0@Eigen@@$0?0$00$00@Eigen@@$0?0$00$0A@@Eigen@@@Eigen@@QEAAXAEAN0@Z
	?makeJacobi@?$JacobiRotation@N@Eigen@@QEAA_NAEBN00@Z
	?new_edge@SurfaceMesh@easy3d@@AEAA?AUHalfedge@12@UVertex@12@0@Z
	?noalias@?$MatrixBase@V?$Block@V?$Block@V?$Matrix@N$0?0$00$0A@$0?0$00@Eigen@@$0?0$0?0$0A@@Eigen@@$0?0$0?0$0A@@Eigen@@@Eigen@@QEAA?AV?$NoAlias@V?$Block@V?$Block@V?$Matrix@N$0?0$00$0A@$0?0$00@Eigen@@$0?0$0?0$0A@@Eigen@@$0?0$0?0$0A@@Eigen@@VMatrixBase@2@@2@XZ
	?noalias@?$MatrixBase@V?$Block@V?$Block@V?$Matrix@N$0?0$0?0$00$0?0$0?0@Eigen@@$00$0?0$00@Eigen@@$00$0?0$0A@@Eigen@@@Eigen@@QEAA?AV?$NoAlias@V?$Block@V?$Block@V?$Matrix@N$0?0$0?0$00$0?0$0?0@Eigen@@$00$0?0$00@Eigen@@$00$0?0$0A@@Eigen@@VMatrixBase@2@@2@XZ
	?noalias@?$MatrixBase@V?$Block@V?$Block@V?$Matrix@N$0?0$0?0$0A@$0?0$0?0@Eigen@@$0?0$0?0$0A@@Eigen@@$0?0$0?0$0A@@Eigen@@@Eigen@@QEAA?AV?$NoAlias@V?$Block@V?$Block@V?$Matrix@N$0?0$0?0$0A@$0?0$0?0@Eigen@@$0?0$0?0$0A@@Eigen@@$0?0$0?0$0A@@Eigen@@VMatrixBase@2@@2@XZ
	?noalias@?$MatrixBase@V?$Block@V?$Matrix@N$0?0$00$0A@$0?0$00@Eigen@@$0?0$0?0$0A@@Eigen@@@Eigen@@QEAA?AV?$NoAlias@V?$Block@V?$Matrix@N$0?0$00$0A@$0?0$00@Eigen@@$0?0$0?0$0A@@Eigen@@VMatrixBase@2@@2@XZ
	?noalias@?$MatrixBase@V?$Block@V?$Matrix@N$0?0$0?0$0A@$0?0$0?0@Eigen@@$0?0$0?0$0A@@Eigen@@@Eigen@@QEAA?AV?$NoAlias@V?$Block@V?$Matrix@N$0?0$0?0$0A@$0?0$0?0@Eigen@@$0?0$0?0$0A@@Eigen@@VMatrixBase@2@@2@XZ
	?noalias@?$MatrixBase@V?$Block@V?$Ref@V?$Matrix@N$0?0$0?0$0A@$0?0$0?0@Eigen@@$0A@V?$OuterStride@$0?0@2@@Eigen@@$0?0$0?0$0A@@Eigen@@@Eigen@@QEAA?AV?$NoAlias@V?$Block@V?$Ref@V?$Matrix@N$0?0$0?0$0A@$0?0$0?0@Eigen@@$0A@V?$OuterStride@$0?0@2@@Eigen@@$0?0$0?0$0A@@Eigen@@VMatrixBase@2@@2@XZ
	?noalias@?$MatrixBase@V?$Map@V?$Matrix@N$00$0?0$00$00$00@Eigen@@$0A@V?$Stride@$0A@$0A@@2@@Eigen@@@Eigen@@QEAA?AV?$NoAlias@V?$Map@V?$Matrix@N$00$0?0$00$00$00@Eigen@@$0A@V?$Stride@$0A@$0A@@2@@Eigen@@VMatrixBase@2@@2@XZ
	?noalias@?$MatrixBase@V?$Map@V?$Matrix@N$00$0?0$00$00$0?0@Eigen@@$0A@V?$Stride@$0A@$0A@@2@@Eigen@@@Eigen@@QEAA?AV?$NoAlias@V?$Map@V?$Matrix@N$00$0?0$00$00$0?0@Eigen@@$0A@V?$Stride@$0A@$0A@@2@@Eigen@@VMatrixBase@2@@2@XZ
	?noalias@?$MatrixBase@V?$Map@V?$Matrix@N$0?0$00$0A@$0?0$00@Eigen@@$0A@V?$Stride@$0A@$0A@@2@@Eigen@@@Eigen@@QEAA?AV?$NoAlias@V?$Map@V?$Matrix@N$0?0$00$0A@$0?0$00@Eigen@@$0A@V?$Stride@$0A@$0A@@2@@Eigen@@VMatrixBase@2@@2@XZ
	?noalias@?$MatrixBase@V?$Ref@V?$Matrix@N$0?0$0?0$0A@$0?0$0?0@Eigen@@$0A@V?$OuterStride@$0?0@2@@Eigen@@@Eigen@@QEAA?AV?$NoAlias@V?$Ref@V?$Matrix@N$0?0$0?0$0A@$0?0$0?0@Eigen@@$0A@V?$OuterStride@$0?0@2@@Eigen@@VMatrixBase@2@@2@XZ
	?normalize@?$Vec@$02M@easy3d@@QEAAAEAV12@XZ
	?open@?$basic_filebuf@DU?$char_traits@D@std@@@std@@QEAAPEAV12@PEBDHH@Z
	?opposite@SurfaceMesh@easy3d@@QEBA?AUHalfedge@12@U312@@Z
	?out_halfedge@SurfaceMesh@easy3d@@QEBA?AUHalfedge@12@UVertex@12@@Z
	?overflow@?$basic_filebuf@DU?$char_traits@D@std@@@std@@MEAAHH@Z
	?pbackfail@?$basic_filebuf@DU?$char_traits@D@std@@@std@@MEAAHH@Z
	?points@Graph@easy3d@@$4PPPPPPPM@A@EAAAEAV?$vector@V?$Vec@$02M@easy3d@@V?$allocator@V?$Vec@$02M@easy3d@@@std@@@std@@XZ
	?points@Graph@easy3d@@$4PPPPPPPM@A@EBAAEBV?$vector@V?$Vec@$02M@easy3d@@V?$allocator@V?$Vec@$02M@easy3d@@@std@@@std@@XZ
	?points@Graph@easy3d@@UEAAAEAV?$vector@V?$Vec@$02M@easy3d@@V?$allocator@V?$Vec@$02M@easy3d@@@std@@@std@@XZ
	?points@Graph@easy3d@@UEBAAEBV?$vector@V?$Vec@$02M@easy3d@@V?$allocator@V?$Vec@$02M@easy3d@@@std@@@std@@XZ
	?points@PointCloud@easy3d@@$4PPPPPPPM@A@EAAAEAV?$vector@V?$Vec@$02M@easy3d@@V?$allocator@V?$Vec@$02M@easy3d@@@std@@@std@@XZ
	?points@PointCloud@easy3d@@$4PPPPPPPM@A@EBAAEBV?$vector@V?$Vec@$02M@easy3d@@V?$allocator@V?$Vec@$02M@easy3d@@@std@@@std@@XZ
	?points@PointCloud@easy3d@@UEAAAEAV?$vector@V?$Vec@$02M@easy3d@@V?$allocator@V?$Vec@$02M@easy3d@@@std@@@std@@XZ
	?points@PointCloud@easy3d@@UEBAAEBV?$vector@V?$Vec@$02M@easy3d@@V?$allocator@V?$Vec@$02M@easy3d@@@std@@@std@@XZ
	?points@PolyMesh@easy3d@@$4PPPPPPPM@A@EAAAEAV?$vector@V?$Vec@$02M@easy3d@@V?$allocator@V?$Vec@$02M@easy3d@@@std@@@std@@XZ
	?points@PolyMesh@easy3d@@$4PPPPPPPM@A@EBAAEBV?$vector@V?$Vec@$02M@easy3d@@V?$allocator@V?$Vec@$02M@easy3d@@@std@@@std@@XZ
	?points@PolyMesh@easy3d@@UEAAAEAV?$vector@V?$Vec@$02M@easy3d@@V?$allocator@V?$Vec@$02M@easy3d@@@std@@@std@@XZ
	?points@PolyMesh@easy3d@@UEBAAEBV?$vector@V?$Vec@$02M@easy3d@@V?$allocator@V?$Vec@$02M@easy3d@@@std@@@std@@XZ
	?points@SurfaceMesh@easy3d@@$4PPPPPPPM@A@EAAAEAV?$vector@V?$Vec@$02M@easy3d@@V?$allocator@V?$Vec@$02M@easy3d@@@std@@@std@@XZ
	?points@SurfaceMesh@easy3d@@$4PPPPPPPM@A@EBAAEBV?$vector@V?$Vec@$02M@easy3d@@V?$allocator@V?$Vec@$02M@easy3d@@@std@@@std@@XZ
	?points@SurfaceMesh@easy3d@@UEAAAEAV?$vector@V?$Vec@$02M@easy3d@@V?$allocator@V?$Vec@$02M@easy3d@@@std@@@std@@XZ
	?points@SurfaceMesh@easy3d@@UEBAAEBV?$vector@V?$Vec@$02M@easy3d@@V?$allocator@V?$Vec@$02M@easy3d@@@std@@@std@@XZ
	?properties@PropertyContainer@easy3d@@QEBA?AV?$vector@V?$basic_string@DU?$char_traits@D@std@@V?$allocator@D@2@@std@@V?$allocator@V?$basic_string@DU?$char_traits@D@std@@V?$allocator@D@2@@std@@@2@@std@@XZ
	?property_stats@Graph@easy3d@@$4PPPPPPPM@A@EBAXAEAV?$basic_ostream@DU?$char_traits@D@std@@@std@@@Z
	?property_stats@Graph@easy3d@@UEBAXAEAV?$basic_ostream@DU?$char_traits@D@std@@@std@@@Z
	?property_stats@Model@easy3d@@UEBAXAEAV?$basic_ostream@DU?$char_traits@D@std@@@std@@@Z
	?property_stats@PointCloud@easy3d@@$4PPPPPPPM@A@EBAXAEAV?$basic_ostream@DU?$char_traits@D@std@@@std@@@Z
	?property_stats@PointCloud@easy3d@@UEBAXAEAV?$basic_ostream@DU?$char_traits@D@std@@@std@@@Z
	?property_stats@PolyMesh@easy3d@@$4PPPPPPPM@A@EBAXAEAV?$basic_ostream@DU?$char_traits@D@std@@@std@@@Z
	?property_stats@PolyMesh@easy3d@@UEBAXAEAV?$basic_ostream@DU?$char_traits@D@std@@@std@@@Z
	?property_stats@SurfaceMesh@easy3d@@$4PPPPPPPM@A@EBAXAEAV?$basic_ostream@DU?$char_traits@D@std@@@std@@@Z
	?property_stats@SurfaceMesh@easy3d@@UEBAXAEAV?$basic_ostream@DU?$char_traits@D@std@@@std@@@Z
	?push_back@?$PropertyArray@UCellConnectivity@PolyMesh@easy3d@@@easy3d@@UEAAXXZ
	?push_back@?$PropertyArray@UEdgeConnectivity@Graph@easy3d@@@easy3d@@UEAAXXZ
	?push_back@?$PropertyArray@UEdgeConnectivity@PolyMesh@easy3d@@@easy3d@@UEAAXXZ
	?push_back@?$PropertyArray@UFace@SurfaceMesh@easy3d@@@easy3d@@UEAAXXZ
	?push_back@?$PropertyArray@UFaceConnectivity@SurfaceMesh@easy3d@@@easy3d@@UEAAXXZ
	?push_back@?$PropertyArray@UHalfFaceConnectivity@PolyMesh@easy3d@@@easy3d@@UEAAXXZ
	?push_back@?$PropertyArray@UHalfedge@SurfaceMesh@easy3d@@@easy3d@@UEAAXXZ
	?push_back@?$PropertyArray@UHalfedgeConnectivity@SurfaceMesh@easy3d@@@easy3d@@UEAAXXZ
	?push_back@?$PropertyArray@UVertex@PointCloud@easy3d@@@easy3d@@UEAAXXZ
	?push_back@?$PropertyArray@UVertex@SurfaceMesh@easy3d@@@easy3d@@UEAAXXZ
	?push_back@?$PropertyArray@UVertexConnectivity@Graph@easy3d@@@easy3d@@UEAAXXZ
	?push_back@?$PropertyArray@UVertexConnectivity@PolyMesh@easy3d@@@easy3d@@UEAAXXZ
	?push_back@?$PropertyArray@UVertexConnectivity@SurfaceMesh@easy3d@@@easy3d@@UEAAXXZ
	?push_back@?$PropertyArray@V?$Vec@$02M@easy3d@@@easy3d@@UEAAXXZ
	?push_back@?$PropertyArray@_N@easy3d@@UEAAXXZ
	?push_back@?$vector@_NV?$allocator@_N@std@@@std@@QEAAXAEB_N@Z
	?push_back@PropertyContainer@easy3d@@QEAAXXZ
	?queryCacheSizes_intel_codes@internal@Eigen@@YAXAEAH00@Z
	?read@CellConnectivity@PolyMesh@easy3d@@QEAAXAEAV?$basic_istream@DU?$char_traits@D@std@@@std@@@Z
	?read@EdgeConnectivity@PolyMesh@easy3d@@QEAAXAEAV?$basic_istream@DU?$char_traits@D@std@@@std@@@Z
	?read@HalfFaceConnectivity@PolyMesh@easy3d@@QEAAXAEAV?$basic_istream@DU?$char_traits@D@std@@@std@@@Z
	?read@PolyMesh@easy3d@@QEAA_NAEBV?$basic_string@DU?$char_traits@D@std@@V?$allocator@D@2@@std@@@Z
	?read@SurfaceMesh@easy3d@@QEAA_NAEBV?$basic_string@DU?$char_traits@D@std@@V?$allocator@D@2@@std@@@Z
	?read@VertexConnectivity@PolyMesh@easy3d@@QEAAXAEAV?$basic_istream@DU?$char_traits@D@std@@@std@@@Z
	?remove_edge@SurfaceMesh@easy3d@@AEAAXUHalfedge@12@@Z
	?remove_loop@SurfaceMesh@easy3d@@AEAAXUHalfedge@12@@Z
	?renderer@Model@easy3d@@QEAAPEAVRenderer@2@XZ
	?renderer@Model@easy3d@@QEBAPEBVRenderer@2@XZ
	?reserve@?$PropertyArray@UCellConnectivity@PolyMesh@easy3d@@@easy3d@@UEAAX_K@Z
	?reserve@?$PropertyArray@UEdgeConnectivity@Graph@easy3d@@@easy3d@@UEAAX_K@Z
	?reserve@?$PropertyArray@UEdgeConnectivity@PolyMesh@easy3d@@@easy3d@@UEAAX_K@Z
	?reserve@?$PropertyArray@UFace@SurfaceMesh@easy3d@@@easy3d@@UEAAX_K@Z
	?reserve@?$PropertyArray@UFaceConnectivity@SurfaceMesh@easy3d@@@easy3d@@UEAAX_K@Z
	?reserve@?$PropertyArray@UHalfFaceConnectivity@PolyMesh@easy3d@@@easy3d@@UEAAX_K@Z
	?reserve@?$PropertyArray@UHalfedge@SurfaceMesh@easy3d@@@easy3d@@UEAAX_K@Z
	?reserve@?$PropertyArray@UHalfedgeConnectivity@SurfaceMesh@easy3d@@@easy3d@@UEAAX_K@Z
	?reserve@?$PropertyArray@UVertex@PointCloud@easy3d@@@easy3d@@UEAAX_K@Z
	?reserve@?$PropertyArray@UVertex@SurfaceMesh@easy3d@@@easy3d@@UEAAX_K@Z
	?reserve@?$PropertyArray@UVertexConnectivity@Graph@easy3d@@@easy3d@@UEAAX_K@Z
	?reserve@?$PropertyArray@UVertexConnectivity@PolyMesh@easy3d@@@easy3d@@UEAAX_K@Z
	?reserve@?$PropertyArray@UVertexConnectivity@SurfaceMesh@easy3d@@@easy3d@@UEAAX_K@Z
	?reserve@?$PropertyArray@V?$Vec@$02M@easy3d@@@easy3d@@UEAAX_K@Z
	?reserve@?$PropertyArray@_N@easy3d@@UEAAX_K@Z
	?reserve@Graph@easy3d@@QEAAXII@Z
	?reserve@SurfaceMesh@easy3d@@QEAAXIII@Z
	?reset@?$PropertyArray@UCellConnectivity@PolyMesh@easy3d@@@easy3d@@UEAAX_K@Z
	?reset@?$PropertyArray@UEdgeConnectivity@Graph@easy3d@@@easy3d@@UEAAX_K@Z
	?reset@?$PropertyArray@UEdgeConnectivity@PolyMesh@easy3d@@@easy3d@@UEAAX_K@Z
	?reset@?$PropertyArray@UFace@SurfaceMesh@easy3d@@@easy3d@@UEAAX_K@Z
	?reset@?$PropertyArray@UFaceConnectivity@SurfaceMesh@easy3d@@@easy3d@@UEAAX_K@Z
	?reset@?$PropertyArray@UHalfFaceConnectivity@PolyMesh@easy3d@@@easy3d@@UEAAX_K@Z
	?reset@?$PropertyArray@UHalfedge@SurfaceMesh@easy3d@@@easy3d@@UEAAX_K@Z
	?reset@?$PropertyArray@UHalfedgeConnectivity@SurfaceMesh@easy3d@@@easy3d@@UEAAX_K@Z
	?reset@?$PropertyArray@UVertex@PointCloud@easy3d@@@easy3d@@UEAAX_K@Z
	?reset@?$PropertyArray@UVertex@SurfaceMesh@easy3d@@@easy3d@@UEAAX_K@Z
	?reset@?$PropertyArray@UVertexConnectivity@Graph@easy3d@@@easy3d@@UEAAX_K@Z
	?reset@?$PropertyArray@UVertexConnectivity@PolyMesh@easy3d@@@easy3d@@UEAAX_K@Z
	?reset@?$PropertyArray@UVertexConnectivity@SurfaceMesh@easy3d@@@easy3d@@UEAAX_K@Z
	?reset@?$PropertyArray@V?$Vec@$02M@easy3d@@@easy3d@@UEAAX_K@Z
	?reset@?$PropertyArray@_N@easy3d@@UEAAX_K@Z
	?resize@?$DenseStorage@N$0?0$0?0$0?0$00@Eigen@@QEAAX_J00@Z
	?resize@?$DenseStorage@N$0?0$0?0$0?0$0A@@Eigen@@QEAAX_J00@Z
	?resize@?$Matrix@N@easy3d@@QEAAAEAV12@HH@Z
	?resize@?$PlainObjectBase@V?$Matrix@N$00$0?0$00$00$0?0@Eigen@@@Eigen@@QEAAX_J@Z
	?resize@?$PlainObjectBase@V?$Matrix@N$0?0$00$0A@$0?0$00@Eigen@@@Eigen@@QEAAX_J@Z
	?resize@?$PropertyArray@UCellConnectivity@PolyMesh@easy3d@@@easy3d@@UEAAX_K@Z
	?resize@?$PropertyArray@UEdgeConnectivity@Graph@easy3d@@@easy3d@@UEAAX_K@Z
	?resize@?$PropertyArray@UEdgeConnectivity@PolyMesh@easy3d@@@easy3d@@UEAAX_K@Z
	?resize@?$PropertyArray@UFace@SurfaceMesh@easy3d@@@easy3d@@UEAAX_K@Z
	?resize@?$PropertyArray@UFaceConnectivity@SurfaceMesh@easy3d@@@easy3d@@UEAAX_K@Z
	?resize@?$PropertyArray@UHalfFaceConnectivity@PolyMesh@easy3d@@@easy3d@@UEAAX_K@Z
	?resize@?$PropertyArray@UHalfedge@SurfaceMesh@easy3d@@@easy3d@@UEAAX_K@Z
	?resize@?$PropertyArray@UHalfedgeConnectivity@SurfaceMesh@easy3d@@@easy3d@@UEAAX_K@Z
	?resize@?$PropertyArray@UVertex@PointCloud@easy3d@@@easy3d@@UEAAX_K@Z
	?resize@?$PropertyArray@UVertex@SurfaceMesh@easy3d@@@easy3d@@UEAAX_K@Z
	?resize@?$PropertyArray@UVertexConnectivity@Graph@easy3d@@@easy3d@@UEAAX_K@Z
	?resize@?$PropertyArray@UVertexConnectivity@PolyMesh@easy3d@@@easy3d@@UEAAX_K@Z
	?resize@?$PropertyArray@UVertexConnectivity@SurfaceMesh@easy3d@@@easy3d@@UEAAX_K@Z
	?resize@?$PropertyArray@V?$Vec@$02M@easy3d@@@easy3d@@UEAAX_K@Z
	?resize@?$PropertyArray@_N@easy3d@@UEAAX_K@Z
	?resize@?$vector@PEAVBasePropertyArray@easy3d@@V?$allocator@PEAVBasePropertyArray@easy3d@@@std@@@std@@QEAAX_K@Z
	?resize@?$vector@_NV?$allocator@_N@std@@@std@@QEAAX_K_N@Z
	?resize@PropertyContainer@easy3d@@QEAAX_K@Z
	?resize@SurfaceMesh@easy3d@@QEAAXIII@Z
	?resize_property_array@PropertyContainer@easy3d@@QEAAX_K@Z
	?resolve_non_manifold_vertex@SurfaceMeshBuilder@easy3d@@AEAA_KUHalfedge@SurfaceMesh@2@PEAV42@AEAV?$unordered_map@UVertex@SurfaceMesh@easy3d@@V?$vector@UVertex@SurfaceMesh@easy3d@@V?$allocator@UVertex@SurfaceMesh@easy3d@@@std@@@std@@UHash@BaseHandle@23@U?$equal_to@UVertex@SurfaceMesh@easy3d@@@5@V?$allocator@U?$pair@$$CBUVertex@SurfaceMesh@easy3d@@V?$vector@UVertex@SurfaceMesh@easy3d@@V?$allocator@UVertex@SurfaceMesh@easy3d@@@std@@@std@@@std@@@5@@std@@@Z
	?resolve_non_manifold_vertices@SurfaceMeshBuilder@easy3d@@AEAA_KPEAVSurfaceMesh@2@@Z
	?reverse_orientation@SurfaceMesh@easy3d@@QEAAXXZ
	?run@?$Assignment@V?$Matrix@N$0?0$0?0$0A@$0?0$0?0@Eigen@@V?$Inverse@V?$Matrix@N$0?0$0?0$0A@$0?0$0?0@Eigen@@@2@U?$assign_op@NN@internal@2@UDense2Dense@52@X@internal@Eigen@@SAXAEAV?$Matrix@N$0?0$0?0$0A@$0?0$0?0@3@AEBV?$Inverse@V?$Matrix@N$0?0$0?0$0A@$0?0$0?0@Eigen@@@3@AEBU?$assign_op@NN@23@@Z
	?run@?$Assignment@V?$Matrix@N$0?0$0?0$0A@$0?0$0?0@Eigen@@V?$Solve@V?$PartialPivLU@V?$Matrix@N$0?0$0?0$0A@$0?0$0?0@Eigen@@@Eigen@@V?$CwiseNullaryOp@U?$scalar_identity_op@N@internal@Eigen@@V?$Matrix@N$0?0$0?0$0A@$0?0$0?0@3@@2@@2@U?$assign_op@NN@internal@2@UDense2Dense@52@X@internal@Eigen@@SAXAEAV?$Matrix@N$0?0$0?0$0A@$0?0$0?0@3@AEBV?$Solve@V?$PartialPivLU@V?$Matrix@N$0?0$0?0$0A@$0?0$0?0@Eigen@@@Eigen@@V?$CwiseNullaryOp@U?$scalar_identity_op@N@internal@Eigen@@V?$Matrix@N$0?0$0?0$0A@$0?0$0?0@3@@2@@3@AEBU?$assign_op@NN@23@@Z
	?run@?$Assignment@V?$Matrix@N$0?0$0?0$0A@$0?0$0?0@Eigen@@V?$TriangularView@$$CBV?$Block@$$CBV?$Matrix@N$0?0$0?0$0A@$0?0$0?0@Eigen@@$0?0$0?0$0A@@Eigen@@$01@2@U?$assign_op@NN@internal@2@UTriangular2Dense@52@X@internal@Eigen@@SAXAEAV?$Matrix@N$0?0$0?0$0A@$0?0$0?0@3@AEBV?$TriangularView@$$CBV?$Block@$$CBV?$Matrix@N$0?0$0?0$0A@$0?0$0?0@Eigen@@$0?0$0?0$0A@@Eigen@@$01@3@AEBU?$assign_op@NN@23@@Z
	?run@?$Assignment@V?$Matrix@N$0?0$0?0$0A@$0?0$0?0@Eigen@@V?$TriangularView@$$CBV?$Transpose@$$CBV?$Block@$$CBV?$Matrix@N$0?0$0?0$0A@$0?0$0?0@Eigen@@$0?0$0?0$0A@@Eigen@@@Eigen@@$00@2@U?$assign_op@NN@internal@2@UTriangular2Dense@52@X@internal@Eigen@@SAXAEAV?$Matrix@N$0?0$0?0$0A@$0?0$0?0@3@AEBV?$TriangularView@$$CBV?$Transpose@$$CBV?$Block@$$CBV?$Matrix@N$0?0$0?0$0A@$0?0$0?0@Eigen@@$0?0$0?0$0A@@Eigen@@@Eigen@@$00@3@AEBU?$assign_op@NN@23@@Z
	?run@?$apply_rotation_in_the_plane_selector@NN$0?0$0A@$0A@@internal@Eigen@@SAXPEAN_J011NN@Z
	?run@?$general_matrix_matrix_product@_JN$0A@$0A@N$0A@$0A@$0A@$00@internal@Eigen@@SAX_J00PEBN010PEAN00NAEAV?$level3_blocking@NN@23@PEAU?$GemmParallelInfo@_J@23@@Z
	?run@?$general_matrix_vector_product@_JNV?$const_blas_data_mapper@N_J$00@internal@Eigen@@$00$0A@NV123@$0A@$00@internal@Eigen@@SAX_J0AEBV?$const_blas_data_mapper@N_J$00@23@1PEAN0N@Z
	?run@?$general_matrix_vector_product@_JNV?$const_blas_data_mapper@N_J$00@internal@Eigen@@$00$0A@NV123@$0A@$0A@@internal@Eigen@@SAX_J0AEBV?$const_blas_data_mapper@N_J$00@23@1PEAN0N@Z
	?run@?$general_matrix_vector_product@_JNV?$const_blas_data_mapper@N_J$00@internal@Eigen@@$00$0A@NV?$const_blas_data_mapper@N_J$0A@@23@$0A@$0A@@internal@Eigen@@SAX_J0AEBV?$const_blas_data_mapper@N_J$00@23@AEBV?$const_blas_data_mapper@N_J$0A@@23@PEAN0N@Z
	?run@?$general_matrix_vector_product@_JNV?$const_blas_data_mapper@N_J$0A@@internal@Eigen@@$0A@$0A@NV123@$0A@$0A@@internal@Eigen@@SAX_J0AEBV?$const_blas_data_mapper@N_J$0A@@23@1PEAN0N@Z
	?run@?$general_matrix_vector_product@_JNV?$const_blas_data_mapper@N_J$0A@@internal@Eigen@@$0A@$0A@NV?$const_blas_data_mapper@N_J$00@23@$0A@$0A@@internal@Eigen@@SAX_J0AEBV?$const_blas_data_mapper@N_J$0A@@23@AEBV?$const_blas_data_mapper@N_J$00@23@PEAN0N@Z
	?run@?$product_triangular_matrix_matrix@N_J$00$00$0A@$0A@$0A@$0A@$0A@$00$0A@@internal@Eigen@@SAX_J00PEBN010PEAN00AEBNAEAV?$level3_blocking@NN@23@@Z
	?run@?$product_triangular_matrix_matrix@N_J$01$00$00$0A@$0A@$0A@$0A@$00$0A@@internal@Eigen@@SAX_J00PEBN010PEAN00AEBNAEAV?$level3_blocking@NN@23@@Z
	?run@?$product_triangular_matrix_matrix@N_J$04$00$0A@$0A@$0A@$0A@$0A@$00$0A@@internal@Eigen@@SAX_J00PEBN010PEAN00AEBNAEAV?$level3_blocking@NN@23@@Z
	?run@?$product_triangular_matrix_matrix@N_J$05$00$00$0A@$0A@$0A@$0A@$00$0A@@internal@Eigen@@SAX_J00PEBN010PEAN00AEBNAEAV?$level3_blocking@NN@23@@Z
	?run@?$qr_preconditioner_impl@V?$Matrix@N$0?0$0?0$0A@$0?0$0?0@Eigen@@$01$00$00@internal@Eigen@@QEAA_NAEAV?$JacobiSVD@V?$Matrix@N$0?0$0?0$0A@$0?0$0?0@Eigen@@$01@3@AEBV?$Matrix@N$0?0$0?0$0A@$0?0$0?0@3@@Z
	?run@?$qr_preconditioner_impl@V?$Matrix@N$0?0$0?0$0A@$0?0$0?0@Eigen@@$01$0A@$00@internal@Eigen@@QEAA_NAEAV?$JacobiSVD@V?$Matrix@N$0?0$0?0$0A@$0?0$0?0@Eigen@@$01@3@AEBV?$Matrix@N$0?0$0?0$0A@$0?0$0?0@3@@Z
	?run@?$triangular_assignment_loop@V?$triangular_dense_assignment_kernel@$00$0A@$00U?$evaluator@V?$Matrix@N$0?0$0?0$0A@$0?0$0?0@Eigen@@@internal@Eigen@@U?$evaluator@V?$TriangularView@$$CBV?$Transpose@$$CBV?$Block@$$CBV?$Matrix@N$0?0$0?0$0A@$0?0$0?0@Eigen@@$0?0$0?0$0A@@Eigen@@@Eigen@@$00@Eigen@@@23@U?$assign_op@NN@23@$0A@@internal@Eigen@@$00$0?0$00@internal@Eigen@@SAXAEAV?$triangular_dense_assignment_kernel@$00$0A@$00U?$evaluator@V?$Matrix@N$0?0$0?0$0A@$0?0$0?0@Eigen@@@internal@Eigen@@U?$evaluator@V?$TriangularView@$$CBV?$Transpose@$$CBV?$Block@$$CBV?$Matrix@N$0?0$0?0$0A@$0?0$0?0@Eigen@@$0?0$0?0$0A@@Eigen@@@Eigen@@$00@Eigen@@@23@U?$assign_op@NN@23@$0A@@23@@Z
	?run@?$triangular_assignment_loop@V?$triangular_dense_assignment_kernel@$01$07$0A@U?$evaluator@V?$TriangularView@V?$Matrix@N$0?0$0?0$0A@$0?0$0?0@Eigen@@$09@Eigen@@@internal@Eigen@@U?$evaluator@V?$CwiseNullaryOp@U?$scalar_constant_op@N@internal@Eigen@@V?$Matrix@N$0?0$0?0$0A@$0?0$0?0@3@@Eigen@@@23@U?$assign_op@NN@23@$0A@@internal@Eigen@@$09$0?0$0A@@internal@Eigen@@SAXAEAV?$triangular_dense_assignment_kernel@$01$07$0A@U?$evaluator@V?$TriangularView@V?$Matrix@N$0?0$0?0$0A@$0?0$0?0@Eigen@@$09@Eigen@@@internal@Eigen@@U?$evaluator@V?$CwiseNullaryOp@U?$scalar_constant_op@N@internal@Eigen@@V?$Matrix@N$0?0$0?0$0A@$0?0$0?0@3@@Eigen@@@23@U?$assign_op@NN@23@$0A@@23@@Z
	?run@?$triangular_assignment_loop@V?$triangular_dense_assignment_kernel@$01$0A@$00U?$evaluator@V?$Matrix@N$0?0$0?0$0A@$0?0$0?0@Eigen@@@internal@Eigen@@U?$evaluator@V?$TriangularView@$$CBV?$Block@$$CBV?$Matrix@N$0?0$0?0$0A@$0?0$0?0@Eigen@@$0?0$0?0$0A@@Eigen@@$01@Eigen@@@23@U?$assign_op@NN@23@$0A@@internal@Eigen@@$01$0?0$00@internal@Eigen@@SAXAEAV?$triangular_dense_assignment_kernel@$01$0A@$00U?$evaluator@V?$Matrix@N$0?0$0?0$0A@$0?0$0?0@Eigen@@@internal@Eigen@@U?$evaluator@V?$TriangularView@$$CBV?$Block@$$CBV?$Matrix@N$0?0$0?0$0A@$0?0$0?0@Eigen@@$0?0$0?0$0A@@Eigen@@$01@Eigen@@@23@U?$assign_op@NN@23@$0A@@23@@Z
	?run@?$triangular_matrix_vector_product@_J$05N$0A@N$0A@$00$0A@@internal@Eigen@@SAX_J0PEBN010PEAN0AEBN@Z
	?run@?$triangular_solve_matrix@N_J$00$01$0A@$0A@$0A@$00@internal@Eigen@@SAX_J0PEBN0PEAN00AEAV?$level3_blocking@NN@23@@Z
	?run@?$triangular_solve_matrix@N_J$00$04$0A@$0A@$0A@$00@internal@Eigen@@SAX_J0PEBN0PEAN00AEAV?$level3_blocking@NN@23@@Z
	?run@?$triangular_solve_vector@NN_J$00$01$0A@$0A@@internal@Eigen@@SAX_JPEBN0PEAN@Z
	?seekoff@?$basic_filebuf@DU?$char_traits@D@std@@@std@@MEAA?AV?$fpos@U_Mbstatet@@@2@_JHH@Z
	?seekpos@?$basic_filebuf@DU?$char_traits@D@std@@@std@@MEAA?AV?$fpos@U_Mbstatet@@@2@V32@H@Z
	?setIdentity@?$PermutationBase@V?$PermutationMatrix@$0?0$0?0H@Eigen@@@Eigen@@QEAAX_J@Z
	?setbuf@?$basic_filebuf@DU?$char_traits@D@std@@@std@@MEAAPEAV?$basic_streambuf@DU?$char_traits@D@std@@@2@PEAD_J@Z
	?shrink_to_fit@?$PropertyArray@UCellConnectivity@PolyMesh@easy3d@@@easy3d@@UEAAXXZ
	?shrink_to_fit@?$PropertyArray@UEdgeConnectivity@Graph@easy3d@@@easy3d@@UEAAXXZ
	?shrink_to_fit@?$PropertyArray@UEdgeConnectivity@PolyMesh@easy3d@@@easy3d@@UEAAXXZ
	?shrink_to_fit@?$PropertyArray@UFace@SurfaceMesh@easy3d@@@easy3d@@UEAAXXZ
	?shrink_to_fit@?$PropertyArray@UFaceConnectivity@SurfaceMesh@easy3d@@@easy3d@@UEAAXXZ
	?shrink_to_fit@?$PropertyArray@UHalfFaceConnectivity@PolyMesh@easy3d@@@easy3d@@UEAAXXZ
	?shrink_to_fit@?$PropertyArray@UHalfedge@SurfaceMesh@easy3d@@@easy3d@@UEAAXXZ
	?shrink_to_fit@?$PropertyArray@UHalfedgeConnectivity@SurfaceMesh@easy3d@@@easy3d@@UEAAXXZ
	?shrink_to_fit@?$PropertyArray@UVertex@PointCloud@easy3d@@@easy3d@@UEAAXXZ
	?shrink_to_fit@?$PropertyArray@UVertex@SurfaceMesh@easy3d@@@easy3d@@UEAAXXZ
	?shrink_to_fit@?$PropertyArray@UVertexConnectivity@Graph@easy3d@@@easy3d@@UEAAXXZ
	?shrink_to_fit@?$PropertyArray@UVertexConnectivity@PolyMesh@easy3d@@@easy3d@@UEAAXXZ
	?shrink_to_fit@?$PropertyArray@UVertexConnectivity@SurfaceMesh@easy3d@@@easy3d@@UEAAXXZ
	?shrink_to_fit@?$PropertyArray@V?$Vec@$02M@easy3d@@@easy3d@@UEAAXXZ
	?shrink_to_fit@?$PropertyArray@_N@easy3d@@UEAAXXZ
	?solve_least_squares@easy3d@@YA_NAEBV?$Matrix@N@1@AEBV?$vector@NV?$allocator@N@std@@@std@@AEAV34@@Z
	?source@SurfaceMesh@easy3d@@QEBA?AUVertex@12@UHalfedge@12@@Z
	?split@SurfaceMesh@easy3d@@QEAA?AUHalfedge@12@UEdge@12@UVertex@12@@Z
	?split@SurfaceMesh@easy3d@@QEAAXUFace@12@UVertex@12@@Z
	?stitch@SurfaceMesh@easy3d@@QEAAXUHalfedge@12@0@Z
	?svd_decompose@easy3d@@YAXAEBV?$Matrix@N@1@AEAV21@11@Z
	?swap@?$PropertyArray@UCellConnectivity@PolyMesh@easy3d@@@easy3d@@UEAAX_K0@Z
	?swap@?$PropertyArray@UEdgeConnectivity@Graph@easy3d@@@easy3d@@UEAAX_K0@Z
	?swap@?$PropertyArray@UEdgeConnectivity@PolyMesh@easy3d@@@easy3d@@UEAAX_K0@Z
	?swap@?$PropertyArray@UFace@SurfaceMesh@easy3d@@@easy3d@@UEAAX_K0@Z
	?swap@?$PropertyArray@UFaceConnectivity@SurfaceMesh@easy3d@@@easy3d@@UEAAX_K0@Z
	?swap@?$PropertyArray@UHalfFaceConnectivity@PolyMesh@easy3d@@@easy3d@@UEAAX_K0@Z
	?swap@?$PropertyArray@UHalfedge@SurfaceMesh@easy3d@@@easy3d@@UEAAX_K0@Z
	?swap@?$PropertyArray@UHalfedgeConnectivity@SurfaceMesh@easy3d@@@easy3d@@UEAAX_K0@Z
	?swap@?$PropertyArray@UVertex@PointCloud@easy3d@@@easy3d@@UEAAX_K0@Z
	?swap@?$PropertyArray@UVertex@SurfaceMesh@easy3d@@@easy3d@@UEAAX_K0@Z
	?swap@?$PropertyArray@UVertexConnectivity@Graph@easy3d@@@easy3d@@UEAAX_K0@Z
	?swap@?$PropertyArray@UVertexConnectivity@PolyMesh@easy3d@@@easy3d@@UEAAX_K0@Z
	?swap@?$PropertyArray@UVertexConnectivity@SurfaceMesh@easy3d@@@easy3d@@UEAAX_K0@Z
	?swap@?$PropertyArray@V?$Vec@$02M@easy3d@@@easy3d@@UEAAX_K0@Z
	?swap@?$PropertyArray@_N@easy3d@@UEAAX_K0@Z
	?sync@?$basic_filebuf@DU?$char_traits@D@std@@@std@@MEAAHXZ
	?target@SurfaceMesh@easy3d@@QEBA?AUVertex@12@UHalfedge@12@@Z
	?throw_std_bad_alloc@internal@Eigen@@YAXXZ
	?to_string@std@@YA?AV?$basic_string@DU?$char_traits@D@std@@V?$allocator@D@2@@1@_K@Z
	?transfer@?$PropertyArray@UCellConnectivity@PolyMesh@easy3d@@@easy3d@@UEAA_NAEBVBasePropertyArray@2@@Z
	?transfer@?$PropertyArray@UCellConnectivity@PolyMesh@easy3d@@@easy3d@@UEAA_NAEBVBasePropertyArray@2@_K1@Z
	?transfer@?$PropertyArray@UEdgeConnectivity@Graph@easy3d@@@easy3d@@UEAA_NAEBVBasePropertyArray@2@@Z
	?transfer@?$PropertyArray@UEdgeConnectivity@Graph@easy3d@@@easy3d@@UEAA_NAEBVBasePropertyArray@2@_K1@Z
	?transfer@?$PropertyArray@UEdgeConnectivity@PolyMesh@easy3d@@@easy3d@@UEAA_NAEBVBasePropertyArray@2@@Z
	?transfer@?$PropertyArray@UEdgeConnectivity@PolyMesh@easy3d@@@easy3d@@UEAA_NAEBVBasePropertyArray@2@_K1@Z
	?transfer@?$PropertyArray@UFace@SurfaceMesh@easy3d@@@easy3d@@UEAA_NAEBVBasePropertyArray@2@@Z
	?transfer@?$PropertyArray@UFace@SurfaceMesh@easy3d@@@easy3d@@UEAA_NAEBVBasePropertyArray@2@_K1@Z
	?transfer@?$PropertyArray@UFaceConnectivity@SurfaceMesh@easy3d@@@easy3d@@UEAA_NAEBVBasePropertyArray@2@@Z
	?transfer@?$PropertyArray@UFaceConnectivity@SurfaceMesh@easy3d@@@easy3d@@UEAA_NAEBVBasePropertyArray@2@_K1@Z
	?transfer@?$PropertyArray@UHalfFaceConnectivity@PolyMesh@easy3d@@@easy3d@@UEAA_NAEBVBasePropertyArray@2@@Z
	?transfer@?$PropertyArray@UHalfFaceConnectivity@PolyMesh@easy3d@@@easy3d@@UEAA_NAEBVBasePropertyArray@2@_K1@Z
	?transfer@?$PropertyArray@UHalfedge@SurfaceMesh@easy3d@@@easy3d@@UEAA_NAEBVBasePropertyArray@2@@Z
	?transfer@?$PropertyArray@UHalfedge@SurfaceMesh@easy3d@@@easy3d@@UEAA_NAEBVBasePropertyArray@2@_K1@Z
	?transfer@?$PropertyArray@UHalfedgeConnectivity@SurfaceMesh@easy3d@@@easy3d@@UEAA_NAEBVBasePropertyArray@2@@Z
	?transfer@?$PropertyArray@UHalfedgeConnectivity@SurfaceMesh@easy3d@@@easy3d@@UEAA_NAEBVBasePropertyArray@2@_K1@Z
	?transfer@?$PropertyArray@UVertex@PointCloud@easy3d@@@easy3d@@UEAA_NAEBVBasePropertyArray@2@@Z
	?transfer@?$PropertyArray@UVertex@PointCloud@easy3d@@@easy3d@@UEAA_NAEBVBasePropertyArray@2@_K1@Z
	?transfer@?$PropertyArray@UVertex@SurfaceMesh@easy3d@@@easy3d@@UEAA_NAEBVBasePropertyArray@2@@Z
	?transfer@?$PropertyArray@UVertex@SurfaceMesh@easy3d@@@easy3d@@UEAA_NAEBVBasePropertyArray@2@_K1@Z
	?transfer@?$PropertyArray@UVertexConnectivity@Graph@easy3d@@@easy3d@@UEAA_NAEBVBasePropertyArray@2@@Z
	?transfer@?$PropertyArray@UVertexConnectivity@Graph@easy3d@@@easy3d@@UEAA_NAEBVBasePropertyArray@2@_K1@Z
	?transfer@?$PropertyArray@UVertexConnectivity@PolyMesh@easy3d@@@easy3d@@UEAA_NAEBVBasePropertyArray@2@@Z
	?transfer@?$PropertyArray@UVertexConnectivity@PolyMesh@easy3d@@@easy3d@@UEAA_NAEBVBasePropertyArray@2@_K1@Z
	?transfer@?$PropertyArray@UVertexConnectivity@SurfaceMesh@easy3d@@@easy3d@@UEAA_NAEBVBasePropertyArray@2@@Z
	?transfer@?$PropertyArray@UVertexConnectivity@SurfaceMesh@easy3d@@@easy3d@@UEAA_NAEBVBasePropertyArray@2@_K1@Z
	?transfer@?$PropertyArray@V?$Vec@$02M@easy3d@@@easy3d@@UEAA_NAEBVBasePropertyArray@2@@Z
	?transfer@?$PropertyArray@V?$Vec@$02M@easy3d@@@easy3d@@UEAA_NAEBVBasePropertyArray@2@_K1@Z
	?transfer@?$PropertyArray@_N@easy3d@@UEAA_NAEBVBasePropertyArray@2@@Z
	?transfer@?$PropertyArray@_N@easy3d@@UEAA_NAEBVBasePropertyArray@2@_K1@Z
	?transfer@PropertyContainer@easy3d@@QEAAXAEBV12@@Z
	?triangulate@SurfaceMesh@easy3d@@QEAAXUFace@12@@Z
	?triangulate@SurfaceMesh@easy3d@@QEAAXXZ
	?type@?$PropertyArray@UCellConnectivity@PolyMesh@easy3d@@@easy3d@@UEBAAEBVtype_info@@XZ
	?type@?$PropertyArray@UEdgeConnectivity@Graph@easy3d@@@easy3d@@UEBAAEBVtype_info@@XZ
	?type@?$PropertyArray@UEdgeConnectivity@PolyMesh@easy3d@@@easy3d@@UEBAAEBVtype_info@@XZ
	?type@?$PropertyArray@UFace@SurfaceMesh@easy3d@@@easy3d@@UEBAAEBVtype_info@@XZ
	?type@?$PropertyArray@UFaceConnectivity@SurfaceMesh@easy3d@@@easy3d@@UEBAAEBVtype_info@@XZ
	?type@?$PropertyArray@UHalfFaceConnectivity@PolyMesh@easy3d@@@easy3d@@UEBAAEBVtype_info@@XZ
	?type@?$PropertyArray@UHalfedge@SurfaceMesh@easy3d@@@easy3d@@UEBAAEBVtype_info@@XZ
	?type@?$PropertyArray@UHalfedgeConnectivity@SurfaceMesh@easy3d@@@easy3d@@UEBAAEBVtype_info@@XZ
	?type@?$PropertyArray@UVertex@PointCloud@easy3d@@@easy3d@@UEBAAEBVtype_info@@XZ
	?type@?$PropertyArray@UVertex@SurfaceMesh@easy3d@@@easy3d@@UEBAAEBVtype_info@@XZ
	?type@?$PropertyArray@UVertexConnectivity@Graph@easy3d@@@easy3d@@UEBAAEBVtype_info@@XZ
	?type@?$PropertyArray@UVertexConnectivity@PolyMesh@easy3d@@@easy3d@@UEBAAEBVtype_info@@XZ
	?type@?$PropertyArray@UVertexConnectivity@SurfaceMesh@easy3d@@@easy3d@@UEBAAEBVtype_info@@XZ
	?type@?$PropertyArray@V?$Vec@$02M@easy3d@@@easy3d@@UEBAAEBVtype_info@@XZ
	?type@?$PropertyArray@_N@easy3d@@UEBAAEBVtype_info@@XZ
	?uflow@?$basic_filebuf@DU?$char_traits@D@std@@@std@@MEAAHXZ
	?unblocked_lu@?$partial_lu_impl@N$0A@H$0?0@internal@Eigen@@SA_JAEAV?$Ref@V?$Matrix@N$0?0$0?0$0A@$0?0$0?0@Eigen@@$0A@V?$OuterStride@$0?0@2@@3@PEAHAEAH@Z
	?underflow@?$basic_filebuf@DU?$char_traits@D@std@@@std@@MEAAHXZ
	?update_face_normals@PolyMesh@easy3d@@QEAAXXZ
	?update_face_normals@SurfaceMesh@easy3d@@QEAAXXZ
	?update_vertex_normals@PolyMesh@easy3d@@QEAAXXZ
	?update_vertex_normals@SurfaceMesh@easy3d@@QEAAXXZ
	?valence@Graph@easy3d@@QEBAIUVertex@12@@Z
	?valence@SurfaceMesh@easy3d@@QEBAIUFace@12@@Z
	?valence@SurfaceMesh@easy3d@@QEBAIUVertex@12@@Z
	?vertices@SurfaceMesh@easy3d@@QEBA?AVVertexContainer@12@XZ
	?vertices_valid@SurfaceMeshBuilder@easy3d@@AEAA_NAEBV?$vector@UVertex@SurfaceMesh@easy3d@@V?$allocator@UVertex@SurfaceMesh@easy3d@@@std@@@std@@@Z
	?what@exception@std@@UEBAPEBDXZ
	?write@CellConnectivity@PolyMesh@easy3d@@QEBAXAEAV?$basic_ostream@DU?$char_traits@D@std@@@std@@@Z
	?write@EdgeConnectivity@PolyMesh@easy3d@@QEBAXAEAV?$basic_ostream@DU?$char_traits@D@std@@@std@@@Z
	?write@HalfFaceConnectivity@PolyMesh@easy3d@@QEBAXAEAV?$basic_ostream@DU?$char_traits@D@std@@@std@@@Z
	?write@PolyMesh@easy3d@@QEBA_NAEBV?$basic_string@DU?$char_traits@D@std@@V?$allocator@D@2@@std@@@Z
	?write@SurfaceMesh@easy3d@@QEBA_NAEBV?$basic_string@DU?$char_traits@D@std@@V?$allocator@D@2@@std@@@Z
	?write@VertexConnectivity@PolyMesh@easy3d@@QEBAXAEAV?$basic_ostream@DU?$char_traits@D@std@@@std@@@Z
	?xsgetn@?$basic_filebuf@DU?$char_traits@D@std@@@std@@MEAA_JPEAD_J@Z
	?xsputn@?$basic_filebuf@DU?$char_traits@D@std@@@std@@MEAA_JPEBD_J@Z
