EXPORTS 
	?$TSS0@?1??instance@Logger@flann@@CAAEAV23@XZ@4HA 	 DATA
	??_R0?AU?$big_any_policy@USearchParams@flann@@@anyimpl@flann@@@8 	 DATA
	??_R0?AU?$big_any_policy@Uempty_any@anyimpl@flann@@@anyimpl@flann@@@8 	 DATA
	??_R0?AU?$small_any_policy@H@anyimpl@flann@@@8 	 DATA
	??_R0?AU?$small_any_policy@I@anyimpl@flann@@@8 	 DATA
	??_R0?AU?$small_any_policy@M@anyimpl@flann@@@8 	 DATA
	??_R0?AU?$small_any_policy@W4flann_algorithm_t@flann@@@anyimpl@flann@@@8 	 DATA
	??_R0?AU?$small_any_policy@W4flann_centers_init_t@flann@@@anyimpl@flann@@@8 	 DATA
	??_R0?AU?$small_any_policy@_N@anyimpl@flann@@@8 	 DATA
	??_R0?AU?$typed_base_any_policy@H@anyimpl@flann@@@8 	 DATA
	??_R0?AU?$typed_base_any_policy@I@anyimpl@flann@@@8 	 DATA
	??_R0?AU?$typed_base_any_policy@M@anyimpl@flann@@@8 	 DATA
	??_R0?AU?$typed_base_any_policy@USearchParams@flann@@@anyimpl@flann@@@8 	 DATA
	??_R0?AU?$typed_base_any_policy@Uempty_any@anyimpl@flann@@@anyimpl@flann@@@8 	 DATA
	??_R0?AU?$typed_base_any_policy@W4flann_algorithm_t@flann@@@anyimpl@flann@@@8 	 DATA
	??_R0?AU?$typed_base_any_policy@W4flann_centers_init_t@flann@@@anyimpl@flann@@@8 	 DATA
	??_R0?AU?$typed_base_any_policy@_N@anyimpl@flann@@@8 	 DATA
	??_R0?AUSearchParams@flann@@@8 	 DATA
	??_R0?AUbad_any_cast@anyimpl@flann@@@8 	 DATA
	??_R0?AUbase_any_policy@anyimpl@flann@@@8 	 DATA
	??_R0?AUempty_any@anyimpl@flann@@@8 	 DATA
	??_R0?AV?$AutotunedIndex@U?$L2@M@flann@@@flann@@@8 	 DATA
	??_R0?AV?$CenterChooser@U?$L2@M@flann@@@flann@@@8 	 DATA
	??_R0?AV?$CompositeIndex@U?$L2@M@flann@@@flann@@@8 	 DATA
	??_R0?AV?$CountRadiusResultSet@M@flann@@@8 	 DATA
	??_R0?AV?$GonzalesCenterChooser@U?$L2@M@flann@@@flann@@@8 	 DATA
	??_R0?AV?$HierarchicalClusteringIndex@U?$L2@M@flann@@@flann@@@8 	 DATA
	??_R0?AV?$Index@U?$L2@M@flann@@@flann@@@8 	 DATA
	??_R0?AV?$KDTreeIndex@U?$L2@M@flann@@@flann@@@8 	 DATA
	??_R0?AV?$KDTreeSingleIndex@U?$L2@M@flann@@@flann@@@8 	 DATA
	??_R0?AV?$KMeansIndex@U?$L2@M@flann@@@flann@@@8 	 DATA
	??_R0?AV?$KMeansppCenterChooser@U?$L2@M@flann@@@flann@@@8 	 DATA
	??_R0?AV?$KNNRadiusResultSet@M@flann@@@8 	 DATA
	??_R0?AV?$KNNResultSet2@M@flann@@@8 	 DATA
	??_R0?AV?$KNNResultSet@M@flann@@@8 	 DATA
	??_R0?AV?$KNNSimpleResultSet@M@flann@@@8 	 DATA
	??_R0?AV?$KNNUniqueResultSet@M@flann@@@8 	 DATA
	??_R0?AV?$LinearIndex@U?$L2@M@flann@@@flann@@@8 	 DATA
	??_R0?AV?$LshIndex@U?$L2@M@flann@@@flann@@@8 	 DATA
	??_R0?AV?$NNIndex@U?$L2@M@flann@@@flann@@@8 	 DATA
	??_R0?AV?$RadiusResultSet@M@flann@@@8 	 DATA
	??_R0?AV?$RandomCenterChooser@U?$L2@M@flann@@@flann@@@8 	 DATA
	??_R0?AV?$ResultSet@M@flann@@@8 	 DATA
	??_R0?AV?$UniqueResultSet@M@flann@@@8 	 DATA
	??_R0?AV?$basic_string@DU?$char_traits@D@std@@V?$allocator@D@2@@std@@@8 	 DATA
	??_R0?AVFLANNException@flann@@@8 	 DATA
	??_R0?AVIndexBase@flann@@@8 	 DATA
	??_R0?AVKdTreeSearch@easy3d@@@8 	 DATA
	??_R0?AVKdTreeSearch_ANN@easy3d@@@8 	 DATA
	??_R0?AVKdTreeSearch_ETH@easy3d@@@8 	 DATA
	??_R0?AVKdTreeSearch_FLANN@easy3d@@@8 	 DATA
	??_R0?AVKdTreeSearch_NanoFLANN@easy3d@@@8 	 DATA
	??_R0?AVNoCopy@base@el@@@8 	 DATA
	??_R0?AVWriter@base@el@@@8 	 DATA
	??_R0?AVbad_alloc@std@@@8 	 DATA
	??_R0?AVbad_array_new_length@std@@@8 	 DATA
	??_R0?AVexception@std@@@8 	 DATA
	??_R0?AVlogic_error@std@@@8 	 DATA
	??_R0?AVruntime_error@std@@@8 	 DATA
	??_R0?AW4flann_algorithm_t@flann@@@8 	 DATA
	??_R0?AW4flann_centers_init_t@flann@@@8 	 DATA
	??_R0H@8 	 DATA
	??_R0I@8 	 DATA
	??_R0M@8 	 DATA
	??_R0_N@8 	 DATA
	?_OptionsStorage@?1??__local_stdio_printf_options@@9@4_KA 	 DATA
	?generator@?1??init@UniqueRandom@flann@@QEAAXH@Z@4VRandomGenerator@3@A 	 DATA
	?logger@?1??instance@Logger@flann@@CAAEAV23@XZ@4V23@A 	 DATA
	?policy@?1???$get_policy@H@anyimpl@flann@@YAPEAUbase_any_policy@12@XZ@4U?$small_any_policy@H@12@A 	 DATA
	?policy@?1???$get_policy@I@anyimpl@flann@@YAPEAUbase_any_policy@12@XZ@4U?$small_any_policy@I@12@A 	 DATA
	?policy@?1???$get_policy@M@anyimpl@flann@@YAPEAUbase_any_policy@12@XZ@4U?$small_any_policy@M@12@A 	 DATA
	?policy@?1???$get_policy@USearchParams@flann@@@anyimpl@flann@@YAPEAUbase_any_policy@12@XZ@4U?$big_any_policy@USearchParams@flann@@@12@A 	 DATA
	?policy@?1???$get_policy@Uempty_any@anyimpl@flann@@@anyimpl@flann@@YAPEAUbase_any_policy@12@XZ@4U?$big_any_policy@Uempty_any@anyimpl@flann@@@12@A 	 DATA
	?policy@?1???$get_policy@W4flann_algorithm_t@flann@@@anyimpl@flann@@YAPEAUbase_any_policy@12@XZ@4U?$small_any_policy@W4flann_algorithm_t@flann@@@12@A 	 DATA
	?policy@?1???$get_policy@W4flann_centers_init_t@flann@@@anyimpl@flann@@YAPEAUbase_any_policy@12@XZ@4U?$small_any_policy@W4flann_centers_init_t@flann@@@12@A 	 DATA
	?policy@?1???$get_policy@_N@anyimpl@flann@@YAPEAUbase_any_policy@12@XZ@4U?$small_any_policy@_N@12@A 	 DATA
	__isa_available_default 	 DATA
	??$?6DU?$char_traits@D@std@@V?$allocator@D@1@@std@@YAAEAV?$basic_ostream@DU?$char_traits@D@std@@@0@AEAV10@AEBV?$basic_string@DU?$char_traits@D@std@@V?$allocator@D@2@@0@@Z
	??$?6U?$char_traits@D@std@@@std@@YAAEAV?$basic_ostream@DU?$char_traits@D@std@@@0@AEAV10@PEBD@Z
	??$?HDU?$char_traits@D@std@@V?$allocator@D@1@@std@@YA?AV?$basic_string@DU?$char_traits@D@std@@V?$allocator@D@2@@0@$$QEAV10@0@Z
	??$?HDU?$char_traits@D@std@@V?$allocator@D@1@@std@@YA?AV?$basic_string@DU?$char_traits@D@std@@V?$allocator@D@2@@0@$$QEAV10@AEBV10@@Z
	??$?IUIndexHeader@flann@@@?$InputArchive@VLoadArchive@serialization@flann@@@serialization@flann@@QEAAAEAVLoadArchive@12@AEAUIndexHeader@2@@Z
	??$?IUIndexHeader@flann@@@?$OutputArchive@VSaveArchive@serialization@flann@@@serialization@flann@@QEAAAEAVSaveArchive@12@AEBUIndexHeader@2@@Z
	??$?IUNode@?$HierarchicalClusteringIndex@U?$L2@M@flann@@@flann@@@?$OutputArchive@VSaveArchive@serialization@flann@@@serialization@flann@@QEAAAEAVSaveArchive@12@AEBUNode@?$HierarchicalClusteringIndex@U?$L2@M@flann@@@2@@Z
	??$?IUNode@?$KDTreeIndex@U?$L2@M@flann@@@flann@@@?$InputArchive@VLoadArchive@serialization@flann@@@serialization@flann@@QEAAAEAVLoadArchive@12@AEAUNode@?$KDTreeIndex@U?$L2@M@flann@@@2@@Z
	??$?IUNode@?$KDTreeIndex@U?$L2@M@flann@@@flann@@@?$OutputArchive@VSaveArchive@serialization@flann@@@serialization@flann@@QEAAAEAVSaveArchive@12@AEBUNode@?$KDTreeIndex@U?$L2@M@flann@@@2@@Z
	??$?IUNode@?$KDTreeSingleIndex@U?$L2@M@flann@@@flann@@@?$OutputArchive@VSaveArchive@serialization@flann@@@serialization@flann@@QEAAAEAVSaveArchive@12@AEBUNode@?$KDTreeSingleIndex@U?$L2@M@flann@@@2@@Z
	??$?IUNode@?$KMeansIndex@U?$L2@M@flann@@@flann@@@?$OutputArchive@VSaveArchive@serialization@flann@@@serialization@flann@@QEAAAEAVSaveArchive@12@AEBUNode@?$KMeansIndex@U?$L2@M@flann@@@2@@Z
	??$?IV?$Matrix@M@flann@@@?$InputArchive@VLoadArchive@serialization@flann@@@serialization@flann@@QEAAAEAVLoadArchive@12@AEAV?$Matrix@M@2@@Z
	??$?IV?$Matrix@M@flann@@@?$OutputArchive@VSaveArchive@serialization@flann@@@serialization@flann@@QEAAAEAVSaveArchive@12@AEBV?$Matrix@M@2@@Z
	??$?IV?$vector@HV?$allocator@H@std@@@std@@@?$InputArchive@VLoadArchive@serialization@flann@@@serialization@flann@@QEAAAEAVLoadArchive@12@AEAV?$vector@HV?$allocator@H@std@@@std@@@Z
	??$?IV?$vector@HV?$allocator@H@std@@@std@@@?$OutputArchive@VSaveArchive@serialization@flann@@@serialization@flann@@QEAAAEAVSaveArchive@12@AEBV?$vector@HV?$allocator@H@std@@@std@@@Z
	??$?IV?$vector@IV?$allocator@I@std@@@std@@@?$InputArchive@VLoadArchive@serialization@flann@@@serialization@flann@@QEAAAEAVLoadArchive@12@AEAV?$vector@IV?$allocator@I@std@@@std@@@Z
	??$?IV?$vector@V?$LshTable@M@lsh@flann@@V?$allocator@V?$LshTable@M@lsh@flann@@@std@@@std@@@?$InputArchive@VLoadArchive@serialization@flann@@@serialization@flann@@QEAAAEAVLoadArchive@12@AEAV?$vector@V?$LshTable@M@lsh@flann@@V?$allocator@V?$LshTable@M@lsh@flann@@@std@@@std@@@Z
	??$?IV?$vector@V?$LshTable@M@lsh@flann@@V?$allocator@V?$LshTable@M@lsh@flann@@@std@@@std@@@?$OutputArchive@VSaveArchive@serialization@flann@@@serialization@flann@@QEAAAEAVSaveArchive@12@AEBV?$vector@V?$LshTable@M@lsh@flann@@V?$allocator@V?$LshTable@M@lsh@flann@@@std@@@std@@@Z
	??$?IV?$vector@_KV?$allocator@_K@std@@@std@@@?$InputArchive@VLoadArchive@serialization@flann@@@serialization@flann@@QEAAAEAVLoadArchive@12@AEAV?$vector@_KV?$allocator@_K@std@@@std@@@Z
	??$?IV?$vector@_KV?$allocator@_K@std@@@std@@@?$OutputArchive@VSaveArchive@serialization@flann@@@serialization@flann@@QEAAAEAVSaveArchive@12@AEBV?$vector@_KV?$allocator@_K@std@@@std@@@Z
	??$?IVDynamicBitset@flann@@@?$InputArchive@VLoadArchive@serialization@flann@@@serialization@flann@@QEAAAEAVLoadArchive@12@AEAVDynamicBitset@2@@Z
	??$?MDU?$char_traits@D@std@@V?$allocator@D@1@@std@@YA_NAEBV?$basic_string@DU?$char_traits@D@std@@V?$allocator@D@2@@0@0@Z
	??$?RPEAMPEAM@?$L2@M@flann@@QEBAMPEAM0_KM@Z
	??$?RPEAMPEBM@?$L2@M@flann@@QEBAMPEAMPEBM_KM@Z
	??$?RPEBMPEAM@?$L2@M@flann@@QEBAMPEBMPEAM_KM@Z
	??$_Allocate_manually_vector_aligned@U_Default_allocate_traits@std@@@std@@YAPEAX_K@Z
	??$_Assign_counted_range@PEAI@?$vector@IV?$allocator@I@std@@@std@@AEAAXPEAI_K@Z
	??$_Assign_counted_range@PEAM@?$vector@MV?$allocator@M@std@@@std@@AEAAXPEAM_K@Z
	??$_Assign_counted_range@PEAUPointInfo@?$HierarchicalClusteringIndex@U?$L2@M@flann@@@flann@@@?$vector@UPointInfo@?$HierarchicalClusteringIndex@U?$L2@M@flann@@@flann@@V?$allocator@UPointInfo@?$HierarchicalClusteringIndex@U?$L2@M@flann@@@flann@@@std@@@std@@AEAAXPEAUPointInfo@?$HierarchicalClusteringIndex@U?$L2@M@flann@@@flann@@_K@Z
	??$_Assign_counted_range@PEAUPointInfo@?$KMeansIndex@U?$L2@M@flann@@@flann@@@?$vector@UPointInfo@?$KMeansIndex@U?$L2@M@flann@@@flann@@V?$allocator@UPointInfo@?$KMeansIndex@U?$L2@M@flann@@@flann@@@std@@@std@@AEAAXPEAUPointInfo@?$KMeansIndex@U?$L2@M@flann@@@flann@@_K@Z
	??$_Construct@$00PEBD@?$basic_string@DU?$char_traits@D@std@@V?$allocator@D@2@@std@@AEAAXQEBD_K@Z
	??$_Copy@$0A@@?$_Tree@V?$_Tmap_traits@V?$basic_string@DU?$char_traits@D@std@@V?$allocator@D@2@@std@@Vany@flann@@U?$less@V?$basic_string@DU?$char_traits@D@std@@V?$allocator@D@2@@std@@@2@V?$allocator@U?$pair@$$CBV?$basic_string@DU?$char_traits@D@std@@V?$allocator@D@2@@std@@Vany@flann@@@std@@@2@$0A@@std@@@std@@IEAAXAEBV01@@Z
	??$_Copy_backward_memmove@PEAU?$DistanceIndex@M@flann@@PEAU12@@std@@YAPEAU?$DistanceIndex@M@flann@@PEAU12@00@Z
	??$_Copy_memmove@PEAHPEAH@std@@YAPEAHPEAH00@Z
	??$_Copy_memmove@PEAIPEAI@std@@YAPEAIPEAI00@Z
	??$_Copy_memmove@PEAMPEAM@std@@YAPEAMPEAM00@Z
	??$_Copy_memmove@PEAPEAMPEAPEAM@std@@YAPEAPEAMPEAPEAM00@Z
	??$_Copy_memmove@PEAPEAUNode@?$HierarchicalClusteringIndex@U?$L2@M@flann@@@flann@@PEAPEAU123@@std@@YAPEAPEAUNode@?$HierarchicalClusteringIndex@U?$L2@M@flann@@@flann@@PEAPEAU123@00@Z
	??$_Copy_memmove@PEAPEAUNode@?$KDTreeIndex@U?$L2@M@flann@@@flann@@PEAPEAU123@@std@@YAPEAPEAUNode@?$KDTreeIndex@U?$L2@M@flann@@@flann@@PEAPEAU123@00@Z
	??$_Copy_memmove@PEAPEAUNode@?$KMeansIndex@U?$L2@M@flann@@@flann@@PEAPEAU123@@std@@YAPEAPEAUNode@?$KMeansIndex@U?$L2@M@flann@@@flann@@PEAPEAU123@00@Z
	??$_Copy_memmove@PEAU?$BranchStruct@PEAUNode@?$HierarchicalClusteringIndex@U?$L2@M@flann@@@flann@@M@flann@@PEAU12@@std@@YAPEAU?$BranchStruct@PEAUNode@?$HierarchicalClusteringIndex@U?$L2@M@flann@@@flann@@M@flann@@PEAU12@00@Z
	??$_Copy_memmove@PEAU?$BranchStruct@PEAUNode@?$KDTreeIndex@U?$L2@M@flann@@@flann@@M@flann@@PEAU12@@std@@YAPEAU?$BranchStruct@PEAUNode@?$KDTreeIndex@U?$L2@M@flann@@@flann@@M@flann@@PEAU12@00@Z
	??$_Copy_memmove@PEAU?$BranchStruct@PEAUNode@?$KMeansIndex@U?$L2@M@flann@@@flann@@M@flann@@PEAU12@@std@@YAPEAU?$BranchStruct@PEAUNode@?$KMeansIndex@U?$L2@M@flann@@@flann@@M@flann@@PEAU12@00@Z
	??$_Copy_memmove@PEAU?$DistanceIndex@M@flann@@PEAU12@@std@@YAPEAU?$DistanceIndex@M@flann@@PEAU12@00@Z
	??$_Copy_memmove@PEAU?$pair@HM@std@@PEAU12@@std@@YAPEAU?$pair@HM@0@PEAU10@00@Z
	??$_Copy_memmove@PEAU?$pair@_KPEAM@std@@PEAU12@@std@@YAPEAU?$pair@_KPEAM@0@PEAU10@00@Z
	??$_Copy_memmove@PEAUInterval@?$KDTreeSingleIndex@U?$L2@M@flann@@@flann@@PEAU123@@std@@YAPEAUInterval@?$KDTreeSingleIndex@U?$L2@M@flann@@@flann@@PEAU123@00@Z
	??$_Copy_memmove@PEAUPointInfo@?$HierarchicalClusteringIndex@U?$L2@M@flann@@@flann@@PEAU123@@std@@YAPEAUPointInfo@?$HierarchicalClusteringIndex@U?$L2@M@flann@@@flann@@PEAU123@00@Z
	??$_Copy_memmove@PEAUPointInfo@?$KMeansIndex@U?$L2@M@flann@@@flann@@PEAU123@@std@@YAPEAUPointInfo@?$KMeansIndex@U?$L2@M@flann@@@flann@@PEAU123@00@Z
	??$_Copy_memmove@PEA_KPEA_K@std@@YAPEA_KPEA_K00@Z
	??$_Copy_memmove_n@PEAHPEAH@std@@YAPEAHPEAH_K0@Z
	??$_Copy_memmove_n@PEAIPEAI@std@@YAPEAIPEAI_K0@Z
	??$_Copy_memmove_n@PEAMPEAM@std@@YAPEAMPEAM_K0@Z
	??$_Copy_memmove_n@PEAUPointInfo@?$HierarchicalClusteringIndex@U?$L2@M@flann@@@flann@@PEAU123@@std@@YAPEAUPointInfo@?$HierarchicalClusteringIndex@U?$L2@M@flann@@@flann@@PEAU123@_K0@Z
	??$_Copy_memmove_n@PEAUPointInfo@?$KMeansIndex@U?$L2@M@flann@@@flann@@PEAU123@@std@@YAPEAUPointInfo@?$KMeansIndex@U?$L2@M@flann@@@flann@@PEAU123@_K0@Z
	??$_Copy_nodes@$0A@@?$_Tree@V?$_Tmap_traits@IV?$vector@IV?$allocator@I@std@@@std@@U?$less@I@2@V?$allocator@U?$pair@$$CBIV?$vector@IV?$allocator@I@std@@@std@@@std@@@2@$0A@@std@@@std@@IEAAPEAU?$_Tree_node@U?$pair@$$CBIV?$vector@IV?$allocator@I@std@@@std@@@std@@PEAX@1@PEAU21@0@Z
	??$_Copy_nodes@$0A@@?$_Tree@V?$_Tmap_traits@V?$basic_string@DU?$char_traits@D@std@@V?$allocator@D@2@@std@@Vany@flann@@U?$less@V?$basic_string@DU?$char_traits@D@std@@V?$allocator@D@2@@std@@@2@V?$allocator@U?$pair@$$CBV?$basic_string@DU?$char_traits@D@std@@V?$allocator@D@2@@std@@Vany@flann@@@std@@@2@$0A@@std@@@std@@IEAAPEAU?$_Tree_node@U?$pair@$$CBV?$basic_string@DU?$char_traits@D@std@@V?$allocator@D@2@@std@@Vany@flann@@@std@@PEAX@1@PEAU21@0@Z
	??$_Destroy_range@V?$allocator@UCostData@?$AutotunedIndex@U?$L2@M@flann@@@flann@@@std@@@std@@YAXPEAUCostData@?$AutotunedIndex@U?$L2@M@flann@@@flann@@QEAU123@AEAV?$allocator@UCostData@?$AutotunedIndex@U?$L2@M@flann@@@flann@@@0@@Z
	??$_Destroy_range@V?$allocator@V?$LshTable@M@lsh@flann@@@std@@@std@@YAXPEAV?$LshTable@M@lsh@flann@@QEAV123@AEAV?$allocator@V?$LshTable@M@lsh@flann@@@0@@Z
	??$_Destroy_range@V?$allocator@V?$basic_string@DU?$char_traits@D@std@@V?$allocator@D@2@@std@@@std@@@std@@YAXPEAV?$basic_string@DU?$char_traits@D@std@@V?$allocator@D@2@@0@QEAV10@AEAV?$allocator@V?$basic_string@DU?$char_traits@D@std@@V?$allocator@D@2@@std@@@0@@Z
	??$_Destroy_range@V?$allocator@V?$vector@HV?$allocator@H@std@@@std@@@std@@@std@@YAXPEAV?$vector@HV?$allocator@H@std@@@0@QEAV10@AEAV?$allocator@V?$vector@HV?$allocator@H@std@@@std@@@0@@Z
	??$_Destroy_range@V?$allocator@V?$vector@IV?$allocator@I@std@@@std@@@std@@@std@@YAXPEAV?$vector@IV?$allocator@I@std@@@0@QEAV10@AEAV?$allocator@V?$vector@IV?$allocator@I@std@@@std@@@0@@Z
	??$_Destroy_range@V?$allocator@V?$vector@MV?$allocator@M@std@@@std@@@std@@@std@@YAXPEAV?$vector@MV?$allocator@M@std@@@0@QEAV10@AEAV?$allocator@V?$vector@MV?$allocator@M@std@@@std@@@0@@Z
	??$_Destroy_range@V?$allocator@V?$vector@_KV?$allocator@_K@std@@@std@@@std@@@std@@YAXPEAV?$vector@_KV?$allocator@_K@std@@@0@QEAV10@AEAV?$allocator@V?$vector@_KV?$allocator@_K@std@@@std@@@0@@Z
	??$_Emplace_reallocate@AEBI@?$vector@IV?$allocator@I@std@@@std@@AEAAPEAIQEAIAEBI@Z
	??$_Emplace_reallocate@AEBU?$BranchStruct@PEAUNode@?$HierarchicalClusteringIndex@U?$L2@M@flann@@@flann@@M@flann@@@?$vector@U?$BranchStruct@PEAUNode@?$HierarchicalClusteringIndex@U?$L2@M@flann@@@flann@@M@flann@@V?$allocator@U?$BranchStruct@PEAUNode@?$HierarchicalClusteringIndex@U?$L2@M@flann@@@flann@@M@flann@@@std@@@std@@AEAAPEAU?$BranchStruct@PEAUNode@?$HierarchicalClusteringIndex@U?$L2@M@flann@@@flann@@M@flann@@QEAU23@AEBU23@@Z
	??$_Emplace_reallocate@AEBU?$BranchStruct@PEAUNode@?$KDTreeIndex@U?$L2@M@flann@@@flann@@M@flann@@@?$vector@U?$BranchStruct@PEAUNode@?$KDTreeIndex@U?$L2@M@flann@@@flann@@M@flann@@V?$allocator@U?$BranchStruct@PEAUNode@?$KDTreeIndex@U?$L2@M@flann@@@flann@@M@flann@@@std@@@std@@AEAAPEAU?$BranchStruct@PEAUNode@?$KDTreeIndex@U?$L2@M@flann@@@flann@@M@flann@@QEAU23@AEBU23@@Z
	??$_Emplace_reallocate@AEBU?$BranchStruct@PEAUNode@?$KMeansIndex@U?$L2@M@flann@@@flann@@M@flann@@@?$vector@U?$BranchStruct@PEAUNode@?$KMeansIndex@U?$L2@M@flann@@@flann@@M@flann@@V?$allocator@U?$BranchStruct@PEAUNode@?$KMeansIndex@U?$L2@M@flann@@@flann@@M@flann@@@std@@@std@@AEAAPEAU?$BranchStruct@PEAUNode@?$KMeansIndex@U?$L2@M@flann@@@flann@@M@flann@@QEAU23@AEBU23@@Z
	??$_Emplace_reallocate@AEBUCostData@?$AutotunedIndex@U?$L2@M@flann@@@flann@@@?$vector@UCostData@?$AutotunedIndex@U?$L2@M@flann@@@flann@@V?$allocator@UCostData@?$AutotunedIndex@U?$L2@M@flann@@@flann@@@std@@@std@@AEAAPEAUCostData@?$AutotunedIndex@U?$L2@M@flann@@@flann@@QEAU234@AEBU234@@Z
	??$_Emplace_reallocate@AEBUPointInfo@?$HierarchicalClusteringIndex@U?$L2@M@flann@@@flann@@@?$vector@UPointInfo@?$HierarchicalClusteringIndex@U?$L2@M@flann@@@flann@@V?$allocator@UPointInfo@?$HierarchicalClusteringIndex@U?$L2@M@flann@@@flann@@@std@@@std@@AEAAPEAUPointInfo@?$HierarchicalClusteringIndex@U?$L2@M@flann@@@flann@@QEAU234@AEBU234@@Z
	??$_Emplace_reallocate@AEBUPointInfo@?$KMeansIndex@U?$L2@M@flann@@@flann@@@?$vector@UPointInfo@?$KMeansIndex@U?$L2@M@flann@@@flann@@V?$allocator@UPointInfo@?$KMeansIndex@U?$L2@M@flann@@@flann@@@std@@@std@@AEAAPEAUPointInfo@?$KMeansIndex@U?$L2@M@flann@@@flann@@QEAU234@AEBU234@@Z
	??$_Emplace_reallocate@U?$DistanceIndex@M@flann@@@?$vector@U?$DistanceIndex@M@flann@@V?$allocator@U?$DistanceIndex@M@flann@@@std@@@std@@AEAAPEAU?$DistanceIndex@M@flann@@QEAU23@$$QEAU23@@Z
	??$_Emplace_reallocate@U?$pair@HM@std@@@?$vector@U?$pair@HM@std@@V?$allocator@U?$pair@HM@std@@@2@@std@@AEAAPEAU?$pair@HM@1@QEAU21@$$QEAU21@@Z
	??$_Emplace_reallocate@U?$pair@_KPEAM@std@@@?$vector@U?$pair@_KPEAM@std@@V?$allocator@U?$pair@_KPEAM@std@@@2@@std@@AEAAPEAU?$pair@_KPEAM@1@QEAU21@$$QEAU21@@Z
	??$_Erase_tree@V?$allocator@U?$_Tree_node@U?$pair@$$CBIV?$vector@IV?$allocator@I@std@@@std@@@std@@PEAX@std@@@std@@@?$_Tree_val@U?$_Tree_simple_types@U?$pair@$$CBIV?$vector@IV?$allocator@I@std@@@std@@@std@@@std@@@std@@QEAAXAEAV?$allocator@U?$_Tree_node@U?$pair@$$CBIV?$vector@IV?$allocator@I@std@@@std@@@std@@PEAX@std@@@1@PEAU?$_Tree_node@U?$pair@$$CBIV?$vector@IV?$allocator@I@std@@@std@@@std@@PEAX@1@@Z
	??$_Erase_tree@V?$allocator@U?$_Tree_node@U?$pair@$$CBV?$basic_string@DU?$char_traits@D@std@@V?$allocator@D@2@@std@@Vany@flann@@@std@@PEAX@std@@@std@@@?$_Tree_val@U?$_Tree_simple_types@U?$pair@$$CBV?$basic_string@DU?$char_traits@D@std@@V?$allocator@D@2@@std@@Vany@flann@@@std@@@std@@@std@@QEAAXAEAV?$allocator@U?$_Tree_node@U?$pair@$$CBV?$basic_string@DU?$char_traits@D@std@@V?$allocator@D@2@@std@@Vany@flann@@@std@@PEAX@std@@@1@PEAU?$_Tree_node@U?$pair@$$CBV?$basic_string@DU?$char_traits@D@std@@V?$allocator@D@2@@std@@Vany@flann@@@std@@PEAX@1@@Z
	??$_Erase_tree@V?$allocator@U?$_Tree_node@UDistIndex@?$UniqueResultSet@M@flann@@PEAX@std@@@std@@@?$_Tree_val@U?$_Tree_simple_types@UDistIndex@?$UniqueResultSet@M@flann@@@std@@@std@@QEAAXAEAV?$allocator@U?$_Tree_node@UDistIndex@?$UniqueResultSet@M@flann@@PEAX@std@@@1@PEAU?$_Tree_node@UDistIndex@?$UniqueResultSet@M@flann@@PEAX@1@@Z
	??$_Erase_tree_and_orphan@V?$allocator@U?$_Tree_node@U?$pair@$$CBIV?$vector@IV?$allocator@I@std@@@std@@@std@@PEAX@std@@@std@@@?$_Tree_val@U?$_Tree_simple_types@U?$pair@$$CBIV?$vector@IV?$allocator@I@std@@@std@@@std@@@std@@@std@@QEAAXAEAV?$allocator@U?$_Tree_node@U?$pair@$$CBIV?$vector@IV?$allocator@I@std@@@std@@@std@@PEAX@std@@@1@PEAU?$_Tree_node@U?$pair@$$CBIV?$vector@IV?$allocator@I@std@@@std@@@std@@PEAX@1@@Z
	??$_Erase_tree_and_orphan@V?$allocator@U?$_Tree_node@U?$pair@$$CBV?$basic_string@DU?$char_traits@D@std@@V?$allocator@D@2@@std@@Vany@flann@@@std@@PEAX@std@@@std@@@?$_Tree_val@U?$_Tree_simple_types@U?$pair@$$CBV?$basic_string@DU?$char_traits@D@std@@V?$allocator@D@2@@std@@Vany@flann@@@std@@@std@@@std@@QEAAXAEAV?$allocator@U?$_Tree_node@U?$pair@$$CBV?$basic_string@DU?$char_traits@D@std@@V?$allocator@D@2@@std@@Vany@flann@@@std@@PEAX@std@@@1@PEAU?$_Tree_node@U?$pair@$$CBV?$basic_string@DU?$char_traits@D@std@@V?$allocator@D@2@@std@@Vany@flann@@@std@@PEAX@1@@Z
	??$_Fill_zero_memset@PEAH@std@@YAXPEAH_K@Z
	??$_Fill_zero_memset@PEAM@std@@YAXPEAM_K@Z
	??$_Fill_zero_memset@PEA_K@std@@YAXPEA_K_K@Z
	??$_Find_lower_bound@V?$basic_string@DU?$char_traits@D@std@@V?$allocator@D@2@@std@@@?$_Tree@V?$_Tmap_traits@V?$basic_string@DU?$char_traits@D@std@@V?$allocator@D@2@@std@@Vany@flann@@U?$less@V?$basic_string@DU?$char_traits@D@std@@V?$allocator@D@2@@std@@@2@V?$allocator@U?$pair@$$CBV?$basic_string@DU?$char_traits@D@std@@V?$allocator@D@2@@std@@Vany@flann@@@std@@@2@$0A@@std@@@std@@IEBA?AU?$_Tree_find_result@PEAU?$_Tree_node@U?$pair@$$CBV?$basic_string@DU?$char_traits@D@std@@V?$allocator@D@2@@std@@Vany@flann@@@std@@PEAX@std@@@1@AEBV?$basic_string@DU?$char_traits@D@std@@V?$allocator@D@2@@1@@Z
	??$_Getvals@_W@?$time_get@DV?$istreambuf_iterator@DU?$char_traits@D@std@@@std@@@std@@IEAAX_WAEBV_Locinfo@1@@Z
	??$_Getvals@_W@?$time_get@_WV?$istreambuf_iterator@_WU?$char_traits@_W@std@@@std@@@std@@IEAAX_WAEBV_Locinfo@1@@Z
	??$_Insert_string@DU?$char_traits@D@std@@_K@std@@YAAEAV?$basic_ostream@DU?$char_traits@D@std@@@0@AEAV10@QEBD_K@Z
	??$_Insertion_sort_unchecked@PEAU?$DistanceIndex@M@flann@@U?$less@X@std@@@std@@YAPEAU?$DistanceIndex@M@flann@@QEAU12@0U?$less@X@0@@Z
	??$_Is_all_bits_zero@H@std@@YA_NAEBH@Z
	??$_Is_all_bits_zero@M@std@@YA_NAEBM@Z
	??$_Make_heap_unchecked@PEAU?$DistanceIndex@M@flann@@U?$less@X@std@@@std@@YAXPEAU?$DistanceIndex@M@flann@@0U?$less@X@0@@Z
	??$_Maklocstr@D@std@@YAPEADPEBDPEADAEBU_Cvtvec@@@Z
	??$_Med3_unchecked@PEAU?$DistanceIndex@M@flann@@U?$less@X@std@@@std@@YAXPEAU?$DistanceIndex@M@flann@@00U?$less@X@0@@Z
	??$_Med3_unchecked@PEAU?$pair@HM@std@@UIndexDist_Sorter@nanoflann@@@std@@YAXPEAU?$pair@HM@0@00UIndexDist_Sorter@nanoflann@@@Z
	??$_Partition_by_median_guess_unchecked@PEAU?$DistanceIndex@M@flann@@U?$less@X@std@@@std@@YA?AU?$pair@PEAU?$DistanceIndex@M@flann@@PEAU12@@0@PEAU?$DistanceIndex@M@flann@@0U?$less@X@0@@Z
	??$_Partition_by_median_guess_unchecked@PEAU?$pair@HM@std@@UIndexDist_Sorter@nanoflann@@@std@@YA?AU?$pair@PEAU?$pair@HM@std@@PEAU12@@0@PEAU?$pair@HM@0@0UIndexDist_Sorter@nanoflann@@@Z
	??$_Pop_heap_hole_by_index@PEAU?$DistanceIndex@M@flann@@U12@U?$less@X@std@@@std@@YAXPEAU?$DistanceIndex@M@flann@@_J1$$QEAU12@U?$less@X@0@@Z
	??$_Random_shuffle1@V?$_Vector_iterator@V?$_Vector_val@U?$_Simple_types@H@std@@@std@@@std@@V?$_Rng_from_urng@_JU_Rand_urng_from_func@std@@@2@@std@@YAXV?$_Vector_iterator@V?$_Vector_val@U?$_Simple_types@H@std@@@std@@@0@0AEAV?$_Rng_from_urng@_JU_Rand_urng_from_func@std@@@0@@Z
	??$_Random_shuffle1@V?$_Vector_iterator@V?$_Vector_val@U?$_Simple_types@H@std@@@std@@@std@@VRandomGenerator@flann@@@std@@YAXV?$_Vector_iterator@V?$_Vector_val@U?$_Simple_types@H@std@@@std@@@0@0AEAVRandomGenerator@flann@@@Z
	??$_Reallocate_grow_by@V<lambda_65e615be2a453ca0576c979606f46740>@@PEBD_K@?$basic_string@DU?$char_traits@D@std@@V?$allocator@D@2@@std@@AEAAAEAV01@_KV<lambda_65e615be2a453ca0576c979606f46740>@@PEBD_K@Z
	??$_Resize_reallocate@U?$DistanceIndex@M@flann@@@?$vector@U?$DistanceIndex@M@flann@@V?$allocator@U?$DistanceIndex@M@flann@@@std@@@std@@AEAAX_KAEBU?$DistanceIndex@M@flann@@@Z
	??$_Resize_reallocate@U_Value_init_tag@std@@@?$vector@HV?$allocator@H@std@@@std@@AEAAX_KAEBU_Value_init_tag@1@@Z
	??$_Resize_reallocate@U_Value_init_tag@std@@@?$vector@IV?$allocator@I@std@@@std@@AEAAX_KAEBU_Value_init_tag@1@@Z
	??$_Resize_reallocate@U_Value_init_tag@std@@@?$vector@MV?$allocator@M@std@@@std@@AEAAX_KAEBU_Value_init_tag@1@@Z
	??$_Resize_reallocate@U_Value_init_tag@std@@@?$vector@PEAMV?$allocator@PEAM@std@@@std@@AEAAX_KAEBU_Value_init_tag@1@@Z
	??$_Resize_reallocate@U_Value_init_tag@std@@@?$vector@PEAUNode@?$HierarchicalClusteringIndex@U?$L2@M@flann@@@flann@@V?$allocator@PEAUNode@?$HierarchicalClusteringIndex@U?$L2@M@flann@@@flann@@@std@@@std@@AEAAX_KAEBU_Value_init_tag@1@@Z
	??$_Resize_reallocate@U_Value_init_tag@std@@@?$vector@PEAUNode@?$KDTreeIndex@U?$L2@M@flann@@@flann@@V?$allocator@PEAUNode@?$KDTreeIndex@U?$L2@M@flann@@@flann@@@std@@@std@@AEAAX_KAEBU_Value_init_tag@1@@Z
	??$_Resize_reallocate@U_Value_init_tag@std@@@?$vector@PEAUNode@?$KMeansIndex@U?$L2@M@flann@@@flann@@V?$allocator@PEAUNode@?$KMeansIndex@U?$L2@M@flann@@@flann@@@std@@@std@@AEAAX_KAEBU_Value_init_tag@1@@Z
	??$_Resize_reallocate@U_Value_init_tag@std@@@?$vector@UInterval@?$KDTreeSingleIndex@U?$L2@M@flann@@@flann@@V?$allocator@UInterval@?$KDTreeSingleIndex@U?$L2@M@flann@@@flann@@@std@@@std@@AEAAX_KAEBU_Value_init_tag@1@@Z
	??$_Resize_reallocate@U_Value_init_tag@std@@@?$vector@UPointInfo@?$HierarchicalClusteringIndex@U?$L2@M@flann@@@flann@@V?$allocator@UPointInfo@?$HierarchicalClusteringIndex@U?$L2@M@flann@@@flann@@@std@@@std@@AEAAX_KAEBU_Value_init_tag@1@@Z
	??$_Resize_reallocate@U_Value_init_tag@std@@@?$vector@UPointInfo@?$KMeansIndex@U?$L2@M@flann@@@flann@@V?$allocator@UPointInfo@?$KMeansIndex@U?$L2@M@flann@@@flann@@@std@@@std@@AEAAX_KAEBU_Value_init_tag@1@@Z
	??$_Resize_reallocate@U_Value_init_tag@std@@@?$vector@V?$LshTable@M@lsh@flann@@V?$allocator@V?$LshTable@M@lsh@flann@@@std@@@std@@AEAAX_KAEBU_Value_init_tag@1@@Z
	??$_Resize_reallocate@U_Value_init_tag@std@@@?$vector@V?$vector@HV?$allocator@H@std@@@std@@V?$allocator@V?$vector@HV?$allocator@H@std@@@std@@@2@@std@@AEAAX_KAEBU_Value_init_tag@1@@Z
	??$_Resize_reallocate@U_Value_init_tag@std@@@?$vector@V?$vector@IV?$allocator@I@std@@@std@@V?$allocator@V?$vector@IV?$allocator@I@std@@@std@@@2@@std@@AEAAX_KAEBU_Value_init_tag@1@@Z
	??$_Resize_reallocate@U_Value_init_tag@std@@@?$vector@V?$vector@MV?$allocator@M@std@@@std@@V?$allocator@V?$vector@MV?$allocator@M@std@@@std@@@2@@std@@AEAAX_KAEBU_Value_init_tag@1@@Z
	??$_Resize_reallocate@U_Value_init_tag@std@@@?$vector@V?$vector@_KV?$allocator@_K@std@@@std@@V?$allocator@V?$vector@_KV?$allocator@_K@std@@@std@@@2@@std@@AEAAX_KAEBU_Value_init_tag@1@@Z
	??$_Resize_reallocate@U_Value_init_tag@std@@@?$vector@_KV?$allocator@_K@std@@@std@@AEAAX_KAEBU_Value_init_tag@1@@Z
	??$_Sort_unchecked@PEAU?$DistanceIndex@M@flann@@U?$less@X@std@@@std@@YAXPEAU?$DistanceIndex@M@flann@@0_JU?$less@X@0@@Z
	??$_Sort_unchecked@PEAU?$pair@HM@std@@UIndexDist_Sorter@nanoflann@@@std@@YAXPEAU?$pair@HM@0@0_JUIndexDist_Sorter@nanoflann@@@Z
	??$_Uninitialized_copy@PEAUCostData@?$AutotunedIndex@U?$L2@M@flann@@@flann@@PEAU123@V?$allocator@UCostData@?$AutotunedIndex@U?$L2@M@flann@@@flann@@@std@@@std@@YAPEAUCostData@?$AutotunedIndex@U?$L2@M@flann@@@flann@@PEAU123@00AEAV?$allocator@UCostData@?$AutotunedIndex@U?$L2@M@flann@@@flann@@@0@@Z
	??$_Uninitialized_move@PEAUCostData@?$AutotunedIndex@U?$L2@M@flann@@@flann@@V?$allocator@UCostData@?$AutotunedIndex@U?$L2@M@flann@@@flann@@@std@@@std@@YAPEAUCostData@?$AutotunedIndex@U?$L2@M@flann@@@flann@@QEAU123@0PEAU123@AEAV?$allocator@UCostData@?$AutotunedIndex@U?$L2@M@flann@@@flann@@@0@@Z
	??$_Uninitialized_move@PEAV?$vector@IV?$allocator@I@std@@@std@@V?$allocator@V?$vector@IV?$allocator@I@std@@@std@@@2@@std@@YAPEAV?$vector@IV?$allocator@I@std@@@0@QEAV10@0PEAV10@AEAV?$allocator@V?$vector@IV?$allocator@I@std@@@std@@@0@@Z
	??$_Uninitialized_value_construct_n@V?$allocator@V?$LshTable@M@lsh@flann@@@std@@@std@@YAPEAV?$LshTable@M@lsh@flann@@PEAV123@_KAEAV?$allocator@V?$LshTable@M@lsh@flann@@@0@@Z
	??$_Zero_range@PEAH@std@@YAPEAHQEAH0@Z
	??$_Zero_range@PEAI@std@@YAPEAIQEAI0@Z
	??$_Zero_range@PEAM@std@@YAPEAMQEAM0@Z
	??$_Zero_range@PEAPEAM@std@@YAPEAPEAMQEAPEAM0@Z
	??$_Zero_range@PEAPEAUNode@?$HierarchicalClusteringIndex@U?$L2@M@flann@@@flann@@@std@@YAPEAPEAUNode@?$HierarchicalClusteringIndex@U?$L2@M@flann@@@flann@@QEAPEAU123@0@Z
	??$_Zero_range@PEAPEAUNode@?$KDTreeIndex@U?$L2@M@flann@@@flann@@@std@@YAPEAPEAUNode@?$KDTreeIndex@U?$L2@M@flann@@@flann@@QEAPEAU123@0@Z
	??$_Zero_range@PEAPEAUNode@?$KMeansIndex@U?$L2@M@flann@@@flann@@@std@@YAPEAPEAUNode@?$KMeansIndex@U?$L2@M@flann@@@flann@@QEAPEAU123@0@Z
	??$_Zero_range@PEA_K@std@@YAPEA_KQEA_K0@Z
	??$assign@V?$array@M$02@std@@M@nanoflann@@YAXAEAV?$array@M$02@std@@_KAEBM@Z
	??$cast@H@any@flann@@QEBAAEBHXZ
	??$computeDistanceRaport@U?$L2@M@flann@@@flann@@YAMAEBV?$Matrix@M@0@PEAMPEA_K2HHAEBU?$L2@M@0@@Z
	??$compute_ground_truth@U?$L2@M@flann@@@flann@@YAXAEBV?$Matrix@M@0@0AEAV?$Matrix@_K@0@HU?$L2@M@0@@Z
	??$create_index_@VKDTreeSingleIndex@flann@@U?$L2@M@2@M@flann@@YAPEAV?$NNIndex@U?$L2@M@flann@@@0@V?$Matrix@M@0@AEBV?$map@V?$basic_string@DU?$char_traits@D@std@@V?$allocator@D@2@@std@@Vany@flann@@U?$less@V?$basic_string@DU?$char_traits@D@std@@V?$allocator@D@2@@std@@@2@V?$allocator@U?$pair@$$CBV?$basic_string@DU?$char_traits@D@std@@V?$allocator@D@2@@std@@Vany@flann@@@std@@@2@@std@@AEBU?$L2@M@0@PEAX@Z
	??$create_index_by_type@U?$L2@M@flann@@@flann@@YAPEAV?$NNIndex@U?$L2@M@flann@@@0@W4flann_algorithm_t@0@AEBV?$Matrix@M@0@AEBV?$map@V?$basic_string@DU?$char_traits@D@std@@V?$allocator@D@2@@std@@Vany@flann@@U?$less@V?$basic_string@DU?$char_traits@D@std@@V?$allocator@D@2@@std@@@2@V?$allocator@U?$pair@$$CBV?$basic_string@DU?$char_traits@D@std@@V?$allocator@D@2@@std@@Vany@flann@@@std@@@2@@std@@AEBU?$L2@M@0@@Z
	??$endl@DU?$char_traits@D@std@@@std@@YAAEAV?$basic_ostream@DU?$char_traits@D@std@@@0@AEAV10@@Z
	??$findExactNN@$00@?$KMeansIndex@U?$L2@M@flann@@@flann@@AEBAXPEAUNode@01@AEAV?$ResultSet@M@1@PEBM@Z
	??$findExactNN@$0A@@?$KMeansIndex@U?$L2@M@flann@@@flann@@AEBAXPEAUNode@01@AEAV?$ResultSet@M@1@PEBM@Z
	??$findNN@$00@?$HierarchicalClusteringIndex@U?$L2@M@flann@@@flann@@AEBAXPEAUNode@01@AEAV?$ResultSet@M@1@PEBMAEAHHPEAV?$Heap@U?$BranchStruct@PEAUNode@?$HierarchicalClusteringIndex@U?$L2@M@flann@@@flann@@M@flann@@@1@AEAVDynamicBitset@1@@Z
	??$findNN@$00@?$KMeansIndex@U?$L2@M@flann@@@flann@@AEBAXPEAUNode@01@AEAV?$ResultSet@M@1@PEBMAEAHHPEAV?$Heap@U?$BranchStruct@PEAUNode@?$KMeansIndex@U?$L2@M@flann@@@flann@@M@flann@@@1@@Z
	??$findNN@$0A@@?$HierarchicalClusteringIndex@U?$L2@M@flann@@@flann@@AEBAXPEAUNode@01@AEAV?$ResultSet@M@1@PEBMAEAHHPEAV?$Heap@U?$BranchStruct@PEAUNode@?$HierarchicalClusteringIndex@U?$L2@M@flann@@@flann@@M@flann@@@1@AEAVDynamicBitset@1@@Z
	??$findNN@$0A@@?$KMeansIndex@U?$L2@M@flann@@@flann@@AEBAXPEAUNode@01@AEAV?$ResultSet@M@1@PEBMAEAHHPEAV?$Heap@U?$BranchStruct@PEAUNode@?$KMeansIndex@U?$L2@M@flann@@@flann@@M@flann@@@1@@Z
	??$findNeighborsWithRemoved@$00@?$HierarchicalClusteringIndex@U?$L2@M@flann@@@flann@@AEBAXAEAV?$ResultSet@M@1@PEBMAEBUSearchParams@1@@Z
	??$findNeighborsWithRemoved@$00@?$KMeansIndex@U?$L2@M@flann@@@flann@@AEBAXAEAV?$ResultSet@M@1@PEBMAEBUSearchParams@1@@Z
	??$findNeighborsWithRemoved@$0A@@?$HierarchicalClusteringIndex@U?$L2@M@flann@@@flann@@AEBAXAEAV?$ResultSet@M@1@PEBMAEBUSearchParams@1@@Z
	??$findNeighborsWithRemoved@$0A@@?$KMeansIndex@U?$L2@M@flann@@@flann@@AEBAXAEAV?$ResultSet@M@1@PEBMAEBUSearchParams@1@@Z
	??$find_nearest@U?$L2@M@flann@@@flann@@YAXAEBV?$Matrix@M@0@PEAMPEA_K_K3U?$L2@M@0@@Z
	??$getNeighbors@$00@?$KDTreeIndex@U?$L2@M@flann@@@flann@@AEBAXAEAV?$ResultSet@M@1@PEBMHM@Z
	??$getNeighbors@$0A@@?$KDTreeIndex@U?$L2@M@flann@@@flann@@AEBAXAEAV?$ResultSet@M@1@PEBMHM@Z
	??$get_param@H@flann@@YAHAEBV?$map@V?$basic_string@DU?$char_traits@D@std@@V?$allocator@D@2@@std@@Vany@flann@@U?$less@V?$basic_string@DU?$char_traits@D@std@@V?$allocator@D@2@@std@@@2@V?$allocator@U?$pair@$$CBV?$basic_string@DU?$char_traits@D@std@@V?$allocator@D@2@@std@@Vany@flann@@@std@@@2@@std@@V?$basic_string@DU?$char_traits@D@std@@V?$allocator@D@2@@2@@Z
	??$get_param@H@flann@@YAHAEBV?$map@V?$basic_string@DU?$char_traits@D@std@@V?$allocator@D@2@@std@@Vany@flann@@U?$less@V?$basic_string@DU?$char_traits@D@std@@V?$allocator@D@2@@std@@@2@V?$allocator@U?$pair@$$CBV?$basic_string@DU?$char_traits@D@std@@V?$allocator@D@2@@std@@Vany@flann@@@std@@@2@@std@@V?$basic_string@DU?$char_traits@D@std@@V?$allocator@D@2@@2@AEBH@Z
	??$get_param@I@flann@@YAIAEBV?$map@V?$basic_string@DU?$char_traits@D@std@@V?$allocator@D@2@@std@@Vany@flann@@U?$less@V?$basic_string@DU?$char_traits@D@std@@V?$allocator@D@2@@std@@@2@V?$allocator@U?$pair@$$CBV?$basic_string@DU?$char_traits@D@std@@V?$allocator@D@2@@std@@Vany@flann@@@std@@@2@@std@@V?$basic_string@DU?$char_traits@D@std@@V?$allocator@D@2@@2@AEBI@Z
	??$get_param@M@flann@@YAMAEBV?$map@V?$basic_string@DU?$char_traits@D@std@@V?$allocator@D@2@@std@@Vany@flann@@U?$less@V?$basic_string@DU?$char_traits@D@std@@V?$allocator@D@2@@std@@@2@V?$allocator@U?$pair@$$CBV?$basic_string@DU?$char_traits@D@std@@V?$allocator@D@2@@std@@Vany@flann@@@std@@@2@@std@@V?$basic_string@DU?$char_traits@D@std@@V?$allocator@D@2@@2@AEBM@Z
	??$get_param@V?$basic_string@DU?$char_traits@D@std@@V?$allocator@D@2@@std@@@flann@@YA?AV?$basic_string@DU?$char_traits@D@std@@V?$allocator@D@2@@std@@AEBV?$map@V?$basic_string@DU?$char_traits@D@std@@V?$allocator@D@2@@std@@Vany@flann@@U?$less@V?$basic_string@DU?$char_traits@D@std@@V?$allocator@D@2@@std@@@2@V?$allocator@U?$pair@$$CBV?$basic_string@DU?$char_traits@D@std@@V?$allocator@D@2@@std@@Vany@flann@@@std@@@2@@2@V12@@Z
	??$get_param@W4flann_algorithm_t@flann@@@flann@@YA?AW4flann_algorithm_t@0@AEBV?$map@V?$basic_string@DU?$char_traits@D@std@@V?$allocator@D@2@@std@@Vany@flann@@U?$less@V?$basic_string@DU?$char_traits@D@std@@V?$allocator@D@2@@std@@@2@V?$allocator@U?$pair@$$CBV?$basic_string@DU?$char_traits@D@std@@V?$allocator@D@2@@std@@Vany@flann@@@std@@@2@@std@@V?$basic_string@DU?$char_traits@D@std@@V?$allocator@D@2@@3@@Z
	??$get_param@W4flann_centers_init_t@flann@@@flann@@YA?AW4flann_centers_init_t@0@AEBV?$map@V?$basic_string@DU?$char_traits@D@std@@V?$allocator@D@2@@std@@Vany@flann@@U?$less@V?$basic_string@DU?$char_traits@D@std@@V?$allocator@D@2@@std@@@2@V?$allocator@U?$pair@$$CBV?$basic_string@DU?$char_traits@D@std@@V?$allocator@D@2@@std@@Vany@flann@@@std@@@2@@std@@V?$basic_string@DU?$char_traits@D@std@@V?$allocator@D@2@@3@AEBW410@@Z
	??$get_param@_N@flann@@YA_NAEBV?$map@V?$basic_string@DU?$char_traits@D@std@@V?$allocator@D@2@@std@@Vany@flann@@U?$less@V?$basic_string@DU?$char_traits@D@std@@V?$allocator@D@2@@std@@@2@V?$allocator@U?$pair@$$CBV?$basic_string@DU?$char_traits@D@std@@V?$allocator@D@2@@std@@Vany@flann@@@std@@@2@@std@@V?$basic_string@DU?$char_traits@D@std@@V?$allocator@D@2@@2@AEB_N@Z
	??$get_policy@H@anyimpl@flann@@YAPEAUbase_any_policy@01@XZ
	??$get_policy@I@anyimpl@flann@@YAPEAUbase_any_policy@01@XZ
	??$get_policy@M@anyimpl@flann@@YAPEAUbase_any_policy@01@XZ
	??$get_policy@USearchParams@flann@@@anyimpl@flann@@YAPEAUbase_any_policy@01@XZ
	??$get_policy@Uempty_any@anyimpl@flann@@@anyimpl@flann@@YAPEAUbase_any_policy@01@XZ
	??$get_policy@W4flann_algorithm_t@flann@@@anyimpl@flann@@YAPEAUbase_any_policy@01@XZ
	??$get_policy@W4flann_centers_init_t@flann@@@anyimpl@flann@@YAPEAUbase_any_policy@01@XZ
	??$get_policy@_N@anyimpl@flann@@YAPEAUbase_any_policy@01@XZ
	??$load@VLoadArchive@serialization@flann@@@?$Serializer@UNode@?$KDTreeIndex@U?$L2@M@flann@@@flann@@@serialization@flann@@SAXAEAVLoadArchive@12@AEAUNode@?$KDTreeIndex@U?$L2@M@flann@@@2@@Z
	??$load@VLoadArchive@serialization@flann@@@?$Serializer@V?$map@IV?$vector@IV?$allocator@I@std@@@std@@U?$less@I@2@V?$allocator@U?$pair@$$CBIV?$vector@IV?$allocator@I@std@@@std@@@std@@@2@@std@@@serialization@flann@@SAXAEAVLoadArchive@12@AEAV?$map@IV?$vector@IV?$allocator@I@std@@@std@@U?$less@I@2@V?$allocator@U?$pair@$$CBIV?$vector@IV?$allocator@I@std@@@std@@@std@@@2@@std@@@Z
	??$load@VLoadArchive@serialization@flann@@@?$Serializer@V?$vector@V?$vector@IV?$allocator@I@std@@@std@@V?$allocator@V?$vector@IV?$allocator@I@std@@@std@@@2@@std@@@serialization@flann@@SAXAEAVLoadArchive@12@AEAV?$vector@V?$vector@IV?$allocator@I@std@@@std@@V?$allocator@V?$vector@IV?$allocator@I@std@@@std@@@2@@std@@@Z
	??$nth_element@V?$_Vector_iterator@V?$_Vector_val@U?$_Simple_types@U?$DistanceIndex@M@flann@@@std@@@std@@@std@@@std@@YAXV?$_Vector_iterator@V?$_Vector_val@U?$_Simple_types@U?$DistanceIndex@M@flann@@@std@@@std@@@0@00@Z
	??$push_heap@V?$_Vector_iterator@V?$_Vector_val@U?$_Simple_types@U?$DistanceIndex@M@flann@@@std@@@std@@@std@@@std@@YAXV?$_Vector_iterator@V?$_Vector_val@U?$_Simple_types@U?$DistanceIndex@M@flann@@@std@@@std@@@0@0@Z
	??$random_sample@M@flann@@YA?AV?$Matrix@M@0@AEAV10@_K_N@Z
	??$random_shuffle@V?$_Vector_iterator@V?$_Vector_val@U?$_Simple_types@H@std@@@std@@@std@@@std@@YAXV?$_Vector_iterator@V?$_Vector_val@U?$_Simple_types@H@std@@@std@@@0@0@Z
	??$random_shuffle@V?$_Vector_iterator@V?$_Vector_val@U?$_Simple_types@H@std@@@std@@@std@@AEAVRandomGenerator@flann@@@std@@YAXV?$_Vector_iterator@V?$_Vector_val@U?$_Simple_types@H@std@@@std@@@0@0AEAVRandomGenerator@flann@@@Z
	??$save@VSaveArchive@serialization@flann@@@?$Serializer@UNode@?$HierarchicalClusteringIndex@U?$L2@M@flann@@@flann@@@serialization@flann@@SAXAEAVSaveArchive@12@AEBUNode@?$HierarchicalClusteringIndex@U?$L2@M@flann@@@2@@Z
	??$save@VSaveArchive@serialization@flann@@@?$Serializer@UNode@?$KDTreeIndex@U?$L2@M@flann@@@flann@@@serialization@flann@@SAXAEAVSaveArchive@12@AEBUNode@?$KDTreeIndex@U?$L2@M@flann@@@2@@Z
	??$save@VSaveArchive@serialization@flann@@@?$Serializer@UNode@?$KDTreeSingleIndex@U?$L2@M@flann@@@flann@@@serialization@flann@@SAXAEAVSaveArchive@12@AEBUNode@?$KDTreeSingleIndex@U?$L2@M@flann@@@2@@Z
	??$save@VSaveArchive@serialization@flann@@@?$Serializer@UNode@?$KMeansIndex@U?$L2@M@flann@@@flann@@@serialization@flann@@SAXAEAVSaveArchive@12@AEBUNode@?$KMeansIndex@U?$L2@M@flann@@@2@@Z
	??$searchLevel@$00@?$KDTreeIndex@U?$L2@M@flann@@@flann@@AEBAXAEAV?$ResultSet@M@1@PEBMPEAUNode@01@MAEAHHMPEAV?$Heap@U?$BranchStruct@PEAUNode@?$KDTreeIndex@U?$L2@M@flann@@@flann@@M@flann@@@1@AEAVDynamicBitset@1@@Z
	??$searchLevel@$00@?$KDTreeSingleIndex@U?$L2@M@flann@@@flann@@AEBAXAEAV?$ResultSet@M@1@PEBMQEAUNode@01@MAEAV?$vector@MV?$allocator@M@std@@@std@@M@Z
	??$searchLevel@$0A@@?$KDTreeIndex@U?$L2@M@flann@@@flann@@AEBAXAEAV?$ResultSet@M@1@PEBMPEAUNode@01@MAEAHHMPEAV?$Heap@U?$BranchStruct@PEAUNode@?$KDTreeIndex@U?$L2@M@flann@@@flann@@M@flann@@@1@AEAVDynamicBitset@1@@Z
	??$searchLevel@$0A@@?$KDTreeSingleIndex@U?$L2@M@flann@@@flann@@AEBAXAEAV?$ResultSet@M@1@PEBMQEAUNode@01@MAEAV?$vector@MV?$allocator@M@std@@@std@@M@Z
	??$searchLevel@V?$KNNResultSet@MH_K@nanoflann@@@?$KDTreeSingleIndexAdaptor@U?$L2_Simple_Adaptor@MUPointSet@easy3d@@MI@nanoflann@@UPointSet@easy3d@@$02H@nanoflann@@QEBA_NAEAV?$KNNResultSet@MH_K@1@PEBMQEAUNode@?$KDTreeBaseClass@V?$KDTreeSingleIndexAdaptor@U?$L2_Simple_Adaptor@MUPointSet@easy3d@@MI@nanoflann@@UPointSet@easy3d@@$02H@nanoflann@@U?$L2_Simple_Adaptor@MUPointSet@easy3d@@MI@2@UPointSet@easy3d@@$02H@1@MAEAV?$array@M$02@std@@M@Z
	??$searchLevel@V?$KNNResultSet@M_K_K@nanoflann@@@?$KDTreeSingleIndexAdaptor@U?$L2_Simple_Adaptor@MUPointSet@easy3d@@MI@nanoflann@@UPointSet@easy3d@@$02H@nanoflann@@QEBA_NAEAV?$KNNResultSet@M_K_K@1@PEBMQEAUNode@?$KDTreeBaseClass@V?$KDTreeSingleIndexAdaptor@U?$L2_Simple_Adaptor@MUPointSet@easy3d@@MI@nanoflann@@UPointSet@easy3d@@$02H@nanoflann@@U?$L2_Simple_Adaptor@MUPointSet@easy3d@@MI@2@UPointSet@easy3d@@$02H@1@MAEAV?$array@M$02@std@@M@Z
	??$searchLevel@V?$RadiusResultSet@MH@nanoflann@@@?$KDTreeSingleIndexAdaptor@U?$L2_Simple_Adaptor@MUPointSet@easy3d@@MI@nanoflann@@UPointSet@easy3d@@$02H@nanoflann@@QEBA_NAEAV?$RadiusResultSet@MH@1@PEBMQEAUNode@?$KDTreeBaseClass@V?$KDTreeSingleIndexAdaptor@U?$L2_Simple_Adaptor@MUPointSet@easy3d@@MI@nanoflann@@UPointSet@easy3d@@$02H@nanoflann@@U?$L2_Simple_Adaptor@MUPointSet@easy3d@@MI@2@UPointSet@easy3d@@$02H@1@MAEAV?$array@M$02@std@@M@Z
	??$searchLevelExact@$00@?$KDTreeIndex@U?$L2@M@flann@@@flann@@AEBAXAEAV?$ResultSet@M@1@PEBMQEAUNode@01@MM@Z
	??$searchLevelExact@$0A@@?$KDTreeIndex@U?$L2@M@flann@@@flann@@AEBAXAEAV?$ResultSet@M@1@PEBMQEAUNode@01@MM@Z
	??$search_with_ground_truth@V?$KDTreeIndex@U?$L2@M@flann@@@flann@@U?$L2@M@2@@flann@@YAMAEAV?$KDTreeIndex@U?$L2@M@flann@@@0@AEBV?$Matrix@M@0@1AEBV?$Matrix@_K@0@HHAEAM3AEBU?$L2@M@0@H@Z
	??$search_with_ground_truth@V?$KMeansIndex@U?$L2@M@flann@@@flann@@U?$L2@M@2@@flann@@YAMAEAV?$KMeansIndex@U?$L2@M@flann@@@0@AEBV?$Matrix@M@0@1AEBV?$Matrix@_K@0@HHAEAM3AEBU?$L2@M@0@H@Z
	??$search_with_ground_truth@V?$NNIndex@U?$L2@M@flann@@@flann@@U?$L2@M@2@@flann@@YAMAEAV?$NNIndex@U?$L2@M@flann@@@0@AEBV?$Matrix@M@0@1AEBV?$Matrix@_K@0@HHAEAM3AEBU?$L2@M@0@H@Z
	??$serialize@VLoadArchive@serialization@flann@@@?$AutotunedIndex@U?$L2@M@flann@@@flann@@QEAAXAEAVLoadArchive@serialization@1@@Z
	??$serialize@VLoadArchive@serialization@flann@@@?$HierarchicalClusteringIndex@U?$L2@M@flann@@@flann@@QEAAXAEAVLoadArchive@serialization@1@@Z
	??$serialize@VLoadArchive@serialization@flann@@@?$KDTreeIndex@U?$L2@M@flann@@@flann@@QEAAXAEAVLoadArchive@serialization@1@@Z
	??$serialize@VLoadArchive@serialization@flann@@@?$KDTreeSingleIndex@U?$L2@M@flann@@@flann@@QEAAXAEAVLoadArchive@serialization@1@@Z
	??$serialize@VLoadArchive@serialization@flann@@@?$KMeansIndex@U?$L2@M@flann@@@flann@@QEAAXAEAVLoadArchive@serialization@1@@Z
	??$serialize@VLoadArchive@serialization@flann@@@?$LshIndex@U?$L2@M@flann@@@flann@@QEAAXAEAVLoadArchive@serialization@1@@Z
	??$serialize@VLoadArchive@serialization@flann@@@?$NNIndex@U?$L2@M@flann@@@flann@@QEAAXAEAVLoadArchive@serialization@1@@Z
	??$serialize@VLoadArchive@serialization@flann@@@Node@?$HierarchicalClusteringIndex@U?$L2@M@flann@@@flann@@AEAAXAEAVLoadArchive@serialization@2@@Z
	??$serialize@VLoadArchive@serialization@flann@@@Node@?$KDTreeIndex@U?$L2@M@flann@@@flann@@AEAAXAEAVLoadArchive@serialization@2@@Z
	??$serialize@VLoadArchive@serialization@flann@@@Node@?$KDTreeSingleIndex@U?$L2@M@flann@@@flann@@AEAAXAEAVLoadArchive@serialization@2@@Z
	??$serialize@VLoadArchive@serialization@flann@@@Node@?$KMeansIndex@U?$L2@M@flann@@@flann@@QEAAXAEAVLoadArchive@serialization@2@@Z
	??$serialize@VLoadArchive@serialization@flann@@UNode@?$KDTreeIndex@U?$L2@M@flann@@@3@@access@serialization@flann@@SAXAEAVLoadArchive@12@AEAUNode@?$KDTreeIndex@U?$L2@M@flann@@@2@@Z
	??$serialize@VLoadArchive@serialization@flann@@UNode@?$KDTreeIndex@U?$L2@M@flann@@@3@@serialization@flann@@YAXAEAVLoadArchive@01@AEAUNode@?$KDTreeIndex@U?$L2@M@flann@@@1@@Z
	??$serialize@VSaveArchive@serialization@flann@@@?$HierarchicalClusteringIndex@U?$L2@M@flann@@@flann@@QEAAXAEAVSaveArchive@serialization@1@@Z
	??$serialize@VSaveArchive@serialization@flann@@@?$KDTreeSingleIndex@U?$L2@M@flann@@@flann@@QEAAXAEAVSaveArchive@serialization@1@@Z
	??$serialize@VSaveArchive@serialization@flann@@@?$LshTable@M@lsh@flann@@AEAAXAEAVSaveArchive@serialization@2@@Z
	??$serialize@VSaveArchive@serialization@flann@@@?$NNIndex@U?$L2@M@flann@@@flann@@QEAAXAEAVSaveArchive@serialization@1@@Z
	??$serialize@VSaveArchive@serialization@flann@@@Node@?$HierarchicalClusteringIndex@U?$L2@M@flann@@@flann@@AEAAXAEAVSaveArchive@serialization@2@@Z
	??$serialize@VSaveArchive@serialization@flann@@@Node@?$KDTreeIndex@U?$L2@M@flann@@@flann@@AEAAXAEAVSaveArchive@serialization@2@@Z
	??$serialize@VSaveArchive@serialization@flann@@@Node@?$KDTreeSingleIndex@U?$L2@M@flann@@@flann@@AEAAXAEAVSaveArchive@serialization@2@@Z
	??$serialize@VSaveArchive@serialization@flann@@@Node@?$KMeansIndex@U?$L2@M@flann@@@flann@@QEAAXAEAVSaveArchive@serialization@2@@Z
	??$serialize@VSaveArchive@serialization@flann@@UNode@?$HierarchicalClusteringIndex@U?$L2@M@flann@@@3@@access@serialization@flann@@SAXAEAVSaveArchive@12@AEAUNode@?$HierarchicalClusteringIndex@U?$L2@M@flann@@@2@@Z
	??$serialize@VSaveArchive@serialization@flann@@UNode@?$HierarchicalClusteringIndex@U?$L2@M@flann@@@3@@serialization@flann@@YAXAEAVSaveArchive@01@AEAUNode@?$HierarchicalClusteringIndex@U?$L2@M@flann@@@1@@Z
	??$serialize@VSaveArchive@serialization@flann@@UNode@?$KDTreeIndex@U?$L2@M@flann@@@3@@access@serialization@flann@@SAXAEAVSaveArchive@12@AEAUNode@?$KDTreeIndex@U?$L2@M@flann@@@2@@Z
	??$serialize@VSaveArchive@serialization@flann@@UNode@?$KDTreeIndex@U?$L2@M@flann@@@3@@serialization@flann@@YAXAEAVSaveArchive@01@AEAUNode@?$KDTreeIndex@U?$L2@M@flann@@@1@@Z
	??$serialize@VSaveArchive@serialization@flann@@UNode@?$KDTreeSingleIndex@U?$L2@M@flann@@@3@@access@serialization@flann@@SAXAEAVSaveArchive@12@AEAUNode@?$KDTreeSingleIndex@U?$L2@M@flann@@@2@@Z
	??$serialize@VSaveArchive@serialization@flann@@UNode@?$KDTreeSingleIndex@U?$L2@M@flann@@@3@@serialization@flann@@YAXAEAVSaveArchive@01@AEAUNode@?$KDTreeSingleIndex@U?$L2@M@flann@@@1@@Z
	??$serialize@VSaveArchive@serialization@flann@@UNode@?$KMeansIndex@U?$L2@M@flann@@@3@@access@serialization@flann@@SAXAEAVSaveArchive@12@AEAUNode@?$KMeansIndex@U?$L2@M@flann@@@2@@Z
	??$serialize@VSaveArchive@serialization@flann@@UNode@?$KMeansIndex@U?$L2@M@flann@@@3@@serialization@flann@@YAXAEAVSaveArchive@01@AEAUNode@?$KMeansIndex@U?$L2@M@flann@@@1@@Z
	??$shuffle@V?$_Vector_iterator@V?$_Vector_val@U?$_Simple_types@H@std@@@std@@@std@@AEAU_Rand_urng_from_func@2@@std@@YAXV?$_Vector_iterator@V?$_Vector_val@U?$_Simple_types@H@std@@@std@@@0@0AEAU_Rand_urng_from_func@0@@Z
	??$test_index_precision@V?$KDTreeIndex@U?$L2@M@flann@@@flann@@U?$L2@M@2@@flann@@YAMAEAV?$KDTreeIndex@U?$L2@M@flann@@@0@AEBV?$Matrix@M@0@1AEBV?$Matrix@_K@0@MAEAHAEBU?$L2@M@0@HH@Z
	??$test_index_precision@V?$KMeansIndex@U?$L2@M@flann@@@flann@@U?$L2@M@2@@flann@@YAMAEAV?$KMeansIndex@U?$L2@M@flann@@@0@AEBV?$Matrix@M@0@1AEBV?$Matrix@_K@0@MAEAHAEBU?$L2@M@0@HH@Z
	??$test_index_precision@V?$NNIndex@U?$L2@M@flann@@@flann@@U?$L2@M@2@@flann@@YAMAEAV?$NNIndex@U?$L2@M@flann@@@0@AEBV?$Matrix@M@0@1AEBV?$Matrix@_K@0@MAEAHAEBU?$L2@M@0@HH@Z
	??0?$AutotunedIndex@U?$L2@M@flann@@@flann@@QEAA@AEBV?$Matrix@M@1@AEBV?$map@V?$basic_string@DU?$char_traits@D@std@@V?$allocator@D@2@@std@@Vany@flann@@U?$less@V?$basic_string@DU?$char_traits@D@std@@V?$allocator@D@2@@std@@@2@V?$allocator@U?$pair@$$CBV?$basic_string@DU?$char_traits@D@std@@V?$allocator@D@2@@std@@Vany@flann@@@std@@@2@@std@@U?$L2@M@1@@Z
	??0?$Heap@U?$BranchStruct@PEAUNode@?$KMeansIndex@U?$L2@M@flann@@@flann@@M@flann@@@flann@@QEAA@H@Z
	??0?$HierarchicalClusteringIndex@U?$L2@M@flann@@@flann@@QEAA@AEBV01@@Z
	??0?$HierarchicalClusteringIndex@U?$L2@M@flann@@@flann@@QEAA@AEBV?$Matrix@M@1@AEBV?$map@V?$basic_string@DU?$char_traits@D@std@@V?$allocator@D@2@@std@@Vany@flann@@U?$less@V?$basic_string@DU?$char_traits@D@std@@V?$allocator@D@2@@std@@@2@V?$allocator@U?$pair@$$CBV?$basic_string@DU?$char_traits@D@std@@V?$allocator@D@2@@std@@Vany@flann@@@std@@@2@@std@@U?$L2@M@1@@Z
	??0?$Index@U?$L2@M@flann@@@flann@@QEAA@AEBV?$Matrix@M@1@AEBV?$map@V?$basic_string@DU?$char_traits@D@std@@V?$allocator@D@2@@std@@Vany@flann@@U?$less@V?$basic_string@DU?$char_traits@D@std@@V?$allocator@D@2@@std@@@2@V?$allocator@U?$pair@$$CBV?$basic_string@DU?$char_traits@D@std@@V?$allocator@D@2@@std@@Vany@flann@@@std@@@2@@std@@U?$L2@M@1@@Z
	??0?$KDTreeIndex@U?$L2@M@flann@@@flann@@QEAA@AEBV01@@Z
	??0?$KDTreeIndex@U?$L2@M@flann@@@flann@@QEAA@AEBV?$Matrix@M@1@AEBV?$map@V?$basic_string@DU?$char_traits@D@std@@V?$allocator@D@2@@std@@Vany@flann@@U?$less@V?$basic_string@DU?$char_traits@D@std@@V?$allocator@D@2@@std@@@2@V?$allocator@U?$pair@$$CBV?$basic_string@DU?$char_traits@D@std@@V?$allocator@D@2@@std@@Vany@flann@@@std@@@2@@std@@U?$L2@M@1@@Z
	??0?$KMeansIndex@U?$L2@M@flann@@@flann@@QEAA@AEBV?$Matrix@M@1@AEBV?$map@V?$basic_string@DU?$char_traits@D@std@@V?$allocator@D@2@@std@@Vany@flann@@U?$less@V?$basic_string@DU?$char_traits@D@std@@V?$allocator@D@2@@std@@@2@V?$allocator@U?$pair@$$CBV?$basic_string@DU?$char_traits@D@std@@V?$allocator@D@2@@std@@Vany@flann@@@std@@@2@@std@@U?$L2@M@1@@Z
	??0?$LshIndex@U?$L2@M@flann@@@flann@@QEAA@AEBV?$Matrix@M@1@AEBV?$map@V?$basic_string@DU?$char_traits@D@std@@V?$allocator@D@2@@std@@Vany@flann@@U?$less@V?$basic_string@DU?$char_traits@D@std@@V?$allocator@D@2@@std@@@2@V?$allocator@U?$pair@$$CBV?$basic_string@DU?$char_traits@D@std@@V?$allocator@D@2@@std@@Vany@flann@@@std@@@2@@std@@U?$L2@M@1@@Z
	??0?$LshTable@M@lsh@flann@@QEAA@AEBV012@@Z
	??0?$LshTable@M@lsh@flann@@QEAA@II@Z
	??0?$NNIndex@U?$L2@M@flann@@@flann@@QEAA@AEBV01@@Z
	??0?$NNIndex@U?$L2@M@flann@@@flann@@QEAA@AEBV?$map@V?$basic_string@DU?$char_traits@D@std@@V?$allocator@D@2@@std@@Vany@flann@@U?$less@V?$basic_string@DU?$char_traits@D@std@@V?$allocator@D@2@@std@@@2@V?$allocator@U?$pair@$$CBV?$basic_string@DU?$char_traits@D@std@@V?$allocator@D@2@@std@@Vany@flann@@@std@@@2@@std@@U?$L2@M@1@@Z
	??0?$basic_string@DU?$char_traits@D@std@@V?$allocator@D@2@@std@@QEAA@AEBV01@@Z
	??0?$basic_string@DU?$char_traits@D@std@@V?$allocator@D@2@@std@@QEAA@QEBD@Z
	??0?$basic_string@DU?$char_traits@D@std@@V?$allocator@D@2@@std@@QEAA@U_String_constructor_concat_tag@1@AEAV01@1@Z
	??0?$map@IV?$vector@IV?$allocator@I@std@@@std@@U?$less@I@2@V?$allocator@U?$pair@$$CBIV?$vector@IV?$allocator@I@std@@@std@@@std@@@2@@std@@QEAA@XZ
	??0?$vector@HV?$allocator@H@std@@@std@@QEAA@AEBV01@@Z
	??0?$vector@IV?$allocator@I@std@@@std@@QEAA@AEBV01@@Z
	??0?$vector@MV?$allocator@M@std@@@std@@QEAA@_KAEBMAEBV?$allocator@M@1@@Z
	??0?$vector@PEAMV?$allocator@PEAM@std@@@std@@QEAA@AEBV01@@Z
	??0?$vector@UInterval@?$KDTreeSingleIndex@U?$L2@M@flann@@@flann@@V?$allocator@UInterval@?$KDTreeSingleIndex@U?$L2@M@flann@@@flann@@@std@@@std@@QEAA@AEBV01@@Z
	??0?$vector@V?$LshTable@M@lsh@flann@@V?$allocator@V?$LshTable@M@lsh@flann@@@std@@@std@@QEAA@AEBV01@@Z
	??0?$vector@V?$vector@IV?$allocator@I@std@@@std@@V?$allocator@V?$vector@IV?$allocator@I@std@@@std@@@2@@std@@QEAA@XZ
	??0?$vector@_KV?$allocator@_K@std@@@std@@QEAA@AEBV01@@Z
	??0?$vector@_KV?$allocator@_K@std@@@std@@QEAA@XZ
	??0CostData@?$AutotunedIndex@U?$L2@M@flann@@@flann@@QEAA@AEBU012@@Z
	??0DynamicBitset@flann@@QEAA@XZ
	??0FLANNException@flann@@QEAA@AEBV01@@Z
	??0FLANNException@flann@@QEAA@AEBV?$basic_string@DU?$char_traits@D@std@@V?$allocator@D@2@@std@@@Z
	??0FLANNException@flann@@QEAA@PEBD@Z
	??0KDTreeSingleIndexParams@flann@@QEAA@H_N@Z
	??0KdTree@easy3d@@QEAA@PEAUPointSet@1@@Z
	??0KdTreeSearch@easy3d@@QEAA@AEBV?$vector@V?$Vec@$02M@easy3d@@V?$allocator@V?$Vec@$02M@easy3d@@@std@@@std@@@Z
	??0KdTreeSearch@easy3d@@QEAA@PEBVPointCloud@1@@Z
	??0KdTreeSearch_ANN@easy3d@@QEAA@AEBV?$vector@V?$Vec@$02M@easy3d@@V?$allocator@V?$Vec@$02M@easy3d@@@std@@@std@@@Z
	??0KdTreeSearch_ANN@easy3d@@QEAA@PEBVPointCloud@1@@Z
	??0KdTreeSearch_ETH@easy3d@@QEAA@AEBV?$vector@V?$Vec@$02M@easy3d@@V?$allocator@V?$Vec@$02M@easy3d@@@std@@@std@@@Z
	??0KdTreeSearch_ETH@easy3d@@QEAA@PEBVPointCloud@1@@Z
	??0KdTreeSearch_FLANN@easy3d@@QEAA@AEBV?$vector@V?$Vec@$02M@easy3d@@V?$allocator@V?$Vec@$02M@easy3d@@@std@@@std@@@Z
	??0KdTreeSearch_FLANN@easy3d@@QEAA@PEBVPointCloud@1@@Z
	??0KdTreeSearch_NanoFLANN@easy3d@@QEAA@AEBV?$vector@V?$Vec@$02M@easy3d@@V?$allocator@V?$Vec@$02M@easy3d@@@std@@@std@@@Z
	??0KdTreeSearch_NanoFLANN@easy3d@@QEAA@PEBVPointCloud@1@@Z
	??0LinearIndexParams@flann@@QEAA@XZ
	??0UniqueRandom@flann@@QEAA@H@Z
	??0bad_alloc@std@@QEAA@AEBV01@@Z
	??0bad_alloc@std@@QEAA@XZ
	??0bad_any_cast@anyimpl@flann@@QEAA@AEBU012@@Z
	??0bad_any_cast@anyimpl@flann@@QEAA@XZ
	??0bad_array_new_length@std@@QEAA@AEBV01@@Z
	??0bad_array_new_length@std@@QEAA@XZ
	??0exception@std@@QEAA@AEBV01@@Z
	??0logic_error@std@@QEAA@AEBV01@@Z
	??0runtime_error@std@@QEAA@AEBV01@@Z
	??0runtime_error@std@@QEAA@PEBD@Z
	??1?$AutotunedIndex@U?$L2@M@flann@@@flann@@UEAA@XZ
	??1?$CenterChooser@U?$L2@M@flann@@@flann@@UEAA@XZ
	??1?$CompositeIndex@U?$L2@M@flann@@@flann@@UEAA@XZ
	??1?$CountRadiusResultSet@M@flann@@UEAA@XZ
	??1?$HierarchicalClusteringIndex@U?$L2@M@flann@@@flann@@UEAA@XZ
	??1?$Index@U?$L2@M@flann@@@flann@@UEAA@XZ
	??1?$KDTreeBaseClass@V?$KDTreeSingleIndexAdaptor@U?$L2_Simple_Adaptor@MUPointSet@easy3d@@MI@nanoflann@@UPointSet@easy3d@@$02H@nanoflann@@U?$L2_Simple_Adaptor@MUPointSet@easy3d@@MI@2@UPointSet@easy3d@@$02H@nanoflann@@QEAA@XZ
	??1?$KDTreeIndex@U?$L2@M@flann@@@flann@@UEAA@XZ
	??1?$KDTreeSingleIndex@U?$L2@M@flann@@@flann@@UEAA@XZ
	??1?$KMeansIndex@U?$L2@M@flann@@@flann@@UEAA@XZ
	??1?$KNNRadiusResultSet@M@flann@@UEAA@XZ
	??1?$KNNResultSet2@M@flann@@UEAA@XZ
	??1?$KNNResultSet@M@flann@@UEAA@XZ
	??1?$KNNSimpleResultSet@M@flann@@UEAA@XZ
	??1?$KNNUniqueResultSet@M@flann@@UEAA@XZ
	??1?$LinearIndex@U?$L2@M@flann@@@flann@@UEAA@XZ
	??1?$LshIndex@U?$L2@M@flann@@@flann@@UEAA@XZ
	??1?$LshTable@M@lsh@flann@@QEAA@XZ
	??1?$NNIndex@U?$L2@M@flann@@@flann@@UEAA@XZ
	??1?$RadiusResultSet@M@flann@@UEAA@XZ
	??1?$ResultSet@M@flann@@UEAA@XZ
	??1?$UniqueResultSet@M@flann@@UEAA@XZ
	??1?$_Alloc_construct_ptr@V?$allocator@U?$_Tree_node@U?$pair@$$CBIV?$vector@IV?$allocator@I@std@@@std@@@std@@PEAX@std@@@std@@@std@@QEAA@XZ
	??1?$_Alloc_construct_ptr@V?$allocator@U?$_Tree_node@U?$pair@$$CBV?$basic_string@DU?$char_traits@D@std@@V?$allocator@D@2@@std@@Vany@flann@@@std@@PEAX@std@@@std@@@std@@QEAA@XZ
	??1?$_Alloc_construct_ptr@V?$allocator@U?$_Tree_node@UDistIndex@?$UniqueResultSet@M@flann@@PEAX@std@@@std@@@std@@QEAA@XZ
	??1?$_Tidy_guard@V?$vector@V?$LshTable@M@lsh@flann@@V?$allocator@V?$LshTable@M@lsh@flann@@@std@@@std@@@std@@QEAA@XZ
	??1?$_Tidy_guard@V?$vector@V?$vector@IV?$allocator@I@std@@@std@@V?$allocator@V?$vector@IV?$allocator@I@std@@@std@@@2@@std@@@std@@QEAA@XZ
	??1?$_Tree_head_scoped_ptr@V?$allocator@U?$_Tree_node@U?$pair@$$CBIV?$vector@IV?$allocator@I@std@@@std@@@std@@PEAX@std@@@std@@V?$_Tree_val@U?$_Tree_simple_types@U?$pair@$$CBIV?$vector@IV?$allocator@I@std@@@std@@@std@@@std@@@2@@std@@QEAA@XZ
	??1?$_Tree_head_scoped_ptr@V?$allocator@U?$_Tree_node@U?$pair@$$CBV?$basic_string@DU?$char_traits@D@std@@V?$allocator@D@2@@std@@Vany@flann@@@std@@PEAX@std@@@std@@V?$_Tree_val@U?$_Tree_simple_types@U?$pair@$$CBV?$basic_string@DU?$char_traits@D@std@@V?$allocator@D@2@@std@@Vany@flann@@@std@@@std@@@2@@std@@QEAA@XZ
	??1?$_Uninitialized_backout_al@V?$allocator@UCostData@?$AutotunedIndex@U?$L2@M@flann@@@flann@@@std@@@std@@QEAA@XZ
	??1?$_Uninitialized_backout_al@V?$allocator@V?$LshTable@M@lsh@flann@@@std@@@std@@QEAA@XZ
	??1?$_Uninitialized_backout_al@V?$allocator@V?$vector@IV?$allocator@I@std@@@std@@@std@@@std@@QEAA@XZ
	??1?$basic_string@DU?$char_traits@D@std@@V?$allocator@D@2@@std@@QEAA@XZ
	??1?$map@IV?$vector@IV?$allocator@I@std@@@std@@U?$less@I@2@V?$allocator@U?$pair@$$CBIV?$vector@IV?$allocator@I@std@@@std@@@std@@@2@@std@@QEAA@XZ
	??1?$map@V?$basic_string@DU?$char_traits@D@std@@V?$allocator@D@2@@std@@Vany@flann@@U?$less@V?$basic_string@DU?$char_traits@D@std@@V?$allocator@D@2@@std@@@2@V?$allocator@U?$pair@$$CBV?$basic_string@DU?$char_traits@D@std@@V?$allocator@D@2@@std@@Vany@flann@@@std@@@2@@std@@QEAA@XZ
	??1?$pair@$$CBV?$basic_string@DU?$char_traits@D@std@@V?$allocator@D@2@@std@@Vany@flann@@@std@@QEAA@XZ
	??1?$vector@HV?$allocator@H@std@@@std@@QEAA@XZ
	??1?$vector@IV?$allocator@I@std@@@std@@QEAA@XZ
	??1?$vector@MV?$allocator@M@std@@@std@@QEAA@XZ
	??1?$vector@PEAMV?$allocator@PEAM@std@@@std@@QEAA@XZ
	??1?$vector@PEAUNode@?$HierarchicalClusteringIndex@U?$L2@M@flann@@@flann@@V?$allocator@PEAUNode@?$HierarchicalClusteringIndex@U?$L2@M@flann@@@flann@@@std@@@std@@QEAA@XZ
	??1?$vector@PEAUNode@?$KDTreeIndex@U?$L2@M@flann@@@flann@@V?$allocator@PEAUNode@?$KDTreeIndex@U?$L2@M@flann@@@flann@@@std@@@std@@QEAA@XZ
	??1?$vector@U?$BranchStruct@PEAUNode@?$HierarchicalClusteringIndex@U?$L2@M@flann@@@flann@@M@flann@@V?$allocator@U?$BranchStruct@PEAUNode@?$HierarchicalClusteringIndex@U?$L2@M@flann@@@flann@@M@flann@@@std@@@std@@QEAA@XZ
	??1?$vector@U?$BranchStruct@PEAUNode@?$KDTreeIndex@U?$L2@M@flann@@@flann@@M@flann@@V?$allocator@U?$BranchStruct@PEAUNode@?$KDTreeIndex@U?$L2@M@flann@@@flann@@M@flann@@@std@@@std@@QEAA@XZ
	??1?$vector@U?$BranchStruct@PEAUNode@?$KMeansIndex@U?$L2@M@flann@@@flann@@M@flann@@V?$allocator@U?$BranchStruct@PEAUNode@?$KMeansIndex@U?$L2@M@flann@@@flann@@M@flann@@@std@@@std@@QEAA@XZ
	??1?$vector@U?$DistanceIndex@M@flann@@V?$allocator@U?$DistanceIndex@M@flann@@@std@@@std@@QEAA@XZ
	??1?$vector@U?$pair@HM@std@@V?$allocator@U?$pair@HM@std@@@2@@std@@QEAA@XZ
	??1?$vector@U?$pair@_KPEAM@std@@V?$allocator@U?$pair@_KPEAM@std@@@2@@std@@QEAA@XZ
	??1?$vector@UCostData@?$AutotunedIndex@U?$L2@M@flann@@@flann@@V?$allocator@UCostData@?$AutotunedIndex@U?$L2@M@flann@@@flann@@@std@@@std@@QEAA@XZ
	??1?$vector@UInterval@?$KDTreeSingleIndex@U?$L2@M@flann@@@flann@@V?$allocator@UInterval@?$KDTreeSingleIndex@U?$L2@M@flann@@@flann@@@std@@@std@@QEAA@XZ
	??1?$vector@V?$LshTable@M@lsh@flann@@V?$allocator@V?$LshTable@M@lsh@flann@@@std@@@std@@QEAA@XZ
	??1?$vector@V?$basic_string@DU?$char_traits@D@std@@V?$allocator@D@2@@std@@V?$allocator@V?$basic_string@DU?$char_traits@D@std@@V?$allocator@D@2@@std@@@2@@std@@QEAA@XZ
	??1?$vector@V?$vector@HV?$allocator@H@std@@@std@@V?$allocator@V?$vector@HV?$allocator@H@std@@@std@@@2@@std@@QEAA@XZ
	??1?$vector@V?$vector@IV?$allocator@I@std@@@std@@V?$allocator@V?$vector@IV?$allocator@I@std@@@std@@@2@@std@@QEAA@XZ
	??1?$vector@V?$vector@MV?$allocator@M@std@@@std@@V?$allocator@V?$vector@MV?$allocator@M@std@@@std@@@2@@std@@QEAA@XZ
	??1?$vector@V?$vector@_KV?$allocator@_K@std@@@std@@V?$allocator@V?$vector@_KV?$allocator@_K@std@@@std@@@2@@std@@QEAA@XZ
	??1?$vector@_KV?$allocator@_K@std@@@std@@QEAA@XZ
	??1CostData@?$AutotunedIndex@U?$L2@M@flann@@@flann@@QEAA@XZ
	??1DynamicBitset@flann@@QEAA@XZ
	??1FLANNException@flann@@UEAA@XZ
	??1IndexBase@flann@@UEAA@XZ
	??1KDTreeSingleIndexParams@flann@@QEAA@XZ
	??1KdTreeSearch@easy3d@@UEAA@XZ
	??1KdTreeSearch_ANN@easy3d@@UEAA@XZ
	??1KdTreeSearch_ETH@easy3d@@UEAA@XZ
	??1KdTreeSearch_FLANN@easy3d@@UEAA@XZ
	??1KdTreeSearch_NanoFLANN@easy3d@@UEAA@XZ
	??1LinearIndexParams@flann@@QEAA@XZ
	??1LoadArchive@serialization@flann@@QEAA@XZ
	??1Node@?$HierarchicalClusteringIndex@U?$L2@M@flann@@@flann@@QEAA@XZ
	??1Node@?$KDTreeIndex@U?$L2@M@flann@@@flann@@QEAA@XZ
	??1Node@?$KDTreeSingleIndex@U?$L2@M@flann@@@flann@@QEAA@XZ
	??1Node@?$KMeansIndex@U?$L2@M@flann@@@flann@@QEAA@XZ
	??1PooledAllocator@flann@@QEAA@XZ
	??1SaveArchive@serialization@flann@@QEAA@XZ
	??1UniqueRandom@flann@@QEAA@XZ
	??1Writer@base@el@@UEAA@XZ
	??1_Sentry_base@?$basic_ostream@DU?$char_traits@D@std@@@std@@QEAA@XZ
	??1any@flann@@QEAA@XZ
	??1bad_alloc@std@@UEAA@XZ
	??1bad_any_cast@anyimpl@flann@@UEAA@XZ
	??1bad_array_new_length@std@@UEAA@XZ
	??1exception@std@@UEAA@XZ
	??1logic_error@std@@UEAA@XZ
	??1runtime_error@std@@UEAA@XZ
	??1sentry@?$basic_ostream@DU?$char_traits@D@std@@@std@@QEAA@XZ
	??2@YAPEAX_KAEAVPooledAllocator@flann@@@Z
	??4?$map@V?$basic_string@DU?$char_traits@D@std@@V?$allocator@D@2@@std@@Vany@flann@@U?$less@V?$basic_string@DU?$char_traits@D@std@@V?$allocator@D@2@@std@@@2@V?$allocator@U?$pair@$$CBV?$basic_string@DU?$char_traits@D@std@@V?$allocator@D@2@@std@@Vany@flann@@@std@@@2@@std@@QEAAAEAV01@$$QEAV01@@Z
	??A?$map@V?$basic_string@DU?$char_traits@D@std@@V?$allocator@D@2@@std@@Vany@flann@@U?$less@V?$basic_string@DU?$char_traits@D@std@@V?$allocator@D@2@@std@@@2@V?$allocator@U?$pair@$$CBV?$basic_string@DU?$char_traits@D@std@@V?$allocator@D@2@@std@@Vany@flann@@@std@@@2@@std@@QEAAAEAVany@flann@@$$QEAV?$basic_string@DU?$char_traits@D@std@@V?$allocator@D@2@@1@@Z
	??A?$vector@PEAMV?$allocator@PEAM@std@@@std@@QEAAAEAPEAM_K@Z
	??C?$_Vector_const_iterator@V?$_Vector_val@U?$_Simple_types@V?$LshTable@M@lsh@flann@@@std@@@std@@@std@@QEBAPEBV?$LshTable@M@lsh@flann@@XZ
	??C?$reverse_iterator@V?$_Tree_const_iterator@V?$_Tree_val@U?$_Tree_simple_types@UDistIndex@?$UniqueResultSet@M@flann@@@std@@@std@@@std@@@std@@QEBAPEBUDistIndex@?$UniqueResultSet@M@flann@@XZ
	??R?$GonzalesCenterChooser@U?$L2@M@flann@@@flann@@UEAAXHPEAHH0AEAH@Z
	??R?$KMeansppCenterChooser@U?$L2@M@flann@@@flann@@UEAAXHPEAHH0AEAH@Z
	??R?$RandomCenterChooser@U?$L2@M@flann@@@flann@@UEAAXHPEAHH0AEAH@Z
	??R?$less@V?$basic_string@DU?$char_traits@D@std@@V?$allocator@D@2@@std@@@std@@QEBA_NAEBV?$basic_string@DU?$char_traits@D@std@@V?$allocator@D@2@@1@0@Z
	??_7?$AutotunedIndex@U?$L2@M@flann@@@flann@@6B@
	??_7?$CenterChooser@U?$L2@M@flann@@@flann@@6B@
	??_7?$CompositeIndex@U?$L2@M@flann@@@flann@@6B@
	??_7?$CountRadiusResultSet@M@flann@@6B@
	??_7?$GonzalesCenterChooser@U?$L2@M@flann@@@flann@@6B@
	??_7?$HierarchicalClusteringIndex@U?$L2@M@flann@@@flann@@6B@
	??_7?$Index@U?$L2@M@flann@@@flann@@6B@
	??_7?$KDTreeIndex@U?$L2@M@flann@@@flann@@6B@
	??_7?$KDTreeSingleIndex@U?$L2@M@flann@@@flann@@6B@
	??_7?$KMeansIndex@U?$L2@M@flann@@@flann@@6B@
	??_7?$KMeansppCenterChooser@U?$L2@M@flann@@@flann@@6B@
	??_7?$KNNRadiusResultSet@M@flann@@6B@
	??_7?$KNNResultSet2@M@flann@@6B@
	??_7?$KNNResultSet@M@flann@@6B@
	??_7?$KNNSimpleResultSet@M@flann@@6B@
	??_7?$KNNUniqueResultSet@M@flann@@6B@
	??_7?$LinearIndex@U?$L2@M@flann@@@flann@@6B@
	??_7?$LshIndex@U?$L2@M@flann@@@flann@@6B@
	??_7?$NNIndex@U?$L2@M@flann@@@flann@@6B@
	??_7?$RadiusResultSet@M@flann@@6B@
	??_7?$RandomCenterChooser@U?$L2@M@flann@@@flann@@6B@
	??_7?$ResultSet@M@flann@@6B@
	??_7?$UniqueResultSet@M@flann@@6B@
	??_7?$big_any_policy@USearchParams@flann@@@anyimpl@flann@@6B@
	??_7?$big_any_policy@Uempty_any@anyimpl@flann@@@anyimpl@flann@@6B@
	??_7?$small_any_policy@H@anyimpl@flann@@6B@
	??_7?$small_any_policy@I@anyimpl@flann@@6B@
	??_7?$small_any_policy@M@anyimpl@flann@@6B@
	??_7?$small_any_policy@W4flann_algorithm_t@flann@@@anyimpl@flann@@6B@
	??_7?$small_any_policy@W4flann_centers_init_t@flann@@@anyimpl@flann@@6B@
	??_7?$small_any_policy@_N@anyimpl@flann@@6B@
	??_7FLANNException@flann@@6B@
	??_7IndexBase@flann@@6B@
	??_7KdTreeSearch@easy3d@@6B@
	??_7KdTreeSearch_ANN@easy3d@@6B@
	??_7KdTreeSearch_ETH@easy3d@@6B@
	??_7KdTreeSearch_FLANN@easy3d@@6B@
	??_7KdTreeSearch_NanoFLANN@easy3d@@6B@
	??_7Writer@base@el@@6B@
	??_7bad_alloc@std@@6B@
	??_7bad_any_cast@anyimpl@flann@@6B@
	??_7bad_array_new_length@std@@6B@
	??_7exception@std@@6B@
	??_7logic_error@std@@6B@
	??_7runtime_error@std@@6B@
	??_H@YAXPEAX_K1P6APEAX0@Z@Z
	??__Flogger@?1??instance@Logger@flann@@CAAEAV12@XZ@YAXXZ
	?_Change_array@?$vector@IV?$allocator@I@std@@@std@@AEAAXQEAI_K1@Z
	?_Change_array@?$vector@U?$BranchStruct@PEAUNode@?$HierarchicalClusteringIndex@U?$L2@M@flann@@@flann@@M@flann@@V?$allocator@U?$BranchStruct@PEAUNode@?$HierarchicalClusteringIndex@U?$L2@M@flann@@@flann@@M@flann@@@std@@@std@@AEAAXQEAU?$BranchStruct@PEAUNode@?$HierarchicalClusteringIndex@U?$L2@M@flann@@@flann@@M@flann@@_K1@Z
	?_Change_array@?$vector@U?$BranchStruct@PEAUNode@?$KDTreeIndex@U?$L2@M@flann@@@flann@@M@flann@@V?$allocator@U?$BranchStruct@PEAUNode@?$KDTreeIndex@U?$L2@M@flann@@@flann@@M@flann@@@std@@@std@@AEAAXQEAU?$BranchStruct@PEAUNode@?$KDTreeIndex@U?$L2@M@flann@@@flann@@M@flann@@_K1@Z
	?_Change_array@?$vector@U?$BranchStruct@PEAUNode@?$KMeansIndex@U?$L2@M@flann@@@flann@@M@flann@@V?$allocator@U?$BranchStruct@PEAUNode@?$KMeansIndex@U?$L2@M@flann@@@flann@@M@flann@@@std@@@std@@AEAAXQEAU?$BranchStruct@PEAUNode@?$KMeansIndex@U?$L2@M@flann@@@flann@@M@flann@@_K1@Z
	?_Change_array@?$vector@U?$DistanceIndex@M@flann@@V?$allocator@U?$DistanceIndex@M@flann@@@std@@@std@@AEAAXQEAU?$DistanceIndex@M@flann@@_K1@Z
	?_Change_array@?$vector@U?$pair@_KPEAM@std@@V?$allocator@U?$pair@_KPEAM@std@@@2@@std@@AEAAXQEAU?$pair@_KPEAM@2@_K1@Z
	?_Change_array@?$vector@UCostData@?$AutotunedIndex@U?$L2@M@flann@@@flann@@V?$allocator@UCostData@?$AutotunedIndex@U?$L2@M@flann@@@flann@@@std@@@std@@AEAAXQEAUCostData@?$AutotunedIndex@U?$L2@M@flann@@@flann@@_K1@Z
	?_Change_array@?$vector@UPointInfo@?$HierarchicalClusteringIndex@U?$L2@M@flann@@@flann@@V?$allocator@UPointInfo@?$HierarchicalClusteringIndex@U?$L2@M@flann@@@flann@@@std@@@std@@AEAAXQEAUPointInfo@?$HierarchicalClusteringIndex@U?$L2@M@flann@@@flann@@_K1@Z
	?_Change_array@?$vector@UPointInfo@?$KMeansIndex@U?$L2@M@flann@@@flann@@V?$allocator@UPointInfo@?$KMeansIndex@U?$L2@M@flann@@@flann@@@std@@@std@@AEAAXQEAUPointInfo@?$KMeansIndex@U?$L2@M@flann@@@flann@@_K1@Z
	?_Change_array@?$vector@V?$vector@IV?$allocator@I@std@@@std@@V?$allocator@V?$vector@IV?$allocator@I@std@@@std@@@2@@std@@AEAAXQEAV?$vector@IV?$allocator@I@std@@@2@_K1@Z
	?_Clear_and_reserve_geometric@?$vector@HV?$allocator@H@std@@@std@@AEAAX_K@Z
	?_Erase@?$_Tree@V?$_Tset_traits@UDistIndex@?$UniqueResultSet@M@flann@@U?$less@UDistIndex@?$UniqueResultSet@M@flann@@@std@@V?$allocator@UDistIndex@?$UniqueResultSet@M@flann@@@5@$0A@@std@@@std@@AEAA_KU?$pair@PEAU?$_Tree_node@UDistIndex@?$UniqueResultSet@M@flann@@PEAX@std@@PEAU12@@2@@Z
	?_Extract@?$_Tree_val@U?$_Tree_simple_types@UDistIndex@?$UniqueResultSet@M@flann@@@std@@@std@@QEAAPEAU?$_Tree_node@UDistIndex@?$UniqueResultSet@M@flann@@PEAX@2@V?$_Tree_unchecked_const_iterator@V?$_Tree_val@U?$_Tree_simple_types@UDistIndex@?$UniqueResultSet@M@flann@@@std@@@std@@U_Iterator_base0@2@@2@@Z
	?_Getal@?$_Tree@V?$_Tmap_traits@IV?$vector@IV?$allocator@I@std@@@std@@U?$less@I@2@V?$allocator@U?$pair@$$CBIV?$vector@IV?$allocator@I@std@@@std@@@std@@@2@$0A@@std@@@std@@IEAAAEAV?$allocator@U?$_Tree_node@U?$pair@$$CBIV?$vector@IV?$allocator@I@std@@@std@@@std@@PEAX@std@@@2@XZ
	?_Getal@?$_Tree@V?$_Tmap_traits@V?$basic_string@DU?$char_traits@D@std@@V?$allocator@D@2@@std@@Vany@flann@@U?$less@V?$basic_string@DU?$char_traits@D@std@@V?$allocator@D@2@@std@@@2@V?$allocator@U?$pair@$$CBV?$basic_string@DU?$char_traits@D@std@@V?$allocator@D@2@@std@@Vany@flann@@@std@@@2@$0A@@std@@@std@@IEAAAEAV?$allocator@U?$_Tree_node@U?$pair@$$CBV?$basic_string@DU?$char_traits@D@std@@V?$allocator@D@2@@std@@Vany@flann@@@std@@PEAX@std@@@2@XZ
	?_Insert_node@?$_Tree_val@U?$_Tree_simple_types@U?$pair@$$CBIV?$vector@IV?$allocator@I@std@@@std@@@std@@@std@@@std@@QEAAPEAU?$_Tree_node@U?$pair@$$CBIV?$vector@IV?$allocator@I@std@@@std@@@std@@PEAX@2@U?$_Tree_id@PEAU?$_Tree_node@U?$pair@$$CBIV?$vector@IV?$allocator@I@std@@@std@@@std@@PEAX@std@@@2@QEAU32@@Z
	?_Insert_node@?$_Tree_val@U?$_Tree_simple_types@U?$pair@$$CBV?$basic_string@DU?$char_traits@D@std@@V?$allocator@D@2@@std@@Vany@flann@@@std@@@std@@@std@@QEAAPEAU?$_Tree_node@U?$pair@$$CBV?$basic_string@DU?$char_traits@D@std@@V?$allocator@D@2@@std@@Vany@flann@@@std@@PEAX@2@U?$_Tree_id@PEAU?$_Tree_node@U?$pair@$$CBV?$basic_string@DU?$char_traits@D@std@@V?$allocator@D@2@@std@@Vany@flann@@@std@@PEAX@std@@@2@QEAU32@@Z
	?_Insert_node@?$_Tree_val@U?$_Tree_simple_types@UDistIndex@?$UniqueResultSet@M@flann@@@std@@@std@@QEAAPEAU?$_Tree_node@UDistIndex@?$UniqueResultSet@M@flann@@PEAX@2@U?$_Tree_id@PEAU?$_Tree_node@UDistIndex@?$UniqueResultSet@M@flann@@PEAX@std@@@2@QEAU32@@Z
	?_Lrotate@?$_Tree_val@U?$_Tree_simple_types@UDistIndex@?$UniqueResultSet@M@flann@@@std@@@std@@QEAAXPEAU?$_Tree_node@UDistIndex@?$UniqueResultSet@M@flann@@PEAX@2@@Z
	?_Maklocwcs@std@@YAPEA_WPEB_W@Z
	?_Reallocate_exactly@?$vector@U?$BranchStruct@PEAUNode@?$HierarchicalClusteringIndex@U?$L2@M@flann@@@flann@@M@flann@@V?$allocator@U?$BranchStruct@PEAUNode@?$HierarchicalClusteringIndex@U?$L2@M@flann@@@flann@@M@flann@@@std@@@std@@AEAAX_K@Z
	?_Reallocate_exactly@?$vector@U?$BranchStruct@PEAUNode@?$KDTreeIndex@U?$L2@M@flann@@@flann@@M@flann@@V?$allocator@U?$BranchStruct@PEAUNode@?$KDTreeIndex@U?$L2@M@flann@@@flann@@M@flann@@@std@@@std@@AEAAX_K@Z
	?_Reallocate_exactly@?$vector@U?$BranchStruct@PEAUNode@?$KMeansIndex@U?$L2@M@flann@@@flann@@M@flann@@V?$allocator@U?$BranchStruct@PEAUNode@?$KMeansIndex@U?$L2@M@flann@@@flann@@M@flann@@@std@@@std@@AEAAX_K@Z
	?_Reallocate_exactly@?$vector@U?$DistanceIndex@M@flann@@V?$allocator@U?$DistanceIndex@M@flann@@@std@@@std@@AEAAX_K@Z
	?_Reallocate_exactly@?$vector@U?$pair@_KPEAM@std@@V?$allocator@U?$pair@_KPEAM@std@@@2@@std@@AEAAX_K@Z
	?_Reallocate_exactly@?$vector@UCostData@?$AutotunedIndex@U?$L2@M@flann@@@flann@@V?$allocator@UCostData@?$AutotunedIndex@U?$L2@M@flann@@@flann@@@std@@@std@@AEAAX_K@Z
	?_Rrotate@?$_Tree_val@U?$_Tree_simple_types@UDistIndex@?$UniqueResultSet@M@flann@@@std@@@std@@QEAAXPEAU?$_Tree_node@UDistIndex@?$UniqueResultSet@M@flann@@PEAX@2@@Z
	?_Throw_bad_array_new_length@std@@YAXXZ
	?_Throw_tree_length_error@std@@YAXXZ
	?_Tidy@?$vector@V?$LshTable@M@lsh@flann@@V?$allocator@V?$LshTable@M@lsh@flann@@@std@@@std@@AEAAXXZ
	?_Tidy@?$vector@V?$vector@IV?$allocator@I@std@@@std@@V?$allocator@V?$vector@IV?$allocator@I@std@@@std@@@2@@std@@AEAAXXZ
	?_Xlen_string@std@@YAXXZ
	?_Xlength@?$vector@HV?$allocator@H@std@@@std@@CAXXZ
	?_Xlength@?$vector@IV?$allocator@I@std@@@std@@CAXXZ
	?_Xlength@?$vector@MV?$allocator@M@std@@@std@@CAXXZ
	?_Xlength@?$vector@PEAMV?$allocator@PEAM@std@@@std@@CAXXZ
	?_Xlength@?$vector@PEAUNode@?$HierarchicalClusteringIndex@U?$L2@M@flann@@@flann@@V?$allocator@PEAUNode@?$HierarchicalClusteringIndex@U?$L2@M@flann@@@flann@@@std@@@std@@CAXXZ
	?_Xlength@?$vector@PEAUNode@?$KDTreeIndex@U?$L2@M@flann@@@flann@@V?$allocator@PEAUNode@?$KDTreeIndex@U?$L2@M@flann@@@flann@@@std@@@std@@CAXXZ
	?_Xlength@?$vector@PEAUNode@?$KMeansIndex@U?$L2@M@flann@@@flann@@V?$allocator@PEAUNode@?$KMeansIndex@U?$L2@M@flann@@@flann@@@std@@@std@@CAXXZ
	?_Xlength@?$vector@U?$BranchStruct@PEAUNode@?$HierarchicalClusteringIndex@U?$L2@M@flann@@@flann@@M@flann@@V?$allocator@U?$BranchStruct@PEAUNode@?$HierarchicalClusteringIndex@U?$L2@M@flann@@@flann@@M@flann@@@std@@@std@@CAXXZ
	?_Xlength@?$vector@U?$BranchStruct@PEAUNode@?$KDTreeIndex@U?$L2@M@flann@@@flann@@M@flann@@V?$allocator@U?$BranchStruct@PEAUNode@?$KDTreeIndex@U?$L2@M@flann@@@flann@@M@flann@@@std@@@std@@CAXXZ
	?_Xlength@?$vector@U?$BranchStruct@PEAUNode@?$KMeansIndex@U?$L2@M@flann@@@flann@@M@flann@@V?$allocator@U?$BranchStruct@PEAUNode@?$KMeansIndex@U?$L2@M@flann@@@flann@@M@flann@@@std@@@std@@CAXXZ
	?_Xlength@?$vector@U?$DistanceIndex@M@flann@@V?$allocator@U?$DistanceIndex@M@flann@@@std@@@std@@CAXXZ
	?_Xlength@?$vector@U?$pair@HM@std@@V?$allocator@U?$pair@HM@std@@@2@@std@@CAXXZ
	?_Xlength@?$vector@U?$pair@_KPEAM@std@@V?$allocator@U?$pair@_KPEAM@std@@@2@@std@@CAXXZ
	?_Xlength@?$vector@UCostData@?$AutotunedIndex@U?$L2@M@flann@@@flann@@V?$allocator@UCostData@?$AutotunedIndex@U?$L2@M@flann@@@flann@@@std@@@std@@CAXXZ
	?_Xlength@?$vector@UInterval@?$KDTreeSingleIndex@U?$L2@M@flann@@@flann@@V?$allocator@UInterval@?$KDTreeSingleIndex@U?$L2@M@flann@@@flann@@@std@@@std@@CAXXZ
	?_Xlength@?$vector@UPointInfo@?$HierarchicalClusteringIndex@U?$L2@M@flann@@@flann@@V?$allocator@UPointInfo@?$HierarchicalClusteringIndex@U?$L2@M@flann@@@flann@@@std@@@std@@CAXXZ
	?_Xlength@?$vector@UPointInfo@?$KMeansIndex@U?$L2@M@flann@@@flann@@V?$allocator@UPointInfo@?$KMeansIndex@U?$L2@M@flann@@@flann@@@std@@@std@@CAXXZ
	?_Xlength@?$vector@V?$LshTable@M@lsh@flann@@V?$allocator@V?$LshTable@M@lsh@flann@@@std@@@std@@CAXXZ
	?_Xlength@?$vector@V?$vector@HV?$allocator@H@std@@@std@@V?$allocator@V?$vector@HV?$allocator@H@std@@@std@@@2@@std@@CAXXZ
	?_Xlength@?$vector@V?$vector@IV?$allocator@I@std@@@std@@V?$allocator@V?$vector@IV?$allocator@I@std@@@std@@@2@@std@@CAXXZ
	?_Xlength@?$vector@V?$vector@MV?$allocator@M@std@@@std@@V?$allocator@V?$vector@MV?$allocator@M@std@@@std@@@2@@std@@CAXXZ
	?_Xlength@?$vector@V?$vector@_KV?$allocator@_K@std@@@std@@V?$allocator@V?$vector@_KV?$allocator@_K@std@@@std@@@2@@std@@CAXXZ
	?_Xlength@?$vector@_KV?$allocator@_K@std@@@std@@CAXXZ
	?_Xrange@?$vector@V?$Vec@$02M@easy3d@@V?$allocator@V?$Vec@$02M@easy3d@@@std@@@std@@CAXXZ
	?add@?$LshTable@M@lsh@flann@@QEAAXIPEBM@Z
	?addPoint@?$CountRadiusResultSet@M@flann@@UEAAXM_K@Z
	?addPoint@?$KNNRadiusResultSet@M@flann@@UEAAXM_K@Z
	?addPoint@?$KNNResultSet2@M@flann@@UEAAXM_K@Z
	?addPoint@?$KNNResultSet@M@flann@@UEAAXM_K@Z
	?addPoint@?$KNNResultSet@MH_K@nanoflann@@QEAA_NMH@Z
	?addPoint@?$KNNResultSet@M_K_K@nanoflann@@QEAA_NM_K@Z
	?addPoint@?$KNNSimpleResultSet@M@flann@@UEAAXM_K@Z
	?addPoint@?$KNNUniqueResultSet@M@flann@@UEAAXM_K@Z
	?addPoint@?$RadiusResultSet@M@flann@@UEAAXM_K@Z
	?addPointToTree@?$HierarchicalClusteringIndex@U?$L2@M@flann@@@flann@@AEAAXPEAUNode@12@_K@Z
	?addPointToTree@?$KDTreeIndex@U?$L2@M@flann@@@flann@@AEAAXPEAUNode@12@H@Z
	?addPointToTree@?$KMeansIndex@U?$L2@M@flann@@@flann@@AEAAXPEAUNode@12@_KM@Z
	?addPoints@?$AutotunedIndex@U?$L2@M@flann@@@flann@@UEAAXAEBV?$Matrix@M@2@M@Z
	?addPoints@?$CompositeIndex@U?$L2@M@flann@@@flann@@UEAAXAEBV?$Matrix@M@2@M@Z
	?addPoints@?$HierarchicalClusteringIndex@U?$L2@M@flann@@@flann@@UEAAXAEBV?$Matrix@M@2@M@Z
	?addPoints@?$KDTreeIndex@U?$L2@M@flann@@@flann@@UEAAXAEBV?$Matrix@M@2@M@Z
	?addPoints@?$KDTreeSingleIndex@U?$L2@M@flann@@@flann@@UEAAXAEBV?$Matrix@M@2@M@Z
	?addPoints@?$KMeansIndex@U?$L2@M@flann@@@flann@@UEAAXAEBV?$Matrix@M@2@M@Z
	?addPoints@?$LinearIndex@U?$L2@M@flann@@@flann@@UEAAXAEBV?$Matrix@M@2@M@Z
	?addPoints@?$LshIndex@U?$L2@M@flann@@@flann@@UEAAXAEBV?$Matrix@M@2@M@Z
	?addPoints@?$NNIndex@U?$L2@M@flann@@@flann@@UEAAXAEBV?$Matrix@M@2@M@Z
	?allocate@?$allocator@D@std@@QEAAPEAD_K@Z
	?allocate@?$allocator@H@std@@QEAAPEAH_K@Z
	?allocate@?$allocator@I@std@@QEAAPEAI_K@Z
	?allocate@?$allocator@M@std@@QEAAPEAM_K@Z
	?allocate@?$allocator@PEAM@std@@QEAAPEAPEAM_K@Z
	?allocate@?$allocator@U?$BranchStruct@PEAUNode@?$HierarchicalClusteringIndex@U?$L2@M@flann@@@flann@@M@flann@@@std@@QEAAPEAU?$BranchStruct@PEAUNode@?$HierarchicalClusteringIndex@U?$L2@M@flann@@@flann@@M@flann@@_K@Z
	?allocate@?$allocator@U?$BranchStruct@PEAUNode@?$KDTreeIndex@U?$L2@M@flann@@@flann@@M@flann@@@std@@QEAAPEAU?$BranchStruct@PEAUNode@?$KDTreeIndex@U?$L2@M@flann@@@flann@@M@flann@@_K@Z
	?allocate@?$allocator@U?$BranchStruct@PEAUNode@?$KMeansIndex@U?$L2@M@flann@@@flann@@M@flann@@@std@@QEAAPEAU?$BranchStruct@PEAUNode@?$KMeansIndex@U?$L2@M@flann@@@flann@@M@flann@@_K@Z
	?allocate@?$allocator@U?$DistanceIndex@M@flann@@@std@@QEAAPEAU?$DistanceIndex@M@flann@@_K@Z
	?allocate@?$allocator@U?$_Tree_node@U?$pair@$$CBV?$basic_string@DU?$char_traits@D@std@@V?$allocator@D@2@@std@@Vany@flann@@@std@@PEAX@std@@@std@@QEAAPEAU?$_Tree_node@U?$pair@$$CBV?$basic_string@DU?$char_traits@D@std@@V?$allocator@D@2@@std@@Vany@flann@@@std@@PEAX@2@_K@Z
	?allocate@?$allocator@U?$pair@_KPEAM@std@@@std@@QEAAPEAU?$pair@_KPEAM@2@_K@Z
	?allocate@?$allocator@UCostData@?$AutotunedIndex@U?$L2@M@flann@@@flann@@@std@@QEAAPEAUCostData@?$AutotunedIndex@U?$L2@M@flann@@@flann@@_K@Z
	?allocate@?$allocator@UInterval@?$KDTreeSingleIndex@U?$L2@M@flann@@@flann@@@std@@QEAAPEAUInterval@?$KDTreeSingleIndex@U?$L2@M@flann@@@flann@@_K@Z
	?allocate@?$allocator@UPointInfo@?$HierarchicalClusteringIndex@U?$L2@M@flann@@@flann@@@std@@QEAAPEAUPointInfo@?$HierarchicalClusteringIndex@U?$L2@M@flann@@@flann@@_K@Z
	?allocate@?$allocator@UPointInfo@?$KMeansIndex@U?$L2@M@flann@@@flann@@@std@@QEAAPEAUPointInfo@?$KMeansIndex@U?$L2@M@flann@@@flann@@_K@Z
	?allocate@?$allocator@V?$LshTable@M@lsh@flann@@@std@@QEAAPEAV?$LshTable@M@lsh@flann@@_K@Z
	?allocate@?$allocator@V?$vector@IV?$allocator@I@std@@@std@@@std@@QEAAPEAV?$vector@IV?$allocator@I@std@@@2@_K@Z
	?allocate@?$allocator@_K@std@@QEAAPEA_K_K@Z
	?append@?$basic_string@DU?$char_traits@D@std@@V?$allocator@D@2@@std@@QEAAAEAV12@QEBD_K@Z
	?buildIndex@?$AutotunedIndex@U?$L2@M@flann@@@flann@@UEAAXAEBV?$Matrix@M@2@@Z
	?buildIndex@?$AutotunedIndex@U?$L2@M@flann@@@flann@@UEAAXXZ
	?buildIndex@?$CompositeIndex@U?$L2@M@flann@@@flann@@UEAAXXZ
	?buildIndex@?$KDTreeSingleIndexAdaptor@U?$L2_Simple_Adaptor@MUPointSet@easy3d@@MI@nanoflann@@UPointSet@easy3d@@$02H@nanoflann@@QEAAXXZ
	?buildIndex@?$NNIndex@U?$L2@M@flann@@@flann@@UEAAXAEBV?$Matrix@M@2@@Z
	?buildIndex@?$NNIndex@U?$L2@M@flann@@@flann@@UEAAXXZ
	?buildIndexImpl@?$AutotunedIndex@U?$L2@M@flann@@@flann@@MEAAXXZ
	?buildIndexImpl@?$CompositeIndex@U?$L2@M@flann@@@flann@@MEAAXXZ
	?buildIndexImpl@?$HierarchicalClusteringIndex@U?$L2@M@flann@@@flann@@MEAAXXZ
	?buildIndexImpl@?$KDTreeIndex@U?$L2@M@flann@@@flann@@MEAAXXZ
	?buildIndexImpl@?$KDTreeSingleIndex@U?$L2@M@flann@@@flann@@MEAAXXZ
	?buildIndexImpl@?$KMeansIndex@U?$L2@M@flann@@@flann@@MEAAXXZ
	?buildIndexImpl@?$LinearIndex@U?$L2@M@flann@@@flann@@MEAAXXZ
	?buildIndexImpl@?$LshIndex@U?$L2@M@flann@@@flann@@MEAAXXZ
	?clear@?$_Tree@V?$_Tset_traits@UDistIndex@?$UniqueResultSet@M@flann@@U?$less@UDistIndex@?$UniqueResultSet@M@flann@@@std@@V?$allocator@UDistIndex@?$UniqueResultSet@M@flann@@@5@$0A@@std@@@std@@QEAAXXZ
	?clone@?$AutotunedIndex@U?$L2@M@flann@@@flann@@UEBAPEAV?$NNIndex@U?$L2@M@flann@@@2@XZ
	?clone@?$CompositeIndex@U?$L2@M@flann@@@flann@@UEBAPEAV?$NNIndex@U?$L2@M@flann@@@2@XZ
	?clone@?$HierarchicalClusteringIndex@U?$L2@M@flann@@@flann@@UEBAPEAV?$NNIndex@U?$L2@M@flann@@@2@XZ
	?clone@?$KDTreeIndex@U?$L2@M@flann@@@flann@@UEBAPEAV?$NNIndex@U?$L2@M@flann@@@2@XZ
	?clone@?$KDTreeSingleIndex@U?$L2@M@flann@@@flann@@UEBAPEAV?$NNIndex@U?$L2@M@flann@@@2@XZ
	?clone@?$KMeansIndex@U?$L2@M@flann@@@flann@@UEBAPEAV?$NNIndex@U?$L2@M@flann@@@2@XZ
	?clone@?$LinearIndex@U?$L2@M@flann@@@flann@@UEBAPEAV?$NNIndex@U?$L2@M@flann@@@2@XZ
	?clone@?$LshIndex@U?$L2@M@flann@@@flann@@UEBAPEAV?$NNIndex@U?$L2@M@flann@@@2@XZ
	?clone@?$big_any_policy@USearchParams@flann@@@anyimpl@flann@@UEAAXPEBQEAXPEAPEAX@Z
	?clone@?$big_any_policy@Uempty_any@anyimpl@flann@@@anyimpl@flann@@UEAAXPEBQEAXPEAPEAX@Z
	?clone@?$small_any_policy@H@anyimpl@flann@@UEAAXPEBQEAXPEAPEAX@Z
	?clone@?$small_any_policy@I@anyimpl@flann@@UEAAXPEBQEAXPEAPEAX@Z
	?clone@?$small_any_policy@M@anyimpl@flann@@UEAAXPEBQEAXPEAPEAX@Z
	?clone@?$small_any_policy@W4flann_algorithm_t@flann@@@anyimpl@flann@@UEAAXPEBQEAXPEAPEAX@Z
	?clone@?$small_any_policy@W4flann_centers_init_t@flann@@@anyimpl@flann@@UEAAXPEBQEAXPEAPEAX@Z
	?clone@?$small_any_policy@_N@anyimpl@flann@@UEAAXPEBQEAXPEAPEAX@Z
	?computeBoundingBox@?$KDTreeSingleIndexAdaptor@U?$L2_Simple_Adaptor@MUPointSet@easy3d@@MI@nanoflann@@UPointSet@easy3d@@$02H@nanoflann@@QEAAXAEAV?$array@UInterval@?$KDTreeBaseClass@V?$KDTreeSingleIndexAdaptor@U?$L2_Simple_Adaptor@MUPointSet@easy3d@@MI@nanoflann@@UPointSet@easy3d@@$02H@nanoflann@@U?$L2_Simple_Adaptor@MUPointSet@easy3d@@MI@2@UPointSet@easy3d@@$02H@nanoflann@@$02@std@@@Z
	?computeClustering@?$HierarchicalClusteringIndex@U?$L2@M@flann@@@flann@@AEAAXPEAUNode@12@PEAHH@Z
	?computeClustering@?$KMeansIndex@U?$L2@M@flann@@@flann@@AEAAXPEAUNode@12@PEAHHH@Z
	?computeInitialDistances@?$KDTreeBaseClass@V?$KDTreeSingleIndexAdaptor@U?$L2_Simple_Adaptor@MUPointSet@easy3d@@MI@nanoflann@@UPointSet@easy3d@@$02H@nanoflann@@U?$L2_Simple_Adaptor@MUPointSet@easy3d@@MI@2@UPointSet@easy3d@@$02H@nanoflann@@QEBAMAEBV?$KDTreeSingleIndexAdaptor@U?$L2_Simple_Adaptor@MUPointSet@easy3d@@MI@nanoflann@@UPointSet@easy3d@@$02H@2@PEBMAEAV?$array@M$02@std@@@Z
	?computeLabels@?$HierarchicalClusteringIndex@U?$L2@M@flann@@@flann@@AEAAXPEAHH0H0AEAM@Z
	?computeMinMax@?$KDTreeBaseClass@V?$KDTreeSingleIndexAdaptor@U?$L2_Simple_Adaptor@MUPointSet@easy3d@@MI@nanoflann@@UPointSet@easy3d@@$02H@nanoflann@@U?$L2_Simple_Adaptor@MUPointSet@easy3d@@MI@2@UPointSet@easy3d@@$02H@nanoflann@@QEAAXAEBV?$KDTreeSingleIndexAdaptor@U?$L2_Simple_Adaptor@MUPointSet@easy3d@@MI@nanoflann@@UPointSet@easy3d@@$02H@2@_K1HAEAM2@Z
	?computeMinMax@?$KDTreeSingleIndex@U?$L2@M@flann@@@flann@@AEAAXPEAHHHAEAM1@Z
	?computeNodeStatistics@?$KMeansIndex@U?$L2@M@flann@@@flann@@AEAAXPEAUNode@12@AEBV?$vector@HV?$allocator@H@std@@@std@@@Z
	?copyTree@?$HierarchicalClusteringIndex@U?$L2@M@flann@@@flann@@AEAAXAEAPEAUNode@12@AEBQEAU312@@Z
	?copyTree@?$KDTreeIndex@U?$L2@M@flann@@@flann@@AEAAXAEAPEAUNode@12@AEBQEAU312@@Z
	?copyTree@?$KDTreeSingleIndex@U?$L2@M@flann@@@flann@@AEAAXAEAPEAUNode@12@AEBQEAU312@@Z
	?copyTree@?$KMeansIndex@U?$L2@M@flann@@@flann@@AEAAXAEAPEAUNode@12@AEBQEAU312@@Z
	?copy_from_value@?$big_any_policy@USearchParams@flann@@@anyimpl@flann@@UEAAXPEBXPEAPEAX@Z
	?copy_from_value@?$big_any_policy@Uempty_any@anyimpl@flann@@@anyimpl@flann@@UEAAXPEBXPEAPEAX@Z
	?copy_from_value@?$small_any_policy@H@anyimpl@flann@@UEAAXPEBXPEAPEAX@Z
	?copy_from_value@?$small_any_policy@I@anyimpl@flann@@UEAAXPEBXPEAPEAX@Z
	?copy_from_value@?$small_any_policy@M@anyimpl@flann@@UEAAXPEBXPEAPEAX@Z
	?copy_from_value@?$small_any_policy@W4flann_algorithm_t@flann@@@anyimpl@flann@@UEAAXPEBXPEAPEAX@Z
	?copy_from_value@?$small_any_policy@W4flann_centers_init_t@flann@@@anyimpl@flann@@UEAAXPEBXPEAPEAX@Z
	?copy_from_value@?$small_any_policy@_N@anyimpl@flann@@UEAAXPEBXPEAPEAX@Z
	?deallocate@?$allocator@H@std@@QEAAXQEAH_K@Z
	?deallocate@?$allocator@I@std@@QEAAXQEAI_K@Z
	?deallocate@?$allocator@M@std@@QEAAXQEAM_K@Z
	?deallocate@?$allocator@PEAM@std@@QEAAXQEAPEAM_K@Z
	?deallocate@?$allocator@PEAUNode@?$HierarchicalClusteringIndex@U?$L2@M@flann@@@flann@@@std@@QEAAXQEAPEAUNode@?$HierarchicalClusteringIndex@U?$L2@M@flann@@@flann@@_K@Z
	?deallocate@?$allocator@PEAUNode@?$KDTreeIndex@U?$L2@M@flann@@@flann@@@std@@QEAAXQEAPEAUNode@?$KDTreeIndex@U?$L2@M@flann@@@flann@@_K@Z
	?deallocate@?$allocator@PEAUNode@?$KMeansIndex@U?$L2@M@flann@@@flann@@@std@@QEAAXQEAPEAUNode@?$KMeansIndex@U?$L2@M@flann@@@flann@@_K@Z
	?deallocate@?$allocator@U?$BranchStruct@PEAUNode@?$HierarchicalClusteringIndex@U?$L2@M@flann@@@flann@@M@flann@@@std@@QEAAXQEAU?$BranchStruct@PEAUNode@?$HierarchicalClusteringIndex@U?$L2@M@flann@@@flann@@M@flann@@_K@Z
	?deallocate@?$allocator@U?$BranchStruct@PEAUNode@?$KDTreeIndex@U?$L2@M@flann@@@flann@@M@flann@@@std@@QEAAXQEAU?$BranchStruct@PEAUNode@?$KDTreeIndex@U?$L2@M@flann@@@flann@@M@flann@@_K@Z
	?deallocate@?$allocator@U?$BranchStruct@PEAUNode@?$KMeansIndex@U?$L2@M@flann@@@flann@@M@flann@@@std@@QEAAXQEAU?$BranchStruct@PEAUNode@?$KMeansIndex@U?$L2@M@flann@@@flann@@M@flann@@_K@Z
	?deallocate@?$allocator@U?$DistanceIndex@M@flann@@@std@@QEAAXQEAU?$DistanceIndex@M@flann@@_K@Z
	?deallocate@?$allocator@U?$pair@HM@std@@@std@@QEAAXQEAU?$pair@HM@2@_K@Z
	?deallocate@?$allocator@U?$pair@_KPEAM@std@@@std@@QEAAXQEAU?$pair@_KPEAM@2@_K@Z
	?deallocate@?$allocator@UCostData@?$AutotunedIndex@U?$L2@M@flann@@@flann@@@std@@QEAAXQEAUCostData@?$AutotunedIndex@U?$L2@M@flann@@@flann@@_K@Z
	?deallocate@?$allocator@UInterval@?$KDTreeSingleIndex@U?$L2@M@flann@@@flann@@@std@@QEAAXQEAUInterval@?$KDTreeSingleIndex@U?$L2@M@flann@@@flann@@_K@Z
	?deallocate@?$allocator@UPointInfo@?$HierarchicalClusteringIndex@U?$L2@M@flann@@@flann@@@std@@QEAAXQEAUPointInfo@?$HierarchicalClusteringIndex@U?$L2@M@flann@@@flann@@_K@Z
	?deallocate@?$allocator@UPointInfo@?$KMeansIndex@U?$L2@M@flann@@@flann@@@std@@QEAAXQEAUPointInfo@?$KMeansIndex@U?$L2@M@flann@@@flann@@_K@Z
	?deallocate@?$allocator@V?$LshTable@M@lsh@flann@@@std@@QEAAXQEAV?$LshTable@M@lsh@flann@@_K@Z
	?deallocate@?$allocator@V?$vector@HV?$allocator@H@std@@@std@@@std@@QEAAXQEAV?$vector@HV?$allocator@H@std@@@2@_K@Z
	?deallocate@?$allocator@V?$vector@IV?$allocator@I@std@@@std@@@std@@QEAAXQEAV?$vector@IV?$allocator@I@std@@@2@_K@Z
	?deallocate@?$allocator@V?$vector@MV?$allocator@M@std@@@std@@@std@@QEAAXQEAV?$vector@MV?$allocator@M@std@@@2@_K@Z
	?deallocate@?$allocator@V?$vector@_KV?$allocator@_K@std@@@std@@@std@@QEAAXQEAV?$vector@_KV?$allocator@_K@std@@@2@_K@Z
	?deallocate@?$allocator@_K@std@@QEAAXQEA_K_K@Z
	?debug@Logger@flann@@SAHPEBDZZ
	?divideTree@?$KDTreeBaseClass@V?$KDTreeSingleIndexAdaptor@U?$L2_Simple_Adaptor@MUPointSet@easy3d@@MI@nanoflann@@UPointSet@easy3d@@$02H@nanoflann@@U?$L2_Simple_Adaptor@MUPointSet@easy3d@@MI@2@UPointSet@easy3d@@$02H@nanoflann@@QEAAPEAUNode@12@AEAV?$KDTreeSingleIndexAdaptor@U?$L2_Simple_Adaptor@MUPointSet@easy3d@@MI@nanoflann@@UPointSet@easy3d@@$02H@2@_K1AEAV?$array@UInterval@?$KDTreeBaseClass@V?$KDTreeSingleIndexAdaptor@U?$L2_Simple_Adaptor@MUPointSet@easy3d@@MI@nanoflann@@UPointSet@easy3d@@$02H@nanoflann@@U?$L2_Simple_Adaptor@MUPointSet@easy3d@@MI@2@UPointSet@easy3d@@$02H@nanoflann@@$02@std@@@Z
	?divideTree@?$KDTreeIndex@U?$L2@M@flann@@@flann@@AEAAPEAUNode@12@PEAHH@Z
	?divideTree@?$KDTreeSingleIndex@U?$L2@M@flann@@@flann@@AEAAPEAUNode@12@HHAEAV?$vector@UInterval@?$KDTreeSingleIndex@U?$L2@M@flann@@@flann@@V?$allocator@UInterval@?$KDTreeSingleIndex@U?$L2@M@flann@@@flann@@@std@@@std@@@Z
	?estimateBuildParams@?$AutotunedIndex@U?$L2@M@flann@@@flann@@AEAA?AV?$map@V?$basic_string@DU?$char_traits@D@std@@V?$allocator@D@2@@std@@Vany@flann@@U?$less@V?$basic_string@DU?$char_traits@D@std@@V?$allocator@D@2@@std@@@2@V?$allocator@U?$pair@$$CBV?$basic_string@DU?$char_traits@D@std@@V?$allocator@D@2@@std@@Vany@flann@@@std@@@2@@std@@XZ
	?estimateSearchParams@?$AutotunedIndex@U?$L2@M@flann@@@flann@@AEAAMAEAUSearchParams@2@@Z
	?evaluate_kmeans@?$AutotunedIndex@U?$L2@M@flann@@@flann@@AEAAXAEAUCostData@12@@Z
	?exploreNodeBranches@?$KMeansIndex@U?$L2@M@flann@@@flann@@AEBAHPEAUNode@12@PEBMPEAV?$Heap@U?$BranchStruct@PEAUNode@?$KMeansIndex@U?$L2@M@flann@@@flann@@M@flann@@@2@@Z
	?extendDataset@?$NNIndex@U?$L2@M@flann@@@flann@@IEAAXAEBV?$Matrix@M@2@@Z
	?fill_xor_mask@?$LshIndex@U?$L2@M@flann@@@flann@@AEAAXIHIAEAV?$vector@IV?$allocator@I@std@@@std@@@Z
	?findNeighbors@?$AutotunedIndex@U?$L2@M@flann@@@flann@@UEBAXAEAV?$ResultSet@M@2@PEBMAEBUSearchParams@2@@Z
	?findNeighbors@?$CompositeIndex@U?$L2@M@flann@@@flann@@UEBAXAEAV?$ResultSet@M@2@PEBMAEBUSearchParams@2@@Z
	?findNeighbors@?$HierarchicalClusteringIndex@U?$L2@M@flann@@@flann@@UEBAXAEAV?$ResultSet@M@2@PEBMAEBUSearchParams@2@@Z
	?findNeighbors@?$KDTreeIndex@U?$L2@M@flann@@@flann@@UEBAXAEAV?$ResultSet@M@2@PEBMAEBUSearchParams@2@@Z
	?findNeighbors@?$KDTreeSingleIndex@U?$L2@M@flann@@@flann@@UEBAXAEAV?$ResultSet@M@2@PEBMAEBUSearchParams@2@@Z
	?findNeighbors@?$KMeansIndex@U?$L2@M@flann@@@flann@@UEBAXAEAV?$ResultSet@M@2@PEBMAEBUSearchParams@2@@Z
	?findNeighbors@?$LinearIndex@U?$L2@M@flann@@@flann@@UEBAXAEAV?$ResultSet@M@2@PEBMAEBUSearchParams@2@@Z
	?findNeighbors@?$LshIndex@U?$L2@M@flann@@@flann@@UEBAXAEAV?$ResultSet@M@2@PEBMAEBUSearchParams@2@@Z
	?find_closest_k_points@KdTreeSearch_ANN@easy3d@@UEBAXAEBV?$Vec@$02M@2@HAEAV?$vector@HV?$allocator@H@std@@@std@@@Z
	?find_closest_k_points@KdTreeSearch_ANN@easy3d@@UEBAXAEBV?$Vec@$02M@2@HAEAV?$vector@HV?$allocator@H@std@@@std@@AEAV?$vector@MV?$allocator@M@std@@@5@@Z
	?find_closest_k_points@KdTreeSearch_ETH@easy3d@@UEBAXAEBV?$Vec@$02M@2@HAEAV?$vector@HV?$allocator@H@std@@@std@@@Z
	?find_closest_k_points@KdTreeSearch_ETH@easy3d@@UEBAXAEBV?$Vec@$02M@2@HAEAV?$vector@HV?$allocator@H@std@@@std@@AEAV?$vector@MV?$allocator@M@std@@@5@@Z
	?find_closest_k_points@KdTreeSearch_FLANN@easy3d@@UEBAXAEBV?$Vec@$02M@2@HAEAV?$vector@HV?$allocator@H@std@@@std@@@Z
	?find_closest_k_points@KdTreeSearch_FLANN@easy3d@@UEBAXAEBV?$Vec@$02M@2@HAEAV?$vector@HV?$allocator@H@std@@@std@@AEAV?$vector@MV?$allocator@M@std@@@5@@Z
	?find_closest_k_points@KdTreeSearch_NanoFLANN@easy3d@@UEBAXAEBV?$Vec@$02M@2@HAEAV?$vector@HV?$allocator@H@std@@@std@@@Z
	?find_closest_k_points@KdTreeSearch_NanoFLANN@easy3d@@UEBAXAEBV?$Vec@$02M@2@HAEAV?$vector@HV?$allocator@H@std@@@std@@AEAV?$vector@MV?$allocator@M@std@@@5@@Z
	?find_closest_point@KdTreeSearch_ANN@easy3d@@UEBAHAEBV?$Vec@$02M@2@@Z
	?find_closest_point@KdTreeSearch_ANN@easy3d@@UEBAHAEBV?$Vec@$02M@2@AEAM@Z
	?find_closest_point@KdTreeSearch_ETH@easy3d@@UEBAHAEBV?$Vec@$02M@2@@Z
	?find_closest_point@KdTreeSearch_ETH@easy3d@@UEBAHAEBV?$Vec@$02M@2@AEAM@Z
	?find_closest_point@KdTreeSearch_FLANN@easy3d@@UEBAHAEBV?$Vec@$02M@2@@Z
	?find_closest_point@KdTreeSearch_FLANN@easy3d@@UEBAHAEBV?$Vec@$02M@2@AEAM@Z
	?find_closest_point@KdTreeSearch_NanoFLANN@easy3d@@UEBAHAEBV?$Vec@$02M@2@@Z
	?find_closest_point@KdTreeSearch_NanoFLANN@easy3d@@UEBAHAEBV?$Vec@$02M@2@AEAM@Z
	?find_points_in_cone@KdTreeSearch_ETH@easy3d@@QEBAHAEBV?$Vec@$02M@2@00MAEAV?$vector@HV?$allocator@H@std@@@std@@AEAV?$vector@MV?$allocator@M@std@@@5@_N@Z
	?find_points_in_cone@KdTreeSearch_ETH@easy3d@@QEBAHAEBV?$Vec@$02M@2@00MAEAV?$vector@HV?$allocator@H@std@@@std@@_N@Z
	?find_points_in_cylinder@KdTreeSearch_ETH@easy3d@@QEBAHAEBV?$Vec@$02M@2@0MAEAV?$vector@HV?$allocator@H@std@@@std@@AEAV?$vector@MV?$allocator@M@std@@@5@_N@Z
	?find_points_in_cylinder@KdTreeSearch_ETH@easy3d@@QEBAHAEBV?$Vec@$02M@2@0MAEAV?$vector@HV?$allocator@H@std@@@std@@_N@Z
	?find_points_in_range@KdTreeSearch_ANN@easy3d@@UEBAXAEBV?$Vec@$02M@2@MAEAV?$vector@HV?$allocator@H@std@@@std@@@Z
	?find_points_in_range@KdTreeSearch_ANN@easy3d@@UEBAXAEBV?$Vec@$02M@2@MAEAV?$vector@HV?$allocator@H@std@@@std@@AEAV?$vector@MV?$allocator@M@std@@@5@@Z
	?find_points_in_range@KdTreeSearch_ETH@easy3d@@UEBAXAEBV?$Vec@$02M@2@MAEAV?$vector@HV?$allocator@H@std@@@std@@@Z
	?find_points_in_range@KdTreeSearch_ETH@easy3d@@UEBAXAEBV?$Vec@$02M@2@MAEAV?$vector@HV?$allocator@H@std@@@std@@AEAV?$vector@MV?$allocator@M@std@@@5@@Z
	?find_points_in_range@KdTreeSearch_FLANN@easy3d@@UEBAXAEBV?$Vec@$02M@2@MAEAV?$vector@HV?$allocator@H@std@@@std@@@Z
	?find_points_in_range@KdTreeSearch_FLANN@easy3d@@UEBAXAEBV?$Vec@$02M@2@MAEAV?$vector@HV?$allocator@H@std@@@std@@AEAV?$vector@MV?$allocator@M@std@@@5@@Z
	?find_points_in_range@KdTreeSearch_NanoFLANN@easy3d@@UEBAXAEBV?$Vec@$02M@2@MAEAV?$vector@HV?$allocator@H@std@@@std@@@Z
	?find_points_in_range@KdTreeSearch_NanoFLANN@easy3d@@UEBAXAEBV?$Vec@$02M@2@MAEAV?$vector@HV?$allocator@H@std@@@std@@AEAV?$vector@MV?$allocator@M@std@@@5@@Z
	?freeIndex@?$AutotunedIndex@U?$L2@M@flann@@@flann@@MEAAXXZ
	?freeIndex@?$CompositeIndex@U?$L2@M@flann@@@flann@@MEAAXXZ
	?freeIndex@?$HierarchicalClusteringIndex@U?$L2@M@flann@@@flann@@EEAAXXZ
	?freeIndex@?$KDTreeIndex@U?$L2@M@flann@@@flann@@MEAAXXZ
	?freeIndex@?$KDTreeSingleIndex@U?$L2@M@flann@@@flann@@EEAAXXZ
	?freeIndex@?$KMeansIndex@U?$L2@M@flann@@@flann@@EEAAXXZ
	?freeIndex@?$LinearIndex@U?$L2@M@flann@@@flann@@MEAAXXZ
	?freeIndex@?$LshIndex@U?$L2@M@flann@@@flann@@MEAAXXZ
	?full@?$CountRadiusResultSet@M@flann@@UEBA_NXZ
	?full@?$KNNRadiusResultSet@M@flann@@UEBA_NXZ
	?full@?$KNNResultSet2@M@flann@@UEBA_NXZ
	?full@?$KNNResultSet@M@flann@@UEBA_NXZ
	?full@?$KNNSimpleResultSet@M@flann@@UEBA_NXZ
	?full@?$RadiusResultSet@M@flann@@UEBA_NXZ
	?full@?$UniqueResultSet@M@flann@@UEBA_NXZ
	?getCenterOrdering@?$KMeansIndex@U?$L2@M@flann@@@flann@@AEBAXPEAUNode@12@PEBMAEAV?$vector@HV?$allocator@H@std@@@std@@@Z
	?getKey@?$LshTable@M@lsh@flann@@QEBA_KPEBM@Z
	?getParameters@?$AutotunedIndex@U?$L2@M@flann@@@flann@@UEBA?AV?$map@V?$basic_string@DU?$char_traits@D@std@@V?$allocator@D@2@@std@@Vany@flann@@U?$less@V?$basic_string@DU?$char_traits@D@std@@V?$allocator@D@2@@std@@@2@V?$allocator@U?$pair@$$CBV?$basic_string@DU?$char_traits@D@std@@V?$allocator@D@2@@std@@Vany@flann@@@std@@@2@@std@@XZ
	?getParameters@?$NNIndex@U?$L2@M@flann@@@flann@@UEBA?AV?$map@V?$basic_string@DU?$char_traits@D@std@@V?$allocator@D@2@@std@@Vany@flann@@U?$less@V?$basic_string@DU?$char_traits@D@std@@V?$allocator@D@2@@std@@@2@V?$allocator@U?$pair@$$CBV?$basic_string@DU?$char_traits@D@std@@V?$allocator@D@2@@std@@Vany@flann@@@std@@@2@@std@@XZ
	?getPoint@?$NNIndex@U?$L2@M@flann@@@flann@@UEAAPEAM_K@Z
	?getType@?$AutotunedIndex@U?$L2@M@flann@@@flann@@UEBA?AW4flann_algorithm_t@2@XZ
	?getType@?$CompositeIndex@U?$L2@M@flann@@@flann@@UEBA?AW4flann_algorithm_t@2@XZ
	?getType@?$HierarchicalClusteringIndex@U?$L2@M@flann@@@flann@@UEBA?AW4flann_algorithm_t@2@XZ
	?getType@?$KDTreeIndex@U?$L2@M@flann@@@flann@@UEBA?AW4flann_algorithm_t@2@XZ
	?getType@?$KDTreeSingleIndex@U?$L2@M@flann@@@flann@@UEBA?AW4flann_algorithm_t@2@XZ
	?getType@?$KMeansIndex@U?$L2@M@flann@@@flann@@UEBA?AW4flann_algorithm_t@2@XZ
	?getType@?$LinearIndex@U?$L2@M@flann@@@flann@@UEBA?AW4flann_algorithm_t@2@XZ
	?getType@?$LshIndex@U?$L2@M@flann@@@flann@@UEBA?AW4flann_algorithm_t@2@XZ
	?get_size@?$typed_base_any_policy@H@anyimpl@flann@@UEAA_KXZ
	?get_size@?$typed_base_any_policy@I@anyimpl@flann@@UEAA_KXZ
	?get_size@?$typed_base_any_policy@M@anyimpl@flann@@UEAA_KXZ
	?get_size@?$typed_base_any_policy@USearchParams@flann@@@anyimpl@flann@@UEAA_KXZ
	?get_size@?$typed_base_any_policy@Uempty_any@anyimpl@flann@@@anyimpl@flann@@UEAA_KXZ
	?get_size@?$typed_base_any_policy@W4flann_algorithm_t@flann@@@anyimpl@flann@@UEAA_KXZ
	?get_size@?$typed_base_any_policy@W4flann_centers_init_t@flann@@@anyimpl@flann@@UEAA_KXZ
	?get_size@?$typed_base_any_policy@_N@anyimpl@flann@@UEAA_KXZ
	?get_value@?$big_any_policy@USearchParams@flann@@@anyimpl@flann@@UEAAPEAXPEAPEAX@Z
	?get_value@?$big_any_policy@Uempty_any@anyimpl@flann@@@anyimpl@flann@@UEAAPEAXPEAPEAX@Z
	?get_value@?$small_any_policy@H@anyimpl@flann@@UEAAPEAXPEAPEAX@Z
	?get_value@?$small_any_policy@I@anyimpl@flann@@UEAAPEAXPEAPEAX@Z
	?get_value@?$small_any_policy@M@anyimpl@flann@@UEAAPEAXPEAPEAX@Z
	?get_value@?$small_any_policy@W4flann_algorithm_t@flann@@@anyimpl@flann@@UEAAPEAXPEAPEAX@Z
	?get_value@?$small_any_policy@W4flann_centers_init_t@flann@@@anyimpl@flann@@UEAAPEAXPEAPEAX@Z
	?get_value@?$small_any_policy@_N@anyimpl@flann@@UEAAPEAXPEAPEAX@Z
	?info@Logger@flann@@SAHPEBDZZ
	?initCenterChooser@?$HierarchicalClusteringIndex@U?$L2@M@flann@@@flann@@QEAAXXZ
	?initCenterChooser@?$KMeansIndex@U?$L2@M@flann@@@flann@@QEAAXXZ
	?insert@?$Heap@U?$BranchStruct@PEAUNode@?$KDTreeIndex@U?$L2@M@flann@@@flann@@M@flann@@@flann@@QEAAXAEBU?$BranchStruct@PEAUNode@?$KDTreeIndex@U?$L2@M@flann@@@flann@@M@2@@Z
	?instance@Logger@flann@@CAAEAV12@XZ
	?knnSearch@?$AutotunedIndex@U?$L2@M@flann@@@flann@@UEBAHAEBV?$Matrix@M@2@AEAV?$Matrix@_K@2@AEAV32@_KAEBUSearchParams@2@@Z
	?knnSearch@?$LshIndex@U?$L2@M@flann@@@flann@@UEBAHAEBV?$Matrix@M@2@AEAV?$Matrix@_K@2@AEAV32@_KAEBUSearchParams@2@@Z
	?knnSearch@?$NNIndex@U?$L2@M@flann@@@flann@@QEBAHAEBV?$Matrix@M@2@AEAV?$vector@V?$vector@HV?$allocator@H@std@@@std@@V?$allocator@V?$vector@HV?$allocator@H@std@@@std@@@2@@std@@AEAV?$vector@V?$vector@MV?$allocator@M@std@@@std@@V?$allocator@V?$vector@MV?$allocator@M@std@@@std@@@2@@5@_KAEBUSearchParams@2@@Z
	?knnSearch@?$NNIndex@U?$L2@M@flann@@@flann@@QEBAHAEBV?$Matrix@M@2@AEAV?$vector@V?$vector@_KV?$allocator@_K@std@@@std@@V?$allocator@V?$vector@_KV?$allocator@_K@std@@@std@@@2@@std@@AEAV?$vector@V?$vector@MV?$allocator@M@std@@@std@@V?$allocator@V?$vector@MV?$allocator@M@std@@@std@@@2@@5@_KAEBUSearchParams@2@@Z
	?knnSearch@?$NNIndex@U?$L2@M@flann@@@flann@@UEBAHAEBV?$Matrix@M@2@AEAV?$Matrix@_K@2@AEAV32@_KAEBUSearchParams@2@@Z
	?loadIndex@?$AutotunedIndex@U?$L2@M@flann@@@flann@@UEAAXPEAU_iobuf@@@Z
	?loadIndex@?$CompositeIndex@U?$L2@M@flann@@@flann@@UEAAXPEAU_iobuf@@@Z
	?loadIndex@?$HierarchicalClusteringIndex@U?$L2@M@flann@@@flann@@UEAAXPEAU_iobuf@@@Z
	?loadIndex@?$KDTreeIndex@U?$L2@M@flann@@@flann@@UEAAXPEAU_iobuf@@@Z
	?loadIndex@?$KDTreeSingleIndex@U?$L2@M@flann@@@flann@@UEAAXPEAU_iobuf@@@Z
	?loadIndex@?$KMeansIndex@U?$L2@M@flann@@@flann@@UEAAXPEAU_iobuf@@@Z
	?loadIndex@?$LinearIndex@U?$L2@M@flann@@@flann@@UEAAXPEAU_iobuf@@@Z
	?loadIndex@?$LshIndex@U?$L2@M@flann@@@flann@@UEAAXPEAU_iobuf@@@Z
	?load_saved_index@?$Index@U?$L2@M@flann@@@flann@@AEAAPEAV?$NNIndex@U?$L2@M@flann@@@2@AEBV?$Matrix@M@2@AEBV?$basic_string@DU?$char_traits@D@std@@V?$allocator@D@2@@std@@U?$L2@M@2@@Z
	?meanSplit@?$KDTreeIndex@U?$L2@M@flann@@@flann@@AEAAXPEAHHAEAH1AEAM@Z
	?middleSplit@?$KDTreeSingleIndex@U?$L2@M@flann@@@flann@@AEAAXPEAHHAEAH1AEAMAEBV?$vector@UInterval@?$KDTreeSingleIndex@U?$L2@M@flann@@@flann@@V?$allocator@UInterval@?$KDTreeSingleIndex@U?$L2@M@flann@@@flann@@@std@@@std@@@Z
	?middleSplit_@?$KDTreeBaseClass@V?$KDTreeSingleIndexAdaptor@U?$L2_Simple_Adaptor@MUPointSet@easy3d@@MI@nanoflann@@UPointSet@easy3d@@$02H@nanoflann@@U?$L2_Simple_Adaptor@MUPointSet@easy3d@@MI@2@UPointSet@easy3d@@$02H@nanoflann@@QEAAXAEAV?$KDTreeSingleIndexAdaptor@U?$L2_Simple_Adaptor@MUPointSet@easy3d@@MI@nanoflann@@UPointSet@easy3d@@$02H@2@_K1AEA_KAEAHAEAMAEBV?$array@UInterval@?$KDTreeBaseClass@V?$KDTreeSingleIndexAdaptor@U?$L2_Simple_Adaptor@MUPointSet@easy3d@@MI@nanoflann@@UPointSet@easy3d@@$02H@nanoflann@@U?$L2_Simple_Adaptor@MUPointSet@easy3d@@MI@2@UPointSet@easy3d@@$02H@nanoflann@@$02@std@@@Z
	?move@?$big_any_policy@USearchParams@flann@@@anyimpl@flann@@UEAAXPEBQEAXPEAPEAX@Z
	?move@?$big_any_policy@Uempty_any@anyimpl@flann@@@anyimpl@flann@@UEAAXPEBQEAXPEAPEAX@Z
	?move@?$small_any_policy@H@anyimpl@flann@@UEAAXPEBQEAXPEAPEAX@Z
	?move@?$small_any_policy@I@anyimpl@flann@@UEAAXPEBQEAXPEAPEAX@Z
	?move@?$small_any_policy@M@anyimpl@flann@@UEAAXPEBQEAXPEAPEAX@Z
	?move@?$small_any_policy@W4flann_algorithm_t@flann@@@anyimpl@flann@@UEAAXPEBQEAXPEAPEAX@Z
	?move@?$small_any_policy@W4flann_centers_init_t@flann@@@anyimpl@flann@@UEAAXPEBQEAXPEAPEAX@Z
	?move@?$small_any_policy@_N@anyimpl@flann@@UEAAXPEBQEAXPEAPEAX@Z
	?optimizeKDTree@?$AutotunedIndex@U?$L2@M@flann@@@flann@@AEAAXAEAV?$vector@UCostData@?$AutotunedIndex@U?$L2@M@flann@@@flann@@V?$allocator@UCostData@?$AutotunedIndex@U?$L2@M@flann@@@flann@@@std@@@std@@@Z
	?optimizeKMeans@?$AutotunedIndex@U?$L2@M@flann@@@flann@@AEAAXAEAV?$vector@UCostData@?$AutotunedIndex@U?$L2@M@flann@@@flann@@V?$allocator@UCostData@?$AutotunedIndex@U?$L2@M@flann@@@flann@@@std@@@std@@@Z
	?planeSplit@?$KDTreeBaseClass@V?$KDTreeSingleIndexAdaptor@U?$L2_Simple_Adaptor@MUPointSet@easy3d@@MI@nanoflann@@UPointSet@easy3d@@$02H@nanoflann@@U?$L2_Simple_Adaptor@MUPointSet@easy3d@@MI@2@UPointSet@easy3d@@$02H@nanoflann@@QEAAXAEAV?$KDTreeSingleIndexAdaptor@U?$L2_Simple_Adaptor@MUPointSet@easy3d@@MI@nanoflann@@UPointSet@easy3d@@$02H@2@_K_KHAEAMAEA_K4@Z
	?planeSplit@?$KDTreeIndex@U?$L2@M@flann@@@flann@@AEAAXPEAHHHMAEAH1@Z
	?planeSplit@?$KDTreeSingleIndex@U?$L2@M@flann@@@flann@@AEAAXPEAHHHMAEAH1@Z
	?print@?$big_any_policy@USearchParams@flann@@@anyimpl@flann@@UEAAXAEAV?$basic_ostream@DU?$char_traits@D@std@@@std@@PEBQEAX@Z
	?print@?$big_any_policy@Uempty_any@anyimpl@flann@@@anyimpl@flann@@UEAAXAEAV?$basic_ostream@DU?$char_traits@D@std@@@std@@PEBQEAX@Z
	?print@?$small_any_policy@H@anyimpl@flann@@UEAAXAEAV?$basic_ostream@DU?$char_traits@D@std@@@std@@PEBQEAX@Z
	?print@?$small_any_policy@I@anyimpl@flann@@UEAAXAEAV?$basic_ostream@DU?$char_traits@D@std@@@std@@PEBQEAX@Z
	?print@?$small_any_policy@M@anyimpl@flann@@UEAAXAEAV?$basic_ostream@DU?$char_traits@D@std@@@std@@PEBQEAX@Z
	?print@?$small_any_policy@W4flann_algorithm_t@flann@@@anyimpl@flann@@UEAAXAEAV?$basic_ostream@DU?$char_traits@D@std@@@std@@PEBQEAX@Z
	?print@?$small_any_policy@W4flann_centers_init_t@flann@@@anyimpl@flann@@UEAAXAEAV?$basic_ostream@DU?$char_traits@D@std@@@std@@PEBQEAX@Z
	?print@?$small_any_policy@_N@anyimpl@flann@@UEAAXAEAV?$basic_ostream@DU?$char_traits@D@std@@@std@@PEBQEAX@Z
	?print_params@flann@@YAXAEBUSearchParams@1@@Z
	?print_params@flann@@YAXAEBV?$map@V?$basic_string@DU?$char_traits@D@std@@V?$allocator@D@2@@std@@Vany@flann@@U?$less@V?$basic_string@DU?$char_traits@D@std@@V?$allocator@D@2@@std@@@2@V?$allocator@U?$pair@$$CBV?$basic_string@DU?$char_traits@D@std@@V?$allocator@D@2@@std@@Vany@flann@@@std@@@2@@std@@@Z
	?radiusSearch@?$NNIndex@U?$L2@M@flann@@@flann@@QEBAHAEBV?$Matrix@M@2@AEAV?$vector@V?$vector@HV?$allocator@H@std@@@std@@V?$allocator@V?$vector@HV?$allocator@H@std@@@std@@@2@@std@@AEAV?$vector@V?$vector@MV?$allocator@M@std@@@std@@V?$allocator@V?$vector@MV?$allocator@M@std@@@std@@@2@@5@MAEBUSearchParams@2@@Z
	?radiusSearch@?$NNIndex@U?$L2@M@flann@@@flann@@QEBAHAEBV?$Matrix@M@2@AEAV?$vector@V?$vector@_KV?$allocator@_K@std@@@std@@V?$allocator@V?$vector@_KV?$allocator@_K@std@@@std@@@2@@std@@AEAV?$vector@V?$vector@MV?$allocator@M@std@@@std@@V?$allocator@V?$vector@MV?$allocator@M@std@@@std@@@2@@5@MAEBUSearchParams@2@@Z
	?removePoint@?$AutotunedIndex@U?$L2@M@flann@@@flann@@UEAAX_K@Z
	?removePoint@?$CompositeIndex@U?$L2@M@flann@@@flann@@UEAAX_K@Z
	?removePoint@?$NNIndex@U?$L2@M@flann@@@flann@@UEAAX_K@Z
	?resize@?$vector@HV?$allocator@H@std@@@std@@QEAAX_K@Z
	?resize@?$vector@MV?$allocator@M@std@@@std@@QEAAX_K@Z
	?resize@?$vector@PEAMV?$allocator@PEAM@std@@@std@@QEAAX_K@Z
	?resize@?$vector@PEAUNode@?$HierarchicalClusteringIndex@U?$L2@M@flann@@@flann@@V?$allocator@PEAUNode@?$HierarchicalClusteringIndex@U?$L2@M@flann@@@flann@@@std@@@std@@QEAAX_K@Z
	?resize@?$vector@PEAUNode@?$KDTreeIndex@U?$L2@M@flann@@@flann@@V?$allocator@PEAUNode@?$KDTreeIndex@U?$L2@M@flann@@@flann@@@std@@@std@@QEAAX_K@Z
	?resize@?$vector@PEAUNode@?$KMeansIndex@U?$L2@M@flann@@@flann@@V?$allocator@PEAUNode@?$KMeansIndex@U?$L2@M@flann@@@flann@@@std@@@std@@QEAAX_K@Z
	?resize@?$vector@UInterval@?$KDTreeSingleIndex@U?$L2@M@flann@@@flann@@V?$allocator@UInterval@?$KDTreeSingleIndex@U?$L2@M@flann@@@flann@@@std@@@std@@QEAAX_K@Z
	?resize@?$vector@UPointInfo@?$HierarchicalClusteringIndex@U?$L2@M@flann@@@flann@@V?$allocator@UPointInfo@?$HierarchicalClusteringIndex@U?$L2@M@flann@@@flann@@@std@@@std@@QEAAX_K@Z
	?resize@?$vector@UPointInfo@?$KMeansIndex@U?$L2@M@flann@@@flann@@V?$allocator@UPointInfo@?$KMeansIndex@U?$L2@M@flann@@@flann@@@std@@@std@@QEAAX_K@Z
	?resize@?$vector@V?$LshTable@M@lsh@flann@@V?$allocator@V?$LshTable@M@lsh@flann@@@std@@@std@@QEAAX_K@Z
	?resize@?$vector@V?$vector@HV?$allocator@H@std@@@std@@V?$allocator@V?$vector@HV?$allocator@H@std@@@std@@@2@@std@@QEAAX_K@Z
	?resize@?$vector@V?$vector@IV?$allocator@I@std@@@std@@V?$allocator@V?$vector@IV?$allocator@I@std@@@std@@@2@@std@@QEAAX_K@Z
	?resize@?$vector@V?$vector@MV?$allocator@M@std@@@std@@V?$allocator@V?$vector@MV?$allocator@M@std@@@std@@@2@@std@@QEAAX_K@Z
	?resize@?$vector@V?$vector@_KV?$allocator@_K@std@@@std@@V?$allocator@V?$vector@_KV?$allocator@_K@std@@@std@@@2@@std@@QEAAX_K@Z
	?resize@?$vector@_KV?$allocator@_K@std@@@std@@QEAAX_K@Z
	?saveIndex@?$AutotunedIndex@U?$L2@M@flann@@@flann@@UEAAXPEAU_iobuf@@@Z
	?saveIndex@?$CompositeIndex@U?$L2@M@flann@@@flann@@UEAAXPEAU_iobuf@@@Z
	?saveIndex@?$HierarchicalClusteringIndex@U?$L2@M@flann@@@flann@@UEAAXPEAU_iobuf@@@Z
	?saveIndex@?$KDTreeIndex@U?$L2@M@flann@@@flann@@UEAAXPEAU_iobuf@@@Z
	?saveIndex@?$KDTreeSingleIndex@U?$L2@M@flann@@@flann@@UEAAXPEAU_iobuf@@@Z
	?saveIndex@?$KMeansIndex@U?$L2@M@flann@@@flann@@UEAAXPEAU_iobuf@@@Z
	?saveIndex@?$LinearIndex@U?$L2@M@flann@@@flann@@UEAAXPEAU_iobuf@@@Z
	?saveIndex@?$LshIndex@U?$L2@M@flann@@@flann@@UEAAXPEAU_iobuf@@@Z
	?setDataset@?$NNIndex@U?$L2@M@flann@@@flann@@IEAAXAEBV?$Matrix@M@2@@Z
	?set_checks@KdTreeSearch_FLANN@easy3d@@QEAAXH@Z
	?size@?$AutotunedIndex@U?$L2@M@flann@@@flann@@UEBA_KXZ
	?size@?$CompositeIndex@U?$L2@M@flann@@@flann@@UEBA_KXZ
	?size@?$NNIndex@U?$L2@M@flann@@@flann@@UEBA_KXZ
	?static_delete@?$big_any_policy@USearchParams@flann@@@anyimpl@flann@@UEAAXPEAPEAX@Z
	?static_delete@?$big_any_policy@Uempty_any@anyimpl@flann@@@anyimpl@flann@@UEAAXPEAPEAX@Z
	?static_delete@?$small_any_policy@H@anyimpl@flann@@UEAAXPEAPEAX@Z
	?static_delete@?$small_any_policy@I@anyimpl@flann@@UEAAXPEAPEAX@Z
	?static_delete@?$small_any_policy@M@anyimpl@flann@@UEAAXPEAPEAX@Z
	?static_delete@?$small_any_policy@W4flann_algorithm_t@flann@@@anyimpl@flann@@UEAAXPEAPEAX@Z
	?static_delete@?$small_any_policy@W4flann_centers_init_t@flann@@@anyimpl@flann@@UEAAXPEAPEAX@Z
	?static_delete@?$small_any_policy@_N@anyimpl@flann@@UEAAXPEAPEAX@Z
	?type@?$typed_base_any_policy@H@anyimpl@flann@@UEAAAEBVtype_info@@XZ
	?type@?$typed_base_any_policy@I@anyimpl@flann@@UEAAAEBVtype_info@@XZ
	?type@?$typed_base_any_policy@M@anyimpl@flann@@UEAAAEBVtype_info@@XZ
	?type@?$typed_base_any_policy@USearchParams@flann@@@anyimpl@flann@@UEAAAEBVtype_info@@XZ
	?type@?$typed_base_any_policy@Uempty_any@anyimpl@flann@@@anyimpl@flann@@UEAAAEBVtype_info@@XZ
	?type@?$typed_base_any_policy@W4flann_algorithm_t@flann@@@anyimpl@flann@@UEAAAEBVtype_info@@XZ
	?type@?$typed_base_any_policy@W4flann_centers_init_t@flann@@@anyimpl@flann@@UEAAAEBVtype_info@@XZ
	?type@?$typed_base_any_policy@_N@anyimpl@flann@@UEAAAEBVtype_info@@XZ
	?usedMemory@?$AutotunedIndex@U?$L2@M@flann@@@flann@@UEBAHXZ
	?usedMemory@?$CompositeIndex@U?$L2@M@flann@@@flann@@UEBAHXZ
	?usedMemory@?$HierarchicalClusteringIndex@U?$L2@M@flann@@@flann@@UEBAHXZ
	?usedMemory@?$KDTreeIndex@U?$L2@M@flann@@@flann@@UEBAHXZ
	?usedMemory@?$KDTreeSingleIndex@U?$L2@M@flann@@@flann@@UEBAHXZ
	?usedMemory@?$KMeansIndex@U?$L2@M@flann@@@flann@@UEBAHXZ
	?usedMemory@?$LinearIndex@U?$L2@M@flann@@@flann@@UEBAHXZ
	?usedMemory@?$LshIndex@U?$L2@M@flann@@@flann@@UEBAHXZ
	?veclen@?$AutotunedIndex@U?$L2@M@flann@@@flann@@UEBA_KXZ
	?veclen@?$CompositeIndex@U?$L2@M@flann@@@flann@@UEBA_KXZ
	?veclen@?$NNIndex@U?$L2@M@flann@@@flann@@UEBA_KXZ
	?what@exception@std@@UEBAPEBDXZ
	?worstDist@?$CountRadiusResultSet@M@flann@@UEBAMXZ
	?worstDist@?$KNNRadiusResultSet@M@flann@@UEBAMXZ
	?worstDist@?$KNNResultSet2@M@flann@@UEBAMXZ
	?worstDist@?$KNNResultSet@M@flann@@UEBAMXZ
	?worstDist@?$KNNSimpleResultSet@M@flann@@UEBAMXZ
	?worstDist@?$RadiusResultSet@M@flann@@UEBAMXZ
	?worstDist@?$UniqueResultSet@M@flann@@UEBAMXZ
	__local_stdio_printf_options
	fprintf
